ARM GAS  C:\Users\tiantiaf\AppData\Local\Temp\ccyA43kW.s 			page 1


   1              		.cpu cortex-m0
   2              		.fpu softvfp
   3              		.eabi_attribute 20, 1
   4              		.eabi_attribute 21, 1
   5              		.eabi_attribute 23, 3
   6              		.eabi_attribute 24, 1
   7              		.eabi_attribute 25, 1
   8              		.eabi_attribute 26, 1
   9              		.eabi_attribute 30, 6
  10              		.eabi_attribute 34, 0
  11              		.eabi_attribute 18, 4
  12              		.code	16
  13              		.file	"BLE_gatt.c"
  14              		.text
  15              	.Ltext0:
  16              		.cfi_sections	.debug_frame
  17              		.comm	cyBle_state,1,1
  18              		.global	cyBle_gatts
  19              		.section	.rodata
  20              		.align	2
  21              		.type	cyBle_gatts, %object
  22              		.size	cyBle_gatts, 6
  23              	cyBle_gatts:
  24 0000 0800     		.short	8
  25 0002 0A00     		.short	10
  26 0004 0B00     		.short	11
  27              		.data
  28              		.align	2
  29              		.type	cyBle_attValues, %object
  30              		.size	cyBle_attValues, 22
  31              	cyBle_attValues:
  32 0000 46       		.byte	70
  33 0001 69       		.byte	105
  34 0002 6E       		.byte	110
  35 0003 64       		.byte	100
  36 0004 20       		.byte	32
  37 0005 4D       		.byte	77
  38 0006 65       		.byte	101
  39 0007 00       		.byte	0
  40 0008 02       		.byte	2
  41 0009 06       		.byte	6
  42 000a 00       		.byte	0
  43 000b 28       		.byte	40
  44 000c 00       		.byte	0
  45 000d 00       		.byte	0
  46 000e 00       		.byte	0
  47 000f E8       		.byte	-24
  48 0010 03       		.byte	3
  49 0011 00       		.byte	0
  50 0012 00       		.byte	0
  51 0013 00       		.byte	0
  52 0014 00       		.byte	0
  53 0015 00       		.byte	0
  54              		.comm	cyBle_attValuesCCCD,2,4
  55              		.global	cyBle_attValuesLen
  56 0016 0000     		.align	2
  57              		.type	cyBle_attValuesLen, %object
ARM GAS  C:\Users\tiantiaf\AppData\Local\Temp\ccyA43kW.s 			page 2


  58              		.size	cyBle_attValuesLen, 48
  59              	cyBle_attValuesLen:
  60 0018 0700     		.short	7
  61 001a 0000     		.space	2
  62 001c 00000000 		.word	cyBle_attValues
  63 0020 0200     		.short	2
  64 0022 0000     		.space	2
  65 0024 07000000 		.word	cyBle_attValues+7
  66 0028 0800     		.short	8
  67 002a 0000     		.space	2
  68 002c 09000000 		.word	cyBle_attValues+9
  69 0030 0400     		.short	4
  70 0032 0000     		.space	2
  71 0034 11000000 		.word	cyBle_attValues+17
  72 0038 0200     		.short	2
  73 003a 0000     		.space	2
  74 003c 00000000 		.word	cyBle_attValuesCCCD
  75 0040 0100     		.short	1
  76 0042 0000     		.space	2
  77 0044 15000000 		.word	cyBle_attValues+21
  78              		.global	cyBle_gattDB
  79              		.section	.rodata
  80 0006 0000     		.align	2
  81              		.type	cyBle_gattDB, %object
  82              		.size	cyBle_gattDB, 280
  83              	cyBle_gattDB:
  84 0008 0100     		.short	1
  85 000a 0028     		.short	10240
  86 000c 01000000 		.word	1
  87 0010 0700     		.short	7
  88 0012 0000     		.space	2
  89 0014 0018     		.short	6144
  90 0016 0000     		.space	2
  91 0018 00000000 		.word	0
  92 001c 0200     		.short	2
  93 001e 0328     		.short	10243
  94 0020 01020000 		.word	513
  95 0024 0300     		.short	3
  96 0026 0000     		.space	2
  97 0028 002A     		.short	10752
  98 002a 0000     		.space	2
  99 002c 00000000 		.word	0
 100 0030 0300     		.short	3
 101 0032 002A     		.short	10752
 102 0034 01020000 		.word	513
 103 0038 0300     		.short	3
 104 003a 0000     		.space	2
 105 003c 0700     		.short	7
 106 003e 0000     		.space	2
 107 0040 00000000 		.word	cyBle_attValuesLen
 108 0044 0400     		.short	4
 109 0046 0328     		.short	10243
 110 0048 01020000 		.word	513
 111 004c 0500     		.short	5
 112 004e 0000     		.space	2
 113 0050 012A     		.short	10753
 114 0052 0000     		.space	2
ARM GAS  C:\Users\tiantiaf\AppData\Local\Temp\ccyA43kW.s 			page 3


 115 0054 00000000 		.word	0
 116 0058 0500     		.short	5
 117 005a 012A     		.short	10753
 118 005c 01020000 		.word	513
 119 0060 0500     		.short	5
 120 0062 0000     		.space	2
 121 0064 0200     		.short	2
 122 0066 0000     		.space	2
 123 0068 08000000 		.word	cyBle_attValuesLen+8
 124 006c 0600     		.short	6
 125 006e 0328     		.short	10243
 126 0070 01020000 		.word	513
 127 0074 0700     		.short	7
 128 0076 0000     		.space	2
 129 0078 042A     		.short	10756
 130 007a 0000     		.space	2
 131 007c 00000000 		.word	0
 132 0080 0700     		.short	7
 133 0082 042A     		.short	10756
 134 0084 01020000 		.word	513
 135 0088 0700     		.short	7
 136 008a 0000     		.space	2
 137 008c 0800     		.short	8
 138 008e 0000     		.space	2
 139 0090 10000000 		.word	cyBle_attValuesLen+16
 140 0094 0800     		.short	8
 141 0096 0028     		.short	10240
 142 0098 01000000 		.word	1
 143 009c 0B00     		.short	11
 144 009e 0000     		.space	2
 145 00a0 0118     		.short	6145
 146 00a2 0000     		.space	2
 147 00a4 00000000 		.word	0
 148 00a8 0900     		.short	9
 149 00aa 0328     		.short	10243
 150 00ac 01220000 		.word	8705
 151 00b0 0B00     		.short	11
 152 00b2 0000     		.space	2
 153 00b4 052A     		.short	10757
 154 00b6 0000     		.space	2
 155 00b8 00000000 		.word	0
 156 00bc 0A00     		.short	10
 157 00be 052A     		.short	10757
 158 00c0 01220000 		.word	8705
 159 00c4 0B00     		.short	11
 160 00c6 0000     		.space	2
 161 00c8 0400     		.short	4
 162 00ca 0000     		.space	2
 163 00cc 18000000 		.word	cyBle_attValuesLen+24
 164 00d0 0B00     		.short	11
 165 00d2 0229     		.short	10498
 166 00d4 040A0000 		.word	2564
 167 00d8 0B00     		.short	11
 168 00da 0000     		.space	2
 169 00dc 0200     		.short	2
 170 00de 0000     		.space	2
 171 00e0 20000000 		.word	cyBle_attValuesLen+32
ARM GAS  C:\Users\tiantiaf\AppData\Local\Temp\ccyA43kW.s 			page 4


 172 00e4 0C00     		.short	12
 173 00e6 0028     		.short	10240
 174 00e8 01000000 		.word	1
 175 00ec 0E00     		.short	14
 176 00ee 0000     		.space	2
 177 00f0 0218     		.short	6146
 178 00f2 0000     		.space	2
 179 00f4 00000000 		.word	0
 180 00f8 0D00     		.short	13
 181 00fa 0328     		.short	10243
 182 00fc 01040000 		.word	1025
 183 0100 0E00     		.short	14
 184 0102 0000     		.space	2
 185 0104 062A     		.short	10758
 186 0106 0000     		.space	2
 187 0108 00000000 		.word	0
 188 010c 0E00     		.short	14
 189 010e 062A     		.short	10758
 190 0110 02040000 		.word	1026
 191 0114 0E00     		.short	14
 192 0116 0000     		.space	2
 193 0118 0100     		.short	1
 194 011a 0000     		.space	2
 195 011c 28000000 		.word	cyBle_attValuesLen+40
 196              		.section	.text.CyBle_GattsReInitGattDb,"ax",%progbits
 197              		.align	2
 198              		.global	CyBle_GattsReInitGattDb
 199              		.code	16
 200              		.thumb_func
 201              		.type	CyBle_GattsReInitGattDb, %function
 202              	CyBle_GattsReInitGattDb:
 203              	.LFB2:
 204              		.file 1 ".\\Generated_Source\\PSoC4\\BLE_gatt.c"
   1:.\Generated_Source\PSoC4/BLE_gatt.c **** /***************************************************************************//**
   2:.\Generated_Source\PSoC4/BLE_gatt.c **** * \file CYBLE_gatt.c
   3:.\Generated_Source\PSoC4/BLE_gatt.c **** * \version 3.10
   4:.\Generated_Source\PSoC4/BLE_gatt.c **** * 
   5:.\Generated_Source\PSoC4/BLE_gatt.c **** * \brief
   6:.\Generated_Source\PSoC4/BLE_gatt.c **** *  This file contains the source code for the GATT API of the BLE Component.
   7:.\Generated_Source\PSoC4/BLE_gatt.c **** * 
   8:.\Generated_Source\PSoC4/BLE_gatt.c **** ********************************************************************************
   9:.\Generated_Source\PSoC4/BLE_gatt.c **** * \copyright
  10:.\Generated_Source\PSoC4/BLE_gatt.c **** * Copyright 2014-2016, Cypress Semiconductor Corporation.  All rights reserved.
  11:.\Generated_Source\PSoC4/BLE_gatt.c **** * You may use this file only in accordance with the license, terms, conditions,
  12:.\Generated_Source\PSoC4/BLE_gatt.c **** * disclaimers, and limitations in the end user license agreement accompanying
  13:.\Generated_Source\PSoC4/BLE_gatt.c **** * the software package with which this file was provided.
  14:.\Generated_Source\PSoC4/BLE_gatt.c **** *******************************************************************************/
  15:.\Generated_Source\PSoC4/BLE_gatt.c **** 
  16:.\Generated_Source\PSoC4/BLE_gatt.c **** 
  17:.\Generated_Source\PSoC4/BLE_gatt.c **** #include "BLE_eventHandler.h"
  18:.\Generated_Source\PSoC4/BLE_gatt.c **** 
  19:.\Generated_Source\PSoC4/BLE_gatt.c **** 
  20:.\Generated_Source\PSoC4/BLE_gatt.c **** /***************************************
  21:.\Generated_Source\PSoC4/BLE_gatt.c **** * Global variables
  22:.\Generated_Source\PSoC4/BLE_gatt.c **** ***************************************/
  23:.\Generated_Source\PSoC4/BLE_gatt.c **** 
  24:.\Generated_Source\PSoC4/BLE_gatt.c **** CYBLE_STATE_T cyBle_state;
ARM GAS  C:\Users\tiantiaf\AppData\Local\Temp\ccyA43kW.s 			page 5


  25:.\Generated_Source\PSoC4/BLE_gatt.c **** 
  26:.\Generated_Source\PSoC4/BLE_gatt.c **** #if ((CYBLE_MODE_PROFILE) && (CYBLE_BONDING_REQUIREMENT == CYBLE_BONDING_YES))
  27:.\Generated_Source\PSoC4/BLE_gatt.c ****     
  28:.\Generated_Source\PSoC4/BLE_gatt.c **** #if(CYBLE_MODE_PROFILE)
  29:.\Generated_Source\PSoC4/BLE_gatt.c ****     #if defined(__ARMCC_VERSION)
  30:.\Generated_Source\PSoC4/BLE_gatt.c ****         CY_ALIGN(CYDEV_FLS_ROW_SIZE) const CY_BLE_FLASH_STORAGE cyBle_flashStorage CY_SECTION(".cy_
  31:.\Generated_Source\PSoC4/BLE_gatt.c ****     #elif defined (__GNUC__)
  32:.\Generated_Source\PSoC4/BLE_gatt.c ****         const CY_BLE_FLASH_STORAGE cyBle_flashStorage CY_SECTION(".cy_checksum_exclude")
  33:.\Generated_Source\PSoC4/BLE_gatt.c ****             CY_ALIGN(CYDEV_FLS_ROW_SIZE) =
  34:.\Generated_Source\PSoC4/BLE_gatt.c ****     #elif defined (__ICCARM__)
  35:.\Generated_Source\PSoC4/BLE_gatt.c ****         #pragma data_alignment=CY_FLASH_SIZEOF_ROW
  36:.\Generated_Source\PSoC4/BLE_gatt.c ****         #pragma location=".cy_checksum_exclude"
  37:.\Generated_Source\PSoC4/BLE_gatt.c ****         const CY_BLE_FLASH_STORAGE cyBle_flashStorage =
  38:.\Generated_Source\PSoC4/BLE_gatt.c ****     #endif  /* (__ARMCC_VERSION) */
  39:.\Generated_Source\PSoC4/BLE_gatt.c ****     {
  40:.\Generated_Source\PSoC4/BLE_gatt.c ****         { 0x00u, 0x00u, 0x00u, 0x00u, 0x00u, 0x00u, 0x00u, 0x00u, 0x00u, 0x00u, 0x00u, 0x00u, 0x00u
  41:.\Generated_Source\PSoC4/BLE_gatt.c ****         0x00u, 0x00u, 0x00u, 0x00u, 0x00u, 0x00u, 0x00u, 0x00u, 0x00u, 0x00u, 0x00u, 0x00u, 0x00u, 
  42:.\Generated_Source\PSoC4/BLE_gatt.c ****         0x00u, 0x00u, 0x00u, 0x00u, 0x00u, 0x00u, 0x00u, 0x00u, 0x00u, 0x00u, 0x00u, 0x00u, 0x00u, 
  43:.\Generated_Source\PSoC4/BLE_gatt.c ****         0x00u, 0x00u, 0x00u, 0x00u, 0x00u, 0x00u, 0x00u, 0x00u, 0x00u, 0x00u, 0x00u, 0x00u, 0x00u, 
  44:.\Generated_Source\PSoC4/BLE_gatt.c ****         0x00u, 0x00u, 0x00u, 0x00u, 0x00u, 0x00u, 0x00u, 0x00u, 0x00u, 0x00u, 0x00u, 0x00u, 0x00u, 
  45:.\Generated_Source\PSoC4/BLE_gatt.c ****         0x00u, 0x00u, 0x00u, 0x00u, 0x00u, 0x00u, 0x00u, 0x00u, 0x00u, 0x00u, 0x00u, 0x00u, 0x00u, 
  46:.\Generated_Source\PSoC4/BLE_gatt.c ****         0x00u, 0x00u, 0x00u, 0x00u, 0x00u, 0x00u, 0x00u, 0x00u, 0x00u, 0x00u, 0x00u, 0x00u, 0x00u, 
  47:.\Generated_Source\PSoC4/BLE_gatt.c ****         0x00u, 0x00u, 0x00u, 0x00u, 0x00u, 0x00u, 0x00u, 0x00u, 0x00u, 0x00u, 0x00u, 0x00u, 0x00u, 
  48:.\Generated_Source\PSoC4/BLE_gatt.c ****         0x00u, 0x00u, 0x00u, 0x00u, 0x00u, 0x00u, 0x00u, 0x00u, 0x00u, 0x00u, 0x00u, 0x00u, 0x00u, 
  49:.\Generated_Source\PSoC4/BLE_gatt.c ****         0x00u, 0x00u, 0x00u, 0x00u, 0x00u, 0x00u, 0x00u, 0x00u, 0x00u, 0x00u, 0x00u, 0x00u, 0x00u, 
  50:.\Generated_Source\PSoC4/BLE_gatt.c ****         0x00u, 0x00u, 0x00u, 0x00u, 0x00u, 0x00u, 0x00u, 0x00u, 0x00u, 0x00u, 0x00u, 0x00u, 0x00u, 
  51:.\Generated_Source\PSoC4/BLE_gatt.c ****         0x00u, 0x00u, 0x00u, 0x00u, 0x00u, 0x00u, 0x00u, 0x00u, 0x00u, 0x00u, 0x00u, 0x00u, 0x00u, 
  52:.\Generated_Source\PSoC4/BLE_gatt.c ****         0x00u, 0x00u, 0x00u, 0x00u, 0x00u, 0x00u, 0x00u, 0x00u, 0x00u, 0x00u, 0x00u, 0x00u, 0x00u, 
  53:.\Generated_Source\PSoC4/BLE_gatt.c ****         0x00u, 0x00u, 0x00u, 0x00u, 0x00u, 0x00u, 0x00u, 0x00u, 0x00u, 0x00u, 0x00u, 0x00u, 0x00u, 
  54:.\Generated_Source\PSoC4/BLE_gatt.c ****         0x00u, 0x00u, 0x00u, 0x00u, 0x00u, 0x00u, 0x00u, 0x00u, 0x00u, 0x00u, 0x00u, 0x00u, 0x00u, 
  55:.\Generated_Source\PSoC4/BLE_gatt.c ****         0x00u, 0x00u, 0x00u, 0x00u, 0x00u, 0x00u, 0x00u, 0x00u, 0x00u, 0x00u, 0x00u, 0x00u, 0x00u, 
  56:.\Generated_Source\PSoC4/BLE_gatt.c ****         0x00u, 0x00u, 0x00u, 0x00u, 0x00u, 0x00u, 0x00u, 0x00u, 0x00u, 0x00u, 0x00u, 0x00u, 0x00u, 
  57:.\Generated_Source\PSoC4/BLE_gatt.c ****         0x00u, 0x00u, 0x00u, 0x00u, 0x00u, 0x00u, 0x00u, 0x00u, 0x00u, 0x00u, 0x00u, 0x00u, 0x00u, 
  58:.\Generated_Source\PSoC4/BLE_gatt.c ****         0x00u, 0x00u, 0x00u, 0x00u, 0x00u, 0x00u, 0x00u, 0x00u, 0x00u, 0x00u, 0x00u, 0x00u, 0x00u, 
  59:.\Generated_Source\PSoC4/BLE_gatt.c ****         0x00u, 0x00u, 0x00u, 0x00u, 0x00u, 0x00u, 0x00u, 0x00u, 0x00u, 0x00u, 0x00u, 0x00u, 0x00u, 
  60:.\Generated_Source\PSoC4/BLE_gatt.c ****         0x00u, 0x00u, 0x00u, 0x00u, 0x00u, 0x00u, 0x00u, 0x00u, 0x00u, 0x00u, 0x00u, 0x00u, 0x00u, 
  61:.\Generated_Source\PSoC4/BLE_gatt.c ****         0x00u, 0x00u, 0x00u, 0x00u, 0x00u, 0x00u, 0x00u, 0x00u, 0x00u, 0x00u, 0x00u, 0x00u, 0x00u, 
  62:.\Generated_Source\PSoC4/BLE_gatt.c ****         0x00u, 0x00u, 0x00u, 0x00u, 0x00u, 0x00u, 0x00u, 0x00u, 0x00u, 0x00u, 0x00u, 0x00u, 0x00u, 
  63:.\Generated_Source\PSoC4/BLE_gatt.c ****         0x00u, 0x00u, 0x00u, 0x00u, 0x00u, 0x00u, 0x00u, 0x00u, 0x00u, 0x00u, 0x00u, 0x00u, 0x00u, 
  64:.\Generated_Source\PSoC4/BLE_gatt.c ****         0x00u, 0x00u, 0x00u, 0x00u, 0x00u, 0x00u, 0x00u, 0x00u, 0x00u, 0x00u, 0x00u, 0x00u, 0x00u, 
  65:.\Generated_Source\PSoC4/BLE_gatt.c ****         0x00u, 0x00u, 0x00u, 0x00u, 0x00u, 0x00u, 0x00u, 0x00u, 0x00u, 0x00u, 0x00u, 0x00u, 0x00u, 
  66:.\Generated_Source\PSoC4/BLE_gatt.c ****         0x00u, 0x00u, 0x00u, 0x00u, 0x00u, 0x00u, 0x00u, 0x00u, 0x00u, 0x00u, 0x00u, 0x00u, 0x00u, 
  67:.\Generated_Source\PSoC4/BLE_gatt.c ****         0x00u, 0x00u, 0x00u, 0x00u, 0x00u, 0x00u, 0x00u, 0x00u, 0x00u, 0x00u, 0x00u, 0x00u, 0x00u, 
  68:.\Generated_Source\PSoC4/BLE_gatt.c ****         0x00u, 0x00u, 0x00u, 0x00u, 0x00u, 0x00u, 0x00u, 0x00u, 0x00u, 0x00u, 0x00u, 0x00u, 0x00u, 
  69:.\Generated_Source\PSoC4/BLE_gatt.c ****         0x00u, 0x00u, 0x00u, 0x00u, 0x00u, 0x00u, 0x00u, 0x00u, 0x00u, 0x00u, 0x00u, 0x00u, 0x00u, 
  70:.\Generated_Source\PSoC4/BLE_gatt.c ****         0x00u, 0x00u, 0x00u, 0x00u, 0x00u, 0x00u, 0x00u, 0x00u, 0x00u, 0x00u, 0x00u, 0x00u, 0x00u, 
  71:.\Generated_Source\PSoC4/BLE_gatt.c ****         0x00u, 0x00u, 0x00u, 0x00u, 0x00u, 0x00u, 0x00u, 0x00u, 0x00u, 0x00u, 0x00u, 0x00u, 0x00u, 
  72:.\Generated_Source\PSoC4/BLE_gatt.c ****         0x00u, 0x00u, 0x00u, 0x00u, 0x00u, 0x00u, 0x00u, 0x00u, 0x00u, 0x00u, 0x00u, 0x00u, 0x00u, 
  73:.\Generated_Source\PSoC4/BLE_gatt.c ****         0x00u, 0x00u, 0x00u, 0x00u, 0x00u, 0x00u, 0x00u, 0x00u, 0x00u, 0x00u, 0x00u, 0x00u, 0x00u, 
  74:.\Generated_Source\PSoC4/BLE_gatt.c ****         0x00u, 0x00u, 0x00u, 0x00u, 0x00u, 0x00u, 0x00u, 0x00u, 0x00u, 0x00u, 0x00u, 0x00u, 0x00u, 
  75:.\Generated_Source\PSoC4/BLE_gatt.c ****         0x00u, 0x00u, 0x00u, 0x00u, 0x00u, 0x00u, 0x00u, 0x00u, 0x00u, 0x00u, 0x00u, 0x00u, 0x00u, 
  76:.\Generated_Source\PSoC4/BLE_gatt.c ****         0x00u, 0x00u, 0x00u, 0x00u, 0x00u, 0x00u, 0x00u, 0x00u, 0x00u, 0x00u, 0x00u, 0x00u, 0x00u, 
  77:.\Generated_Source\PSoC4/BLE_gatt.c ****         0x00u, 0x00u, 0x00u, 0x00u, 0x00u, 0x00u, 0x00u, 0x00u, 0x00u, 0x00u, 0x00u, 0x00u, 0x00u, 
  78:.\Generated_Source\PSoC4/BLE_gatt.c ****         0x00u, 0x00u, 0x00u, 0x00u, 0x00u, 0x00u, 0x00u, 0x00u, 0x00u, 0x00u, 0x00u, 0x00u, 0x00u, 
  79:.\Generated_Source\PSoC4/BLE_gatt.c ****         0x00u, 0x00u, 0x00u, 0x00u, 0x00u, 0x00u, 0x00u, 0x00u, 0x00u, 0x00u }, 
  80:.\Generated_Source\PSoC4/BLE_gatt.c ****         {{
  81:.\Generated_Source\PSoC4/BLE_gatt.c ****             0x00u, 0x00u, 
ARM GAS  C:\Users\tiantiaf\AppData\Local\Temp\ccyA43kW.s 			page 6


  82:.\Generated_Source\PSoC4/BLE_gatt.c ****         },
  83:.\Generated_Source\PSoC4/BLE_gatt.c ****         {
  84:.\Generated_Source\PSoC4/BLE_gatt.c ****             0x00u, 0x00u, 
  85:.\Generated_Source\PSoC4/BLE_gatt.c ****         },
  86:.\Generated_Source\PSoC4/BLE_gatt.c ****         {
  87:.\Generated_Source\PSoC4/BLE_gatt.c ****             0x00u, 0x00u, 
  88:.\Generated_Source\PSoC4/BLE_gatt.c ****         },
  89:.\Generated_Source\PSoC4/BLE_gatt.c ****         {
  90:.\Generated_Source\PSoC4/BLE_gatt.c ****             0x00u, 0x00u, 
  91:.\Generated_Source\PSoC4/BLE_gatt.c ****         },
  92:.\Generated_Source\PSoC4/BLE_gatt.c ****         {
  93:.\Generated_Source\PSoC4/BLE_gatt.c ****             0x00u, 0x00u, 
  94:.\Generated_Source\PSoC4/BLE_gatt.c ****         }}, 
  95:.\Generated_Source\PSoC4/BLE_gatt.c ****         0x02u, /* CYBLE_GATT_DB_CCCD_COUNT */ 
  96:.\Generated_Source\PSoC4/BLE_gatt.c ****         0x05u, /* CYBLE_GAP_MAX_BONDED_DEVICE */ 
  97:.\Generated_Source\PSoC4/BLE_gatt.c ****     };
  98:.\Generated_Source\PSoC4/BLE_gatt.c **** #endif /* (CYBLE_MODE_PROFILE) */
  99:.\Generated_Source\PSoC4/BLE_gatt.c **** 
 100:.\Generated_Source\PSoC4/BLE_gatt.c **** #endif  /* (CYBLE_MODE_PROFILE) && (CYBLE_BONDING_REQUIREMENT == CYBLE_BONDING_YES) */
 101:.\Generated_Source\PSoC4/BLE_gatt.c **** 
 102:.\Generated_Source\PSoC4/BLE_gatt.c **** #if(CYBLE_GATT_ROLE_SERVER)
 103:.\Generated_Source\PSoC4/BLE_gatt.c ****     
 104:.\Generated_Source\PSoC4/BLE_gatt.c ****     const CYBLE_GATTS_T cyBle_gatts =
 105:.\Generated_Source\PSoC4/BLE_gatt.c **** {
 106:.\Generated_Source\PSoC4/BLE_gatt.c ****     0x0008u,    /* Handle of the GATT service */
 107:.\Generated_Source\PSoC4/BLE_gatt.c ****     0x000Au,    /* Handle of the Service Changed characteristic */
 108:.\Generated_Source\PSoC4/BLE_gatt.c ****     0x000Bu,    /* Handle of the Client Characteristic Configuration descriptor */
 109:.\Generated_Source\PSoC4/BLE_gatt.c **** };
 110:.\Generated_Source\PSoC4/BLE_gatt.c ****     
 111:.\Generated_Source\PSoC4/BLE_gatt.c ****     static uint8 cyBle_attValues[0x16u] = {
 112:.\Generated_Source\PSoC4/BLE_gatt.c ****     /* Device Name */
 113:.\Generated_Source\PSoC4/BLE_gatt.c ****     (uint8)'F', (uint8)'i', (uint8)'n', (uint8)'d', (uint8)' ', (uint8)'M', (uint8)'e', 
 114:.\Generated_Source\PSoC4/BLE_gatt.c **** 
 115:.\Generated_Source\PSoC4/BLE_gatt.c ****     /* Appearance */
 116:.\Generated_Source\PSoC4/BLE_gatt.c ****     0x00u, 0x02u, 
 117:.\Generated_Source\PSoC4/BLE_gatt.c **** 
 118:.\Generated_Source\PSoC4/BLE_gatt.c ****     /* Peripheral Preferred Connection Parameters */
 119:.\Generated_Source\PSoC4/BLE_gatt.c ****     0x06u, 0x00u, 0x28u, 0x00u, 0x00u, 0x00u, 0xE8u, 0x03u, 
 120:.\Generated_Source\PSoC4/BLE_gatt.c **** 
 121:.\Generated_Source\PSoC4/BLE_gatt.c ****     /* Service Changed */
 122:.\Generated_Source\PSoC4/BLE_gatt.c ****     0x00u, 0x00u, 0x00u, 0x00u, 
 123:.\Generated_Source\PSoC4/BLE_gatt.c **** 
 124:.\Generated_Source\PSoC4/BLE_gatt.c ****     /* Alert Level */
 125:.\Generated_Source\PSoC4/BLE_gatt.c ****     0x00u, 
 126:.\Generated_Source\PSoC4/BLE_gatt.c **** 
 127:.\Generated_Source\PSoC4/BLE_gatt.c **** };
 128:.\Generated_Source\PSoC4/BLE_gatt.c **** #if(CYBLE_GATT_DB_CCCD_COUNT != 0u)
 129:.\Generated_Source\PSoC4/BLE_gatt.c **** uint8 cyBle_attValuesCCCD[CYBLE_GATT_DB_CCCD_COUNT];
 130:.\Generated_Source\PSoC4/BLE_gatt.c **** #endif /* CYBLE_GATT_DB_CCCD_COUNT != 0u */
 131:.\Generated_Source\PSoC4/BLE_gatt.c **** 
 132:.\Generated_Source\PSoC4/BLE_gatt.c **** CYBLE_GATTS_ATT_GEN_VAL_LEN_T cyBle_attValuesLen[CYBLE_GATT_DB_ATT_VAL_COUNT] = {
 133:.\Generated_Source\PSoC4/BLE_gatt.c ****     { 0x0007u, (void *)&cyBle_attValues[0] }, /* Device Name */
 134:.\Generated_Source\PSoC4/BLE_gatt.c ****     { 0x0002u, (void *)&cyBle_attValues[7] }, /* Appearance */
 135:.\Generated_Source\PSoC4/BLE_gatt.c ****     { 0x0008u, (void *)&cyBle_attValues[9] }, /* Peripheral Preferred Connection Parameters */
 136:.\Generated_Source\PSoC4/BLE_gatt.c ****     { 0x0004u, (void *)&cyBle_attValues[17] }, /* Service Changed */
 137:.\Generated_Source\PSoC4/BLE_gatt.c ****     { 0x0002u, (void *)&cyBle_attValuesCCCD[0] }, /* Client Characteristic Configuration */
 138:.\Generated_Source\PSoC4/BLE_gatt.c ****     { 0x0001u, (void *)&cyBle_attValues[21] }, /* Alert Level */
ARM GAS  C:\Users\tiantiaf\AppData\Local\Temp\ccyA43kW.s 			page 7


 139:.\Generated_Source\PSoC4/BLE_gatt.c **** };
 140:.\Generated_Source\PSoC4/BLE_gatt.c **** 
 141:.\Generated_Source\PSoC4/BLE_gatt.c **** const CYBLE_GATTS_DB_T cyBle_gattDB[0x0Eu] = {
 142:.\Generated_Source\PSoC4/BLE_gatt.c ****     { 0x0001u, 0x2800u /* Primary service                     */, 0x00000001u /*        */, 0x0007u
 143:.\Generated_Source\PSoC4/BLE_gatt.c ****     { 0x0002u, 0x2803u /* Characteristic                      */, 0x00000201u /* rd     */, 0x0003u
 144:.\Generated_Source\PSoC4/BLE_gatt.c ****     { 0x0003u, 0x2A00u /* Device Name                         */, 0x00000201u /* rd     */, 0x0003u
 145:.\Generated_Source\PSoC4/BLE_gatt.c ****     { 0x0004u, 0x2803u /* Characteristic                      */, 0x00000201u /* rd     */, 0x0005u
 146:.\Generated_Source\PSoC4/BLE_gatt.c ****     { 0x0005u, 0x2A01u /* Appearance                          */, 0x00000201u /* rd     */, 0x0005u
 147:.\Generated_Source\PSoC4/BLE_gatt.c ****     { 0x0006u, 0x2803u /* Characteristic                      */, 0x00000201u /* rd     */, 0x0007u
 148:.\Generated_Source\PSoC4/BLE_gatt.c ****     { 0x0007u, 0x2A04u /* Peripheral Preferred Connection Par */, 0x00000201u /* rd     */, 0x0007u
 149:.\Generated_Source\PSoC4/BLE_gatt.c ****     { 0x0008u, 0x2800u /* Primary service                     */, 0x00000001u /*        */, 0x000Bu
 150:.\Generated_Source\PSoC4/BLE_gatt.c ****     { 0x0009u, 0x2803u /* Characteristic                      */, 0x00002201u /* rd,ind */, 0x000Bu
 151:.\Generated_Source\PSoC4/BLE_gatt.c ****     { 0x000Au, 0x2A05u /* Service Changed                     */, 0x00002201u /* rd,ind */, 0x000Bu
 152:.\Generated_Source\PSoC4/BLE_gatt.c ****     { 0x000Bu, 0x2902u /* Client Characteristic Configuration */, 0x00000A04u /* rd,wr  */, 0x000Bu
 153:.\Generated_Source\PSoC4/BLE_gatt.c ****     { 0x000Cu, 0x2800u /* Primary service                     */, 0x00000001u /*        */, 0x000Eu
 154:.\Generated_Source\PSoC4/BLE_gatt.c ****     { 0x000Du, 0x2803u /* Characteristic                      */, 0x00000401u /* wwr    */, 0x000Eu
 155:.\Generated_Source\PSoC4/BLE_gatt.c ****     { 0x000Eu, 0x2A06u /* Alert Level                         */, 0x00000402u /* wwr    */, 0x000Eu
 156:.\Generated_Source\PSoC4/BLE_gatt.c **** };
 157:.\Generated_Source\PSoC4/BLE_gatt.c **** 
 158:.\Generated_Source\PSoC4/BLE_gatt.c **** 
 159:.\Generated_Source\PSoC4/BLE_gatt.c **** #endif /* (CYBLE_GATT_ROLE_SERVER) */
 160:.\Generated_Source\PSoC4/BLE_gatt.c **** 
 161:.\Generated_Source\PSoC4/BLE_gatt.c **** #if(CYBLE_GATT_ROLE_CLIENT)
 162:.\Generated_Source\PSoC4/BLE_gatt.c ****     
 163:.\Generated_Source\PSoC4/BLE_gatt.c **** CYBLE_CLIENT_STATE_T cyBle_clientState;
 164:.\Generated_Source\PSoC4/BLE_gatt.c **** CYBLE_GATTC_T cyBle_gattc;
 165:.\Generated_Source\PSoC4/BLE_gatt.c **** CYBLE_GATT_ATTR_HANDLE_RANGE_T cyBle_gattcDiscoveryRange;
 166:.\Generated_Source\PSoC4/BLE_gatt.c ****     
 167:.\Generated_Source\PSoC4/BLE_gatt.c **** #endif /* (CYBLE_GATT_ROLE_CLIENT) */
 168:.\Generated_Source\PSoC4/BLE_gatt.c **** 
 169:.\Generated_Source\PSoC4/BLE_gatt.c **** 
 170:.\Generated_Source\PSoC4/BLE_gatt.c **** #if(CYBLE_GATT_ROLE_SERVER)
 171:.\Generated_Source\PSoC4/BLE_gatt.c **** 
 172:.\Generated_Source\PSoC4/BLE_gatt.c **** /****************************************************************************** 
 173:.\Generated_Source\PSoC4/BLE_gatt.c **** * Function Name: CyBle_GattsReInitGattDb
 174:.\Generated_Source\PSoC4/BLE_gatt.c **** ***************************************************************************//**
 175:.\Generated_Source\PSoC4/BLE_gatt.c **** * 
 176:.\Generated_Source\PSoC4/BLE_gatt.c **** *  Reinitializes the GATT database.
 177:.\Generated_Source\PSoC4/BLE_gatt.c **** * 
 178:.\Generated_Source\PSoC4/BLE_gatt.c **** *  \return
 179:.\Generated_Source\PSoC4/BLE_gatt.c **** *  CYBLE_API_RESULT_T: An API result states if the API succeeded or failed with
 180:.\Generated_Source\PSoC4/BLE_gatt.c **** *  error codes:
 181:.\Generated_Source\PSoC4/BLE_gatt.c **** 
 182:.\Generated_Source\PSoC4/BLE_gatt.c **** *  Errors codes                          | Description
 183:.\Generated_Source\PSoC4/BLE_gatt.c **** *  ------------                          | -----------
 184:.\Generated_Source\PSoC4/BLE_gatt.c **** *  CYBLE_ERROR_OK						 | GATT database was reinitialized successfully.
 185:.\Generated_Source\PSoC4/BLE_gatt.c **** *  CYBLE_ERROR_INVALID_STATE             | If the function is called in any state except CYBLE_STAT
 186:.\Generated_Source\PSoC4/BLE_gatt.c **** *  CYBLE_ERROR_INVALID_PARAMETER         | If the Database has zero entries or is a NULL pointer.
 187:.\Generated_Source\PSoC4/BLE_gatt.c **** * 
 188:.\Generated_Source\PSoC4/BLE_gatt.c **** ******************************************************************************/
 189:.\Generated_Source\PSoC4/BLE_gatt.c **** CYBLE_API_RESULT_T CyBle_GattsReInitGattDb(void)
 190:.\Generated_Source\PSoC4/BLE_gatt.c **** {
 205              		.loc 1 190 0
 206              		.cfi_startproc
 207 0000 90B5     		push	{r4, r7, lr}
 208              		.cfi_def_cfa_offset 12
 209              		.cfi_offset 4, -12
ARM GAS  C:\Users\tiantiaf\AppData\Local\Temp\ccyA43kW.s 			page 8


 210              		.cfi_offset 7, -8
 211              		.cfi_offset 14, -4
 212 0002 83B0     		sub	sp, sp, #12
 213              		.cfi_def_cfa_offset 24
 214 0004 00AF     		add	r7, sp, #0
 215              		.cfi_def_cfa_register 7
 191:.\Generated_Source\PSoC4/BLE_gatt.c ****     CYBLE_API_RESULT_T apiResult;
 192:.\Generated_Source\PSoC4/BLE_gatt.c ****     
 193:.\Generated_Source\PSoC4/BLE_gatt.c ****     if(CYBLE_STATE_DISCONNECTED == CyBle_GetState())
 216              		.loc 1 193 0
 217 0006 0C4B     		ldr	r3, .L5
 218 0008 1B78     		ldrb	r3, [r3]
 219 000a 042B     		cmp	r3, #4
 220 000c 09D1     		bne	.L2
 194:.\Generated_Source\PSoC4/BLE_gatt.c ****     {
 195:.\Generated_Source\PSoC4/BLE_gatt.c ****         apiResult = CyBle_GattsDbRegister(cyBle_gattDB, CYBLE_GATT_DB_INDEX_COUNT, CYBLE_GATT_DB_MA
 221              		.loc 1 195 0
 222 000e BC1D     		add	r4, r7, #6
 223 0010 0A4B     		ldr	r3, .L5+4
 224 0012 181C     		mov	r0, r3
 225 0014 0E21     		mov	r1, #14
 226 0016 0822     		mov	r2, #8
 227 0018 FFF7FEFF 		bl	CyBle_GattsDbRegister
 228 001c 031C     		mov	r3, r0
 229 001e 2380     		strh	r3, [r4]
 230 0020 03E0     		b	.L3
 231              	.L2:
 196:.\Generated_Source\PSoC4/BLE_gatt.c ****     }
 197:.\Generated_Source\PSoC4/BLE_gatt.c ****     else
 198:.\Generated_Source\PSoC4/BLE_gatt.c ****     {
 199:.\Generated_Source\PSoC4/BLE_gatt.c ****         apiResult = CYBLE_ERROR_INVALID_STATE;
 232              		.loc 1 199 0
 233 0022 BB1D     		add	r3, r7, #6
 234 0024 0422     		mov	r2, #4
 235 0026 FF32     		add	r2, r2, #255
 236 0028 1A80     		strh	r2, [r3]
 237              	.L3:
 200:.\Generated_Source\PSoC4/BLE_gatt.c ****     }
 201:.\Generated_Source\PSoC4/BLE_gatt.c ****     
 202:.\Generated_Source\PSoC4/BLE_gatt.c ****     return(apiResult);
 238              		.loc 1 202 0
 239 002a BB1D     		add	r3, r7, #6
 240 002c 1B88     		ldrh	r3, [r3]
 203:.\Generated_Source\PSoC4/BLE_gatt.c **** }
 241              		.loc 1 203 0
 242 002e 181C     		mov	r0, r3
 243 0030 BD46     		mov	sp, r7
 244 0032 03B0     		add	sp, sp, #12
 245              		@ sp needed
 246 0034 90BD     		pop	{r4, r7, pc}
 247              	.L6:
 248 0036 C046     		.align	2
 249              	.L5:
 250 0038 00000000 		.word	cyBle_state
 251 003c 00000000 		.word	cyBle_gattDB
 252              		.cfi_endproc
 253              	.LFE2:
ARM GAS  C:\Users\tiantiaf\AppData\Local\Temp\ccyA43kW.s 			page 9


 254              		.size	CyBle_GattsReInitGattDb, .-CyBle_GattsReInitGattDb
 255              		.section	.text.CyBle_GattsWriteEventHandler,"ax",%progbits
 256              		.align	2
 257              		.global	CyBle_GattsWriteEventHandler
 258              		.code	16
 259              		.thumb_func
 260              		.type	CyBle_GattsWriteEventHandler, %function
 261              	CyBle_GattsWriteEventHandler:
 262              	.LFB3:
 204:.\Generated_Source\PSoC4/BLE_gatt.c **** 
 205:.\Generated_Source\PSoC4/BLE_gatt.c **** 
 206:.\Generated_Source\PSoC4/BLE_gatt.c **** /****************************************************************************** 
 207:.\Generated_Source\PSoC4/BLE_gatt.c **** * Function Name: CyBle_GattsWriteEventHandler
 208:.\Generated_Source\PSoC4/BLE_gatt.c **** ***************************************************************************//**
 209:.\Generated_Source\PSoC4/BLE_gatt.c **** * 
 210:.\Generated_Source\PSoC4/BLE_gatt.c **** *  Handles the Write Request Event for GATT service.
 211:.\Generated_Source\PSoC4/BLE_gatt.c **** * 
 212:.\Generated_Source\PSoC4/BLE_gatt.c **** *  \param eventParam: The pointer to the data structure specified by the event.
 213:.\Generated_Source\PSoC4/BLE_gatt.c **** * 
 214:.\Generated_Source\PSoC4/BLE_gatt.c **** *  \return
 215:.\Generated_Source\PSoC4/BLE_gatt.c **** *  CYBLE_GATT_ERR_CODE_T: An API result returns one of the following status 
 216:.\Generated_Source\PSoC4/BLE_gatt.c **** *  values.
 217:.\Generated_Source\PSoC4/BLE_gatt.c **** 
 218:.\Generated_Source\PSoC4/BLE_gatt.c **** *  Errors codes                          | Description
 219:.\Generated_Source\PSoC4/BLE_gatt.c **** *  --------------------                  | -----------
 220:.\Generated_Source\PSoC4/BLE_gatt.c **** *  CYBLE_GATT_ERR_NONE                   | Write is successful.
 221:.\Generated_Source\PSoC4/BLE_gatt.c **** * 
 222:.\Generated_Source\PSoC4/BLE_gatt.c **** ******************************************************************************/
 223:.\Generated_Source\PSoC4/BLE_gatt.c **** CYBLE_GATT_ERR_CODE_T CyBle_GattsWriteEventHandler(CYBLE_GATTS_WRITE_REQ_PARAM_T *eventParam)
 224:.\Generated_Source\PSoC4/BLE_gatt.c **** {
 263              		.loc 1 224 0
 264              		.cfi_startproc
 265 0000 90B5     		push	{r4, r7, lr}
 266              		.cfi_def_cfa_offset 12
 267              		.cfi_offset 4, -12
 268              		.cfi_offset 7, -8
 269              		.cfi_offset 14, -4
 270 0002 85B0     		sub	sp, sp, #20
 271              		.cfi_def_cfa_offset 32
 272 0004 00AF     		add	r7, sp, #0
 273              		.cfi_def_cfa_register 7
 274 0006 7860     		str	r0, [r7, #4]
 225:.\Generated_Source\PSoC4/BLE_gatt.c ****     CYBLE_GATT_ERR_CODE_T gattErr = CYBLE_GATT_ERR_NONE;
 275              		.loc 1 225 0
 276 0008 0F23     		mov	r3, #15
 277 000a FB18     		add	r3, r7, r3
 278 000c 0022     		mov	r2, #0
 279 000e 1A70     		strb	r2, [r3]
 226:.\Generated_Source\PSoC4/BLE_gatt.c ****     
 227:.\Generated_Source\PSoC4/BLE_gatt.c ****     /* Client Characteristic Configuration descriptor write request */
 228:.\Generated_Source\PSoC4/BLE_gatt.c ****     if(eventParam->handleValPair.attrHandle == cyBle_gatts.cccdHandle)
 280              		.loc 1 228 0
 281 0010 7B68     		ldr	r3, [r7, #4]
 282 0012 9B89     		ldrh	r3, [r3, #12]
 283 0014 0B22     		mov	r2, #11
 284 0016 9342     		cmp	r3, r2
 285 0018 37D1     		bne	.L8
ARM GAS  C:\Users\tiantiaf\AppData\Local\Temp\ccyA43kW.s 			page 10


 229:.\Generated_Source\PSoC4/BLE_gatt.c ****     {
 230:.\Generated_Source\PSoC4/BLE_gatt.c ****         /* Store value to database */
 231:.\Generated_Source\PSoC4/BLE_gatt.c ****         gattErr = CyBle_GattsWriteAttributeValue(&eventParam->handleValPair, 0u, 
 286              		.loc 1 231 0
 287 001a 7B68     		ldr	r3, [r7, #4]
 288 001c 1A1D     		add	r2, r3, #4
 289 001e 7B68     		ldr	r3, [r7, #4]
 290 0020 0F21     		mov	r1, #15
 291 0022 7C18     		add	r4, r7, r1
 292 0024 101C     		mov	r0, r2
 293 0026 0021     		mov	r1, #0
 294 0028 1A1C     		mov	r2, r3
 295 002a 4023     		mov	r3, #64
 296 002c FFF7FEFF 		bl	CyBle_GattsWriteAttributeValue
 297 0030 031C     		mov	r3, r0
 298 0032 2370     		strb	r3, [r4]
 232:.\Generated_Source\PSoC4/BLE_gatt.c ****                         &eventParam->connHandle, CYBLE_GATT_DB_PEER_INITIATED);
 233:.\Generated_Source\PSoC4/BLE_gatt.c ****         
 234:.\Generated_Source\PSoC4/BLE_gatt.c ****         if(CYBLE_GATT_ERR_NONE == gattErr)
 299              		.loc 1 234 0
 300 0034 0F23     		mov	r3, #15
 301 0036 FB18     		add	r3, r7, r3
 302 0038 1B78     		ldrb	r3, [r3]
 303 003a 002B     		cmp	r3, #0
 304 003c 1DD1     		bne	.L9
 235:.\Generated_Source\PSoC4/BLE_gatt.c ****         {
 236:.\Generated_Source\PSoC4/BLE_gatt.c ****             if(CYBLE_IS_INDICATION_ENABLED_IN_PTR(eventParam->handleValPair.value.val))
 305              		.loc 1 236 0
 306 003e 7B68     		ldr	r3, [r7, #4]
 307 0040 5B68     		ldr	r3, [r3, #4]
 308 0042 181C     		mov	r0, r3
 309 0044 FFF7FEFF 		bl	CyBle_Get16ByPtr
 310 0048 031C     		mov	r3, r0
 311 004a 1A1C     		mov	r2, r3
 312 004c 0223     		mov	r3, #2
 313 004e 1340     		and	r3, r2
 314 0050 9BB2     		uxth	r3, r3
 315 0052 002B     		cmp	r3, #0
 316 0054 08D0     		beq	.L10
 237:.\Generated_Source\PSoC4/BLE_gatt.c ****             {
 238:.\Generated_Source\PSoC4/BLE_gatt.c ****                 CyBle_ApplCallback((uint32)CYBLE_EVT_GATTS_INDICATION_ENABLED, eventParam);
 317              		.loc 1 238 0
 318 0056 104B     		ldr	r3, .L12
 319 0058 1B68     		ldr	r3, [r3]
 320 005a 8222     		mov	r2, #130
 321 005c 5100     		lsl	r1, r2, #1
 322 005e 7A68     		ldr	r2, [r7, #4]
 323 0060 081C     		mov	r0, r1
 324 0062 111C     		mov	r1, r2
 325 0064 9847     		blx	r3
 326 0066 08E0     		b	.L9
 327              	.L10:
 239:.\Generated_Source\PSoC4/BLE_gatt.c ****             }
 240:.\Generated_Source\PSoC4/BLE_gatt.c ****             else
 241:.\Generated_Source\PSoC4/BLE_gatt.c ****             {
 242:.\Generated_Source\PSoC4/BLE_gatt.c ****                 CyBle_ApplCallback((uint32)CYBLE_EVT_GATTS_INDICATION_DISABLED, eventParam);
 328              		.loc 1 242 0
ARM GAS  C:\Users\tiantiaf\AppData\Local\Temp\ccyA43kW.s 			page 11


 329 0068 0B4B     		ldr	r3, .L12
 330 006a 1B68     		ldr	r3, [r3]
 331 006c 0622     		mov	r2, #6
 332 006e FF32     		add	r2, r2, #255
 333 0070 111C     		mov	r1, r2
 334 0072 7A68     		ldr	r2, [r7, #4]
 335 0074 081C     		mov	r0, r1
 336 0076 111C     		mov	r1, r2
 337 0078 9847     		blx	r3
 338              	.L9:
 243:.\Generated_Source\PSoC4/BLE_gatt.c ****             }
 244:.\Generated_Source\PSoC4/BLE_gatt.c ****         }
 245:.\Generated_Source\PSoC4/BLE_gatt.c ****         cyBle_eventHandlerFlag &= (uint8)~CYBLE_CALLBACK;
 339              		.loc 1 245 0
 340 007a 084B     		ldr	r3, .L12+4
 341 007c 1B78     		ldrb	r3, [r3]
 342 007e DBB2     		uxtb	r3, r3
 343 0080 0122     		mov	r2, #1
 344 0082 9343     		bic	r3, r2
 345 0084 DAB2     		uxtb	r2, r3
 346 0086 054B     		ldr	r3, .L12+4
 347 0088 1A70     		strb	r2, [r3]
 348              	.L8:
 246:.\Generated_Source\PSoC4/BLE_gatt.c ****     }
 247:.\Generated_Source\PSoC4/BLE_gatt.c ****     return (gattErr);
 349              		.loc 1 247 0
 350 008a 0F23     		mov	r3, #15
 351 008c FB18     		add	r3, r7, r3
 352 008e 1B78     		ldrb	r3, [r3]
 248:.\Generated_Source\PSoC4/BLE_gatt.c **** }
 353              		.loc 1 248 0
 354 0090 181C     		mov	r0, r3
 355 0092 BD46     		mov	sp, r7
 356 0094 05B0     		add	sp, sp, #20
 357              		@ sp needed
 358 0096 90BD     		pop	{r4, r7, pc}
 359              	.L13:
 360              		.align	2
 361              	.L12:
 362 0098 00000000 		.word	CyBle_ApplCallback
 363 009c 00000000 		.word	cyBle_eventHandlerFlag
 364              		.cfi_endproc
 365              	.LFE3:
 366              		.size	CyBle_GattsWriteEventHandler, .-CyBle_GattsWriteEventHandler
 367              		.text
 368              	.Letext0:
 369              		.file 2 ".\\Generated_Source\\PSoC4\\cytypes.h"
 370              		.file 3 ".\\Generated_Source\\PSoC4\\BLE_Stack.h"
 371              		.file 4 ".\\Generated_Source\\PSoC4\\BLE_StackGatt.h"
 372              		.file 5 ".\\Generated_Source\\PSoC4\\BLE_StackGattServer.h"
 373              		.file 6 ".\\Generated_Source\\PSoC4\\BLE_StackGattDb.h"
 374              		.file 7 ".\\Generated_Source\\PSoC4\\BLE.h"
 375              		.file 8 ".\\Generated_Source\\PSoC4\\BLE_gatt.h"
 376              		.file 9 ".\\Generated_Source\\PSoC4\\BLE_eventHandler.h"