ARM GAS  C:\Users\tiantiaf\AppData\Local\Temp\ccTlawkT.s 			page 1


   1              		.cpu cortex-m0
   2              		.fpu softvfp
   3              		.eabi_attribute 20, 1
   4              		.eabi_attribute 21, 1
   5              		.eabi_attribute 23, 3
   6              		.eabi_attribute 24, 1
   7              		.eabi_attribute 25, 1
   8              		.eabi_attribute 26, 1
   9              		.eabi_attribute 30, 6
  10              		.eabi_attribute 34, 0
  11              		.eabi_attribute 18, 4
  12              		.code	16
  13              		.file	"BLEApplications.c"
  14              		.text
  15              	.Ltext0:
  16              		.cfi_sections	.debug_frame
  17              		.global	deviceConnected
  18              		.bss
  19              		.type	deviceConnected, %object
  20              		.size	deviceConnected, 1
  21              	deviceConnected:
  22 0000 00       		.space	1
  23              		.global	startNotification
  24              		.type	startNotification, %object
  25              		.size	startNotification, 1
  26              	startNotification:
  27 0001 00       		.space	1
  28              		.comm	connectionHandle,2,4
  29              		.global	restartAdvertisement
  30              		.type	restartAdvertisement, %object
  31              		.size	restartAdvertisement, 1
  32              	restartAdvertisement:
  33 0002 00       		.space	1
  34              		.global	updateNotificationCCCAttribute
  35              		.type	updateNotificationCCCAttribute, %object
  36              		.size	updateNotificationCCCAttribute, 1
  37              	updateNotificationCCCAttribute:
  38 0003 00       		.space	1
  39              		.global	busyStatus
  40              		.type	busyStatus, %object
  41              		.size	busyStatus, 1
  42              	busyStatus:
  43 0004 00       		.space	1
  44              		.section	.text.CustomEventHandler,"ax",%progbits
  45              		.align	2
  46              		.global	CustomEventHandler
  47              		.code	16
  48              		.thumb_func
  49              		.type	CustomEventHandler, %function
  50              	CustomEventHandler:
  51              	.LFB37:
  52              		.file 1 ".\\BLEApplications.c"
   1:.\BLEApplications.c **** /******************************************************************************
   2:.\BLEApplications.c **** * Project Name		: PSoC_4_BLE_CapSense_Proximity
   3:.\BLEApplications.c **** * File Name			: BLEApplications.c
   4:.\BLEApplications.c **** * Version 			: 1.0
   5:.\BLEApplications.c **** * Device Used		: CY8C4247LQI-BL483
ARM GAS  C:\Users\tiantiaf\AppData\Local\Temp\ccTlawkT.s 			page 2


   6:.\BLEApplications.c **** * Software Used		: PSoC Creator 3.1
   7:.\BLEApplications.c **** * Compiler    		: ARM GCC 4.8.4, ARM RVDS Generic, ARM MDK Generic
   8:.\BLEApplications.c **** * Related Hardware	: CY8CKIT-042-BLE Bluetooth Low Energy Pioneer Kit 
   9:.\BLEApplications.c **** * Owner				: ROIT
  10:.\BLEApplications.c **** *
  11:.\BLEApplications.c **** ********************************************************************************
  12:.\BLEApplications.c **** * Copyright (2014), Cypress Semiconductor Corporation. All Rights Reserved.
  13:.\BLEApplications.c **** ********************************************************************************
  14:.\BLEApplications.c **** * This software is owned by Cypress Semiconductor Corporation (Cypress)
  15:.\BLEApplications.c **** * and is protected by and subject to worldwide patent protection (United
  16:.\BLEApplications.c **** * States and foreign), United States copyright laws and international treaty
  17:.\BLEApplications.c **** * provisions. Cypress hereby grants to licensee a personal, non-exclusive,
  18:.\BLEApplications.c **** * non-transferable license to copy, use, modify, create derivative works of,
  19:.\BLEApplications.c **** * and compile the Cypress Source Code and derivative works for the sole
  20:.\BLEApplications.c **** * purpose of creating custom software in support of licensee product to be
  21:.\BLEApplications.c **** * used only in conjunction with a Cypress integrated circuit as specified in
  22:.\BLEApplications.c **** * the applicable agreement. Any reproduction, modification, translation,
  23:.\BLEApplications.c **** * compilation, or representation of this software except as specified above 
  24:.\BLEApplications.c **** * is prohibited without the express written permission of Cypress.
  25:.\BLEApplications.c **** *
  26:.\BLEApplications.c **** * Disclaimer: CYPRESS MAKES NO WARRANTY OF ANY KIND, EXPRESS OR IMPLIED, WITH 
  27:.\BLEApplications.c **** * REGARD TO THIS MATERIAL, INCLUDING, BUT NOT LIMITED TO, THE IMPLIED 
  28:.\BLEApplications.c **** * WARRANTIES OF MERCHANTABILITY AND FITNESS FOR A PARTICULAR PURPOSE.
  29:.\BLEApplications.c **** * Cypress reserves the right to make changes without further notice to the 
  30:.\BLEApplications.c **** * materials described herein. Cypress does not assume any liability arising out 
  31:.\BLEApplications.c **** * of the application or use of any product or circuit described herein. Cypress 
  32:.\BLEApplications.c **** * does not authorize its products for use as critical components in life-support 
  33:.\BLEApplications.c **** * systems where a malfunction or failure may reasonably be expected to result in 
  34:.\BLEApplications.c **** * significant injury to the user. The inclusion of Cypress' product in a life-
  35:.\BLEApplications.c **** * support systems application implies that the manufacturer assumes all risk of 
  36:.\BLEApplications.c **** * such use and in doing so indemnifies Cypress against all charges. 
  37:.\BLEApplications.c **** *
  38:.\BLEApplications.c **** * Use of this Software may be limited by and subject to the applicable Cypress
  39:.\BLEApplications.c **** * software license agreement. 
  40:.\BLEApplications.c **** *******************************************************************************/
  41:.\BLEApplications.c **** 
  42:.\BLEApplications.c **** /******************************************************************************
  43:.\BLEApplications.c **** * Contains BLE application functions definitions such as EventHandler and Macro
  44:.\BLEApplications.c **** * definitions
  45:.\BLEApplications.c **** ******************************************************************************/
  46:.\BLEApplications.c **** #include "main.h"
  47:.\BLEApplications.c **** 
  48:.\BLEApplications.c **** /**************************Variable Declarations*****************************/
  49:.\BLEApplications.c **** /*'deviceConnected' flag is used by application to know whether a Central device  
  50:.\BLEApplications.c **** * has been connected. This is updated in BLE event callback */
  51:.\BLEApplications.c **** uint8 deviceConnected = FALSE;	
  52:.\BLEApplications.c **** 
  53:.\BLEApplications.c **** /*'startNotification' flag is set when the central device writes to CCC (Client 
  54:.\BLEApplications.c **** * Characteristic Configuration) of the CapSense proximity characteristic to 
  55:.\BLEApplications.c **** *enable notifications */
  56:.\BLEApplications.c **** uint8 startNotification = FALSE;		
  57:.\BLEApplications.c **** 
  58:.\BLEApplications.c **** /* 'connectionHandle' is handle to store BLE connection parameters */
  59:.\BLEApplications.c **** CYBLE_CONN_HANDLE_T  				connectionHandle;	
  60:.\BLEApplications.c **** 
  61:.\BLEApplications.c **** /* 'restartAdvertisement' flag provided the present state of power mode in firmware */
  62:.\BLEApplications.c **** uint8 restartAdvertisement = FALSE;
ARM GAS  C:\Users\tiantiaf\AppData\Local\Temp\ccTlawkT.s 			page 3


  63:.\BLEApplications.c **** 
  64:.\BLEApplications.c **** /* This flag is used to let application update the CCCD value for correct read 
  65:.\BLEApplications.c **** * operation by connected Central device */
  66:.\BLEApplications.c **** uint8 updateNotificationCCCAttribute = FALSE;
  67:.\BLEApplications.c **** 
  68:.\BLEApplications.c **** /* Status flag for the Stack Busy state. This flag is used to notify the application 
  69:.\BLEApplications.c **** * whether there is stack buffer free to push more data or not */
  70:.\BLEApplications.c **** uint8 busyStatus = 0;
  71:.\BLEApplications.c **** /****************************************************************************/
  72:.\BLEApplications.c **** 
  73:.\BLEApplications.c **** /*******************************************************************************
  74:.\BLEApplications.c **** * Function Name: CustomEventHandler
  75:.\BLEApplications.c **** ********************************************************************************
  76:.\BLEApplications.c **** * Summary:
  77:.\BLEApplications.c **** *        Call back event function to handle various events from BLE stack
  78:.\BLEApplications.c **** *
  79:.\BLEApplications.c **** * Parameters:
  80:.\BLEApplications.c **** *  event:		event returned
  81:.\BLEApplications.c **** *  eventParam:	link to value of the event parameter returned
  82:.\BLEApplications.c **** *
  83:.\BLEApplications.c **** * Return:
  84:.\BLEApplications.c **** *  void
  85:.\BLEApplications.c **** *
  86:.\BLEApplications.c **** *******************************************************************************/
  87:.\BLEApplications.c **** void CustomEventHandler(uint32 event, void *eventParam)
  88:.\BLEApplications.c **** {
  53              		.loc 1 88 0
  54              		.cfi_startproc
  55 0000 80B5     		push	{r7, lr}
  56              		.cfi_def_cfa_offset 8
  57              		.cfi_offset 7, -8
  58              		.cfi_offset 14, -4
  59 0002 84B0     		sub	sp, sp, #16
  60              		.cfi_def_cfa_offset 24
  61 0004 00AF     		add	r7, sp, #0
  62              		.cfi_def_cfa_register 7
  63 0006 7860     		str	r0, [r7, #4]
  64 0008 3960     		str	r1, [r7]
  89:.\BLEApplications.c ****     CYBLE_GATTS_WRITE_REQ_PARAM_T *wrReqParam;
  90:.\BLEApplications.c **** 	
  91:.\BLEApplications.c ****     switch(event)
  65              		.loc 1 91 0
  66 000a 7B68     		ldr	r3, [r7, #4]
  67 000c 4C2B     		cmp	r3, #76
  68 000e 56D8     		bhi	.L16
  69 0010 7B68     		ldr	r3, [r7, #4]
  70 0012 9A00     		lsl	r2, r3, #2
  71 0014 2C4B     		ldr	r3, .L17
  72 0016 D318     		add	r3, r2, r3
  73 0018 1B68     		ldr	r3, [r3]
  74 001a 9F46     		mov	pc, r3
  75              		.section	.rodata
  76              		.align	2
  77              	.L4:
  78 0000 BE000000 		.word	.L16
  79 0004 1C000000 		.word	.L3
  80 0008 24000000 		.word	.L5
ARM GAS  C:\Users\tiantiaf\AppData\Local\Temp\ccTlawkT.s 			page 4


  81 000c BE000000 		.word	.L16
  82 0010 BE000000 		.word	.L16
  83 0014 B4000000 		.word	.L6
  84 0018 BE000000 		.word	.L16
  85 001c BE000000 		.word	.L16
  86 0020 BE000000 		.word	.L16
  87 0024 BE000000 		.word	.L16
  88 0028 BE000000 		.word	.L16
  89 002c BE000000 		.word	.L16
  90 0030 BE000000 		.word	.L16
  91 0034 BE000000 		.word	.L16
  92 0038 BE000000 		.word	.L16
  93 003c BE000000 		.word	.L16
  94 0040 BE000000 		.word	.L16
  95 0044 BE000000 		.word	.L16
  96 0048 BE000000 		.word	.L16
  97 004c BE000000 		.word	.L16
  98 0050 BE000000 		.word	.L16
  99 0054 BE000000 		.word	.L16
 100 0058 BE000000 		.word	.L16
 101 005c BE000000 		.word	.L16
 102 0060 BE000000 		.word	.L16
 103 0064 BE000000 		.word	.L16
 104 0068 BE000000 		.word	.L16
 105 006c BE000000 		.word	.L16
 106 0070 BE000000 		.word	.L16
 107 0074 BE000000 		.word	.L16
 108 0078 BE000000 		.word	.L16
 109 007c BE000000 		.word	.L16
 110 0080 BE000000 		.word	.L16
 111 0084 BE000000 		.word	.L16
 112 0088 BE000000 		.word	.L16
 113 008c BE000000 		.word	.L16
 114 0090 BE000000 		.word	.L16
 115 0094 BE000000 		.word	.L16
 116 0098 2C000000 		.word	.L7
 117 009c BE000000 		.word	.L16
 118 00a0 3E000000 		.word	.L9
 119 00a4 BE000000 		.word	.L16
 120 00a8 BE000000 		.word	.L16
 121 00ac BE000000 		.word	.L16
 122 00b0 BE000000 		.word	.L16
 123 00b4 BE000000 		.word	.L16
 124 00b8 BE000000 		.word	.L16
 125 00bc BE000000 		.word	.L16
 126 00c0 BE000000 		.word	.L16
 127 00c4 BE000000 		.word	.L16
 128 00c8 BE000000 		.word	.L16
 129 00cc BE000000 		.word	.L16
 130 00d0 BE000000 		.word	.L16
 131 00d4 BE000000 		.word	.L16
 132 00d8 BE000000 		.word	.L16
 133 00dc BE000000 		.word	.L16
 134 00e0 BE000000 		.word	.L16
 135 00e4 BE000000 		.word	.L16
 136 00e8 BE000000 		.word	.L16
 137 00ec BE000000 		.word	.L16
ARM GAS  C:\Users\tiantiaf\AppData\Local\Temp\ccTlawkT.s 			page 5


 138 00f0 BE000000 		.word	.L16
 139 00f4 BE000000 		.word	.L16
 140 00f8 BE000000 		.word	.L16
 141 00fc BE000000 		.word	.L16
 142 0100 BE000000 		.word	.L16
 143 0104 46000000 		.word	.L10
 144 0108 62000000 		.word	.L11
 145 010c BE000000 		.word	.L16
 146 0110 BE000000 		.word	.L16
 147 0114 BE000000 		.word	.L16
 148 0118 BE000000 		.word	.L16
 149 011c BE000000 		.word	.L16
 150 0120 BE000000 		.word	.L16
 151 0124 BE000000 		.word	.L16
 152 0128 BE000000 		.word	.L16
 153 012c BE000000 		.word	.L16
 154 0130 7A000000 		.word	.L12
 155              		.section	.text.CustomEventHandler
 156              	.L3:
  92:.\BLEApplications.c **** 	{
  93:.\BLEApplications.c ****         /**********************************************************
  94:.\BLEApplications.c ****         *                       General Events
  95:.\BLEApplications.c ****         ***********************************************************/
  96:.\BLEApplications.c **** 		case CYBLE_EVT_STACK_ON:
  97:.\BLEApplications.c **** 			/* This event is received when component is Started */
  98:.\BLEApplications.c **** 			
  99:.\BLEApplications.c **** 			/* Set restartAdvertisement flag to allow calling Advertisement 
 100:.\BLEApplications.c **** 			* API from main function */
 101:.\BLEApplications.c **** 			restartAdvertisement = TRUE;
 157              		.loc 1 101 0
 158 001c 2B4B     		ldr	r3, .L17+4
 159 001e 0122     		mov	r2, #1
 160 0020 1A70     		strb	r2, [r3]
 102:.\BLEApplications.c **** 			
 103:.\BLEApplications.c **** 			break;
 161              		.loc 1 103 0
 162 0022 4DE0     		b	.L1
 163              	.L5:
 104:.\BLEApplications.c **** 		
 105:.\BLEApplications.c **** 		case CYBLE_EVT_TIMEOUT:
 106:.\BLEApplications.c **** 			/* Event Handling for Timeout  */
 107:.\BLEApplications.c **** 		    restartAdvertisement = TRUE;
 164              		.loc 1 107 0
 165 0024 294B     		ldr	r3, .L17+4
 166 0026 0122     		mov	r2, #1
 167 0028 1A70     		strb	r2, [r3]
 108:.\BLEApplications.c **** 			break;
 168              		.loc 1 108 0
 169 002a 49E0     		b	.L1
 170              	.L7:
 109:.\BLEApplications.c **** 			
 110:.\BLEApplications.c ****         /**********************************************************
 111:.\BLEApplications.c ****         *                       GAP Events
 112:.\BLEApplications.c ****         ***********************************************************/
 113:.\BLEApplications.c **** 		
 114:.\BLEApplications.c ****         case CYBLE_EVT_GAPP_ADVERTISEMENT_START_STOP:
 115:.\BLEApplications.c **** 			
ARM GAS  C:\Users\tiantiaf\AppData\Local\Temp\ccTlawkT.s 			page 6


 116:.\BLEApplications.c **** 			if(CyBle_GetState() == CYBLE_STATE_DISCONNECTED)
 171              		.loc 1 116 0
 172 002c 284B     		ldr	r3, .L17+8
 173 002e 1B78     		ldrb	r3, [r3]
 174 0030 042B     		cmp	r3, #4
 175 0032 03D1     		bne	.L14
 117:.\BLEApplications.c **** 			{
 118:.\BLEApplications.c **** 				/* Set restartAdvertisement flag to allow calling Advertisement 
 119:.\BLEApplications.c **** 				* API from main function */
 120:.\BLEApplications.c **** 				restartAdvertisement = TRUE;
 176              		.loc 1 120 0
 177 0034 254B     		ldr	r3, .L17+4
 178 0036 0122     		mov	r2, #1
 179 0038 1A70     		strb	r2, [r3]
 121:.\BLEApplications.c **** 			}
 122:.\BLEApplications.c **** 			break;
 180              		.loc 1 122 0
 181 003a 41E0     		b	.L1
 182              	.L14:
 183 003c 40E0     		b	.L1
 184              	.L9:
 123:.\BLEApplications.c **** 			
 124:.\BLEApplications.c **** 		case CYBLE_EVT_GAP_DEVICE_CONNECTED:		
 125:.\BLEApplications.c **** 			/* This event is received when device is connected over GAP layer */
 126:.\BLEApplications.c **** 
 127:.\BLEApplications.c **** 			break;
 128:.\BLEApplications.c **** 			
 129:.\BLEApplications.c ****         case CYBLE_EVT_GAP_DEVICE_DISCONNECTED:		
 130:.\BLEApplications.c **** 			/* This event is received when device is disconnected */
 131:.\BLEApplications.c **** 			
 132:.\BLEApplications.c **** 			/* Set restartAdvertisement flag to allow calling Advertisement 
 133:.\BLEApplications.c **** 			* API from main function */
 134:.\BLEApplications.c **** 			restartAdvertisement = TRUE;
 185              		.loc 1 134 0
 186 003e 234B     		ldr	r3, .L17+4
 187 0040 0122     		mov	r2, #1
 188 0042 1A70     		strb	r2, [r3]
 135:.\BLEApplications.c **** 
 136:.\BLEApplications.c ****             break;
 189              		.loc 1 136 0
 190 0044 3CE0     		b	.L1
 191              	.L10:
 137:.\BLEApplications.c **** 
 138:.\BLEApplications.c ****         /**********************************************************
 139:.\BLEApplications.c ****         *                       GATT Events
 140:.\BLEApplications.c ****         ***********************************************************/
 141:.\BLEApplications.c ****         case CYBLE_EVT_GATT_CONNECT_IND:
 142:.\BLEApplications.c **** 			/* This event is received when device is connected over GATT level */
 143:.\BLEApplications.c **** 			
 144:.\BLEApplications.c **** 			/* Update attribute handle on GATT Connection*/
 145:.\BLEApplications.c ****             connectionHandle = *(CYBLE_CONN_HANDLE_T *)eventParam;	
 192              		.loc 1 145 0
 193 0046 234A     		ldr	r2, .L17+12
 194 0048 3B68     		ldr	r3, [r7]
 195 004a 111C     		mov	r1, r2
 196 004c 1A1C     		mov	r2, r3
 197 004e 0223     		mov	r3, #2
ARM GAS  C:\Users\tiantiaf\AppData\Local\Temp\ccTlawkT.s 			page 7


 198 0050 081C     		mov	r0, r1
 199 0052 111C     		mov	r1, r2
 200 0054 1A1C     		mov	r2, r3
 201 0056 FFF7FEFF 		bl	memcpy
 146:.\BLEApplications.c **** 			
 147:.\BLEApplications.c **** 			/* This flag is used in application to check connection status */
 148:.\BLEApplications.c **** 			deviceConnected = TRUE;	
 202              		.loc 1 148 0
 203 005a 1F4B     		ldr	r3, .L17+16
 204 005c 0122     		mov	r2, #1
 205 005e 1A70     		strb	r2, [r3]
 149:.\BLEApplications.c **** 	
 150:.\BLEApplications.c ****             break;
 206              		.loc 1 150 0
 207 0060 2EE0     		b	.L1
 208              	.L11:
 151:.\BLEApplications.c **** 			
 152:.\BLEApplications.c ****         case CYBLE_EVT_GATT_DISCONNECT_IND:	
 153:.\BLEApplications.c **** 			/*This event is received when device is disconnected. 
 154:.\BLEApplications.c **** 			* Update connection flag accordingly */
 155:.\BLEApplications.c **** 			deviceConnected = FALSE;
 209              		.loc 1 155 0
 210 0062 1D4B     		ldr	r3, .L17+16
 211 0064 0022     		mov	r2, #0
 212 0066 1A70     		strb	r2, [r3]
 156:.\BLEApplications.c **** 			
 157:.\BLEApplications.c **** 			/* Reset notification flag to prevent further notifications
 158:.\BLEApplications.c **** 			 * being sent to Central device after next connection. */
 159:.\BLEApplications.c **** 			startNotification = FALSE;
 213              		.loc 1 159 0
 214 0068 1C4B     		ldr	r3, .L17+20
 215 006a 0022     		mov	r2, #0
 216 006c 1A70     		strb	r2, [r3]
 160:.\BLEApplications.c **** 			
 161:.\BLEApplications.c **** 			/* Reset the CCCD value to disable notifications */
 162:.\BLEApplications.c **** 			updateNotificationCCCAttribute = TRUE;
 217              		.loc 1 162 0
 218 006e 1C4B     		ldr	r3, .L17+24
 219 0070 0122     		mov	r2, #1
 220 0072 1A70     		strb	r2, [r3]
 163:.\BLEApplications.c **** 			UpdateNotificationCCCD();
 221              		.loc 1 163 0
 222 0074 FFF7FEFF 		bl	UpdateNotificationCCCD
 164:.\BLEApplications.c **** 			
 165:.\BLEApplications.c **** 			break;    
 223              		.loc 1 165 0
 224 0078 22E0     		b	.L1
 225              	.L12:
 166:.\BLEApplications.c ****             
 167:.\BLEApplications.c ****         case CYBLE_EVT_GATTS_WRITE_REQ:				
 168:.\BLEApplications.c **** 			/*When this event is triggered, the peripheral has received 
 169:.\BLEApplications.c **** 			* a write command on the custom characteristic */
 170:.\BLEApplications.c **** 			
 171:.\BLEApplications.c **** 			/* Extract the write value from the event parameter */
 172:.\BLEApplications.c ****             wrReqParam = (CYBLE_GATTS_WRITE_REQ_PARAM_T *) eventParam;
 226              		.loc 1 172 0
 227 007a 3B68     		ldr	r3, [r7]
ARM GAS  C:\Users\tiantiaf\AppData\Local\Temp\ccTlawkT.s 			page 8


 228 007c FB60     		str	r3, [r7, #12]
 173:.\BLEApplications.c **** 			
 174:.\BLEApplications.c **** 			/* Check if the returned handle is matching to CapSense proximity Client custom configuration*/
 175:.\BLEApplications.c ****             if(CYBLE_CAPSENSE_CAPSENSE_PROXIMITY_CLIENT_CHARACTERISTIC_CONFIGURATION_DESC_HANDLE ==
 229              		.loc 1 175 0
 230 007e FB68     		ldr	r3, [r7, #12]
 231 0080 9B89     		ldrh	r3, [r3, #12]
 232 0082 0F2B     		cmp	r3, #15
 233 0084 07D1     		bne	.L15
 176:.\BLEApplications.c ****             {
 177:.\BLEApplications.c ****                 /* Set flag so that application can start  sending notifications.*/
 178:.\BLEApplications.c **** 				startNotification = wrReqParam->handleValPair.value.val[CYBLE_CAPSENSE_CAPSENSE_PROXIMITY_CLIEN
 234              		.loc 1 178 0
 235 0086 FB68     		ldr	r3, [r7, #12]
 236 0088 5B68     		ldr	r3, [r3, #4]
 237 008a 1A78     		ldrb	r2, [r3]
 238 008c 134B     		ldr	r3, .L17+20
 239 008e 1A70     		strb	r2, [r3]
 179:.\BLEApplications.c **** 				
 180:.\BLEApplications.c **** 				/* Set flag to allow CCCD to be updated for next read operation */
 181:.\BLEApplications.c **** 				updateNotificationCCCAttribute = TRUE;
 240              		.loc 1 181 0
 241 0090 134B     		ldr	r3, .L17+24
 242 0092 0122     		mov	r2, #1
 243 0094 1A70     		strb	r2, [r3]
 244              	.L15:
 182:.\BLEApplications.c **** 			}
 183:.\BLEApplications.c ****             
 184:.\BLEApplications.c **** 			/* Send the response to the write command received. */
 185:.\BLEApplications.c **** 			CyBle_GattsWriteRsp(connectionHandle);
 245              		.loc 1 185 0
 246 0096 0F4B     		ldr	r3, .L17+12
 247 0098 1A78     		ldrb	r2, [r3]
 248 009a 5B78     		ldrb	r3, [r3, #1]
 249 009c 1B02     		lsl	r3, r3, #8
 250 009e 1A43     		orr	r2, r3
 251 00a0 0023     		mov	r3, #0
 252 00a2 1204     		lsl	r2, r2, #16
 253 00a4 120C     		lsr	r2, r2, #16
 254 00a6 1B0C     		lsr	r3, r3, #16
 255 00a8 1B04     		lsl	r3, r3, #16
 256 00aa 1343     		orr	r3, r2
 257 00ac 181C     		mov	r0, r3
 258 00ae FFF7FEFF 		bl	CyBle_GattsWriteRsp
 186:.\BLEApplications.c **** 			
 187:.\BLEApplications.c ****             break;
 259              		.loc 1 187 0
 260 00b2 05E0     		b	.L1
 261              	.L6:
 188:.\BLEApplications.c **** 			
 189:.\BLEApplications.c **** 		case CYBLE_EVT_STACK_BUSY_STATUS:
 190:.\BLEApplications.c **** 			/* This event is generated when the internal stack buffer is full and no more
 191:.\BLEApplications.c **** 			* data can be accepted or the stack has buffer available and can accept data.
 192:.\BLEApplications.c **** 			* This event is used by application to prevent pushing lot of data to stack. */
 193:.\BLEApplications.c **** 			
 194:.\BLEApplications.c **** 			/* Extract the present stack status */
 195:.\BLEApplications.c ****             busyStatus = * (uint8*)eventParam;
ARM GAS  C:\Users\tiantiaf\AppData\Local\Temp\ccTlawkT.s 			page 9


 262              		.loc 1 195 0
 263 00b4 3B68     		ldr	r3, [r7]
 264 00b6 1A78     		ldrb	r2, [r3]
 265 00b8 0A4B     		ldr	r3, .L17+28
 266 00ba 1A70     		strb	r2, [r3]
 196:.\BLEApplications.c ****             break;
 267              		.loc 1 196 0
 268 00bc 00E0     		b	.L1
 269              	.L16:
 197:.\BLEApplications.c **** 			
 198:.\BLEApplications.c ****         default:
 199:.\BLEApplications.c ****                         
 200:.\BLEApplications.c ****             break;
 270              		.loc 1 200 0
 271 00be C046     		mov	r8, r8
 272              	.L1:
 201:.\BLEApplications.c **** 	} /* switch(event)*/
 202:.\BLEApplications.c **** }
 273              		.loc 1 202 0
 274 00c0 BD46     		mov	sp, r7
 275 00c2 04B0     		add	sp, sp, #16
 276              		@ sp needed
 277 00c4 80BD     		pop	{r7, pc}
 278              	.L18:
 279 00c6 C046     		.align	2
 280              	.L17:
 281 00c8 00000000 		.word	.L4
 282 00cc 00000000 		.word	restartAdvertisement
 283 00d0 00000000 		.word	cyBle_state
 284 00d4 00000000 		.word	connectionHandle
 285 00d8 00000000 		.word	deviceConnected
 286 00dc 00000000 		.word	startNotification
 287 00e0 00000000 		.word	updateNotificationCCCAttribute
 288 00e4 00000000 		.word	busyStatus
 289              		.cfi_endproc
 290              	.LFE37:
 291              		.size	CustomEventHandler, .-CustomEventHandler
 292              		.section	.text.SendDataOverCapSenseNotification,"ax",%progbits
 293              		.align	2
 294              		.global	SendDataOverCapSenseNotification
 295              		.code	16
 296              		.thumb_func
 297              		.type	SendDataOverCapSenseNotification, %function
 298              	SendDataOverCapSenseNotification:
 299              	.LFB38:
 203:.\BLEApplications.c **** 
 204:.\BLEApplications.c **** /*******************************************************************************
 205:.\BLEApplications.c **** * Function Name: SendDataOverCapSenseNotification
 206:.\BLEApplications.c **** ********************************************************************************
 207:.\BLEApplications.c **** * Summary:
 208:.\BLEApplications.c **** *        Update the data handle for notification and report it to BLE so that
 209:.\BLEApplications.c **** *	data can be sent over notifications
 210:.\BLEApplications.c **** *
 211:.\BLEApplications.c **** * Parameters:
 212:.\BLEApplications.c **** *  proximityValue: Proximity range data; value between 1-100
 213:.\BLEApplications.c **** *
 214:.\BLEApplications.c **** * Return:
ARM GAS  C:\Users\tiantiaf\AppData\Local\Temp\ccTlawkT.s 			page 10


 215:.\BLEApplications.c **** *  void
 216:.\BLEApplications.c **** *
 217:.\BLEApplications.c **** *******************************************************************************/
 218:.\BLEApplications.c **** void SendDataOverCapSenseNotification(uint8 proximityValue)
 219:.\BLEApplications.c **** {
 300              		.loc 1 219 0
 301              		.cfi_startproc
 302 0000 80B5     		push	{r7, lr}
 303              		.cfi_def_cfa_offset 8
 304              		.cfi_offset 7, -8
 305              		.cfi_offset 14, -4
 306 0002 86B0     		sub	sp, sp, #24
 307              		.cfi_def_cfa_offset 32
 308 0004 00AF     		add	r7, sp, #0
 309              		.cfi_def_cfa_register 7
 310 0006 021C     		mov	r2, r0
 311 0008 FB1D     		add	r3, r7, #7
 312 000a 1A70     		strb	r2, [r3]
 220:.\BLEApplications.c **** 	/* 'notificationHandle' is handle to store notification data parameters */
 221:.\BLEApplications.c **** 	CYBLE_GATTS_HANDLE_VALUE_NTF_T		notificationHandle; 
 222:.\BLEApplications.c **** 	
 223:.\BLEApplications.c **** 	/* If stack is not busy, then send the notification */
 224:.\BLEApplications.c **** 	if(busyStatus == CYBLE_STACK_STATE_FREE)
 313              		.loc 1 224 0
 314 000c 114B     		ldr	r3, .L21
 315 000e 1B78     		ldrb	r3, [r3]
 316 0010 002B     		cmp	r3, #0
 317 0012 1BD1     		bne	.L19
 225:.\BLEApplications.c **** 	{
 226:.\BLEApplications.c **** 		/* Update Notification handle with proximity data*/
 227:.\BLEApplications.c **** 		notificationHandle.attrHandle = CYBLE_CAPSENSE_CAPSENSE_PROXIMITY_CHAR_HANDLE;				
 318              		.loc 1 227 0
 319 0014 0C23     		mov	r3, #12
 320 0016 FB18     		add	r3, r7, r3
 321 0018 0E22     		mov	r2, #14
 322 001a 1A81     		strh	r2, [r3, #8]
 228:.\BLEApplications.c **** 		notificationHandle.value.val = &proximityValue;
 323              		.loc 1 228 0
 324 001c 0C23     		mov	r3, #12
 325 001e FB18     		add	r3, r7, r3
 326 0020 FA1D     		add	r2, r7, #7
 327 0022 1A60     		str	r2, [r3]
 229:.\BLEApplications.c **** 		notificationHandle.value.len = CAPSENSE_NOTIFICATION_DATA_LEN;
 328              		.loc 1 229 0
 329 0024 0C23     		mov	r3, #12
 330 0026 FB18     		add	r3, r7, r3
 331 0028 0122     		mov	r2, #1
 332 002a 9A80     		strh	r2, [r3, #4]
 230:.\BLEApplications.c **** 		
 231:.\BLEApplications.c **** 		/* Report data to BLE component for sending data by notifications*/
 232:.\BLEApplications.c **** 		CyBle_GattsNotification(connectionHandle,&notificationHandle);
 333              		.loc 1 232 0
 334 002c 0A4B     		ldr	r3, .L21+4
 335 002e 0C22     		mov	r2, #12
 336 0030 B918     		add	r1, r7, r2
 337 0032 1A78     		ldrb	r2, [r3]
 338 0034 5B78     		ldrb	r3, [r3, #1]
ARM GAS  C:\Users\tiantiaf\AppData\Local\Temp\ccTlawkT.s 			page 11


 339 0036 1B02     		lsl	r3, r3, #8
 340 0038 1A43     		orr	r2, r3
 341 003a 0023     		mov	r3, #0
 342 003c 1204     		lsl	r2, r2, #16
 343 003e 120C     		lsr	r2, r2, #16
 344 0040 1B0C     		lsr	r3, r3, #16
 345 0042 1B04     		lsl	r3, r3, #16
 346 0044 1343     		orr	r3, r2
 347 0046 181C     		mov	r0, r3
 348 0048 FFF7FEFF 		bl	CyBle_GattsNotification
 349              	.L19:
 233:.\BLEApplications.c **** 	}
 234:.\BLEApplications.c **** }
 350              		.loc 1 234 0
 351 004c BD46     		mov	sp, r7
 352 004e 06B0     		add	sp, sp, #24
 353              		@ sp needed
 354 0050 80BD     		pop	{r7, pc}
 355              	.L22:
 356 0052 C046     		.align	2
 357              	.L21:
 358 0054 00000000 		.word	busyStatus
 359 0058 00000000 		.word	connectionHandle
 360              		.cfi_endproc
 361              	.LFE38:
 362              		.size	SendDataOverCapSenseNotification, .-SendDataOverCapSenseNotification
 363              		.section	.text.UpdateNotificationCCCD,"ax",%progbits
 364              		.align	2
 365              		.global	UpdateNotificationCCCD
 366              		.code	16
 367              		.thumb_func
 368              		.type	UpdateNotificationCCCD, %function
 369              	UpdateNotificationCCCD:
 370              	.LFB39:
 235:.\BLEApplications.c **** 
 236:.\BLEApplications.c **** /*******************************************************************************
 237:.\BLEApplications.c **** * Function Name: UpdateNotificationCCCD
 238:.\BLEApplications.c **** ********************************************************************************
 239:.\BLEApplications.c **** * Summary:
 240:.\BLEApplications.c **** *        Update the data handle for notification status and report it to BLE 
 241:.\BLEApplications.c **** *	component so that it can be read by Central device.
 242:.\BLEApplications.c **** *
 243:.\BLEApplications.c **** * Parameters:
 244:.\BLEApplications.c **** *  void
 245:.\BLEApplications.c **** *
 246:.\BLEApplications.c **** * Return:
 247:.\BLEApplications.c **** *  void
 248:.\BLEApplications.c **** *
 249:.\BLEApplications.c **** *******************************************************************************/
 250:.\BLEApplications.c **** void UpdateNotificationCCCD(void)
 251:.\BLEApplications.c **** {
 371              		.loc 1 251 0
 372              		.cfi_startproc
 373 0000 80B5     		push	{r7, lr}
 374              		.cfi_def_cfa_offset 8
 375              		.cfi_offset 7, -8
 376              		.cfi_offset 14, -4
ARM GAS  C:\Users\tiantiaf\AppData\Local\Temp\ccTlawkT.s 			page 12


 377 0002 84B0     		sub	sp, sp, #16
 378              		.cfi_def_cfa_offset 24
 379 0004 00AF     		add	r7, sp, #0
 380              		.cfi_def_cfa_register 7
 252:.\BLEApplications.c **** 	/* Local variable to store the current CCCD value */
 253:.\BLEApplications.c **** 	uint8 CCCDvalue[2];
 254:.\BLEApplications.c **** 	
 255:.\BLEApplications.c **** 	/* Handle value to update the CCCD */
 256:.\BLEApplications.c **** 	CYBLE_GATT_HANDLE_VALUE_PAIR_T notificationCCCDhandle;
 257:.\BLEApplications.c **** 
 258:.\BLEApplications.c **** 	/* Update notification attribute only when there has been change */
 259:.\BLEApplications.c **** 	if(updateNotificationCCCAttribute)
 381              		.loc 1 259 0
 382 0006 124B     		ldr	r3, .L25
 383 0008 1B78     		ldrb	r3, [r3]
 384 000a 002B     		cmp	r3, #0
 385 000c 1DD0     		beq	.L23
 260:.\BLEApplications.c **** 	{
 261:.\BLEApplications.c **** 		updateNotificationCCCAttribute = FALSE;
 386              		.loc 1 261 0
 387 000e 104B     		ldr	r3, .L25
 388 0010 0022     		mov	r2, #0
 389 0012 1A70     		strb	r2, [r3]
 262:.\BLEApplications.c **** 	
 263:.\BLEApplications.c **** 		/* Write the present notification status to the local variable */
 264:.\BLEApplications.c **** 		CCCDvalue[0] = startNotification;
 390              		.loc 1 264 0
 391 0014 0F4B     		ldr	r3, .L25+4
 392 0016 1A78     		ldrb	r2, [r3]
 393 0018 0C23     		mov	r3, #12
 394 001a FB18     		add	r3, r7, r3
 395 001c 1A70     		strb	r2, [r3]
 265:.\BLEApplications.c **** 		CCCDvalue[1] = 0x00;
 396              		.loc 1 265 0
 397 001e 0C23     		mov	r3, #12
 398 0020 FB18     		add	r3, r7, r3
 399 0022 0022     		mov	r2, #0
 400 0024 5A70     		strb	r2, [r3, #1]
 266:.\BLEApplications.c **** 		
 267:.\BLEApplications.c **** 		/* Update CCCD handle with notification status data*/
 268:.\BLEApplications.c **** 		notificationCCCDhandle.attrHandle = CYBLE_CAPSENSE_CAPSENSE_PROXIMITY_CLIENT_CHARACTERISTIC_CONFI
 401              		.loc 1 268 0
 402 0026 3B1C     		mov	r3, r7
 403 0028 0F22     		mov	r2, #15
 404 002a 1A81     		strh	r2, [r3, #8]
 269:.\BLEApplications.c **** 		notificationCCCDhandle.value.val = CCCDvalue;
 405              		.loc 1 269 0
 406 002c 3B1C     		mov	r3, r7
 407 002e 0C22     		mov	r2, #12
 408 0030 BA18     		add	r2, r7, r2
 409 0032 1A60     		str	r2, [r3]
 270:.\BLEApplications.c **** 		notificationCCCDhandle.value.len = CCC_DATA_LEN;
 410              		.loc 1 270 0
 411 0034 3B1C     		mov	r3, r7
 412 0036 0222     		mov	r2, #2
 413 0038 9A80     		strh	r2, [r3, #4]
 271:.\BLEApplications.c **** 		
ARM GAS  C:\Users\tiantiaf\AppData\Local\Temp\ccTlawkT.s 			page 13


 272:.\BLEApplications.c **** 		/* Report data to BLE component for sending data when read by Central device */
 273:.\BLEApplications.c **** 		CyBle_GattsWriteAttributeValue(&notificationCCCDhandle, ZERO, &connectionHandle, CYBLE_GATT_DB_LO
 414              		.loc 1 273 0
 415 003a 3A1C     		mov	r2, r7
 416 003c 064B     		ldr	r3, .L25+8
 417 003e 101C     		mov	r0, r2
 418 0040 0021     		mov	r1, #0
 419 0042 1A1C     		mov	r2, r3
 420 0044 0023     		mov	r3, #0
 421 0046 FFF7FEFF 		bl	CyBle_GattsWriteAttributeValue
 422              	.L23:
 274:.\BLEApplications.c **** 	}	
 275:.\BLEApplications.c **** }
 423              		.loc 1 275 0
 424 004a BD46     		mov	sp, r7
 425 004c 04B0     		add	sp, sp, #16
 426              		@ sp needed
 427 004e 80BD     		pop	{r7, pc}
 428              	.L26:
 429              		.align	2
 430              	.L25:
 431 0050 00000000 		.word	updateNotificationCCCAttribute
 432 0054 00000000 		.word	startNotification
 433 0058 00000000 		.word	connectionHandle
 434              		.cfi_endproc
 435              	.LFE39:
 436              		.size	UpdateNotificationCCCD, .-UpdateNotificationCCCD
 437              		.section	.text.HandleStatusLED,"ax",%progbits
 438              		.align	2
 439              		.global	HandleStatusLED
 440              		.code	16
 441              		.thumb_func
 442              		.type	HandleStatusLED, %function
 443              	HandleStatusLED:
 444              	.LFB40:
 276:.\BLEApplications.c **** 
 277:.\BLEApplications.c **** /*******************************************************************************
 278:.\BLEApplications.c **** * Function Name: HandleStatusLED
 279:.\BLEApplications.c **** ********************************************************************************
 280:.\BLEApplications.c **** * Summary:
 281:.\BLEApplications.c **** *        Handle LED status, such as blinking, ON or OFF depending on BLE state.
 282:.\BLEApplications.c **** *
 283:.\BLEApplications.c **** * Parameters:
 284:.\BLEApplications.c **** *  void
 285:.\BLEApplications.c **** *
 286:.\BLEApplications.c **** * Return:
 287:.\BLEApplications.c **** *  void
 288:.\BLEApplications.c **** *
 289:.\BLEApplications.c **** *******************************************************************************/
 290:.\BLEApplications.c **** void HandleStatusLED(void)
 291:.\BLEApplications.c **** {
 445              		.loc 1 291 0
 446              		.cfi_startproc
 447 0000 80B5     		push	{r7, lr}
 448              		.cfi_def_cfa_offset 8
 449              		.cfi_offset 7, -8
 450              		.cfi_offset 14, -4
ARM GAS  C:\Users\tiantiaf\AppData\Local\Temp\ccTlawkT.s 			page 14


 451 0002 82B0     		sub	sp, sp, #8
 452              		.cfi_def_cfa_offset 16
 453 0004 00AF     		add	r7, sp, #0
 454              		.cfi_def_cfa_register 7
 292:.\BLEApplications.c **** 	/* Local static counter to handle the periodic toggling of LED or keeping LED ON
 293:.\BLEApplications.c **** 	* for some time. */
 294:.\BLEApplications.c **** 	static uint32 led_counter = TRUE;
 295:.\BLEApplications.c **** 	
 296:.\BLEApplications.c **** 	/* Local static variable that stores the last BLE state in which firmware was */
 297:.\BLEApplications.c **** 	static uint8 state = 0xFF;
 298:.\BLEApplications.c **** 	
 299:.\BLEApplications.c **** 	/* Flag to indicate that the state of BLE has changed from the last known value */
 300:.\BLEApplications.c **** 	uint8 state_changed = FALSE;
 455              		.loc 1 300 0
 456 0006 FB1D     		add	r3, r7, #7
 457 0008 0022     		mov	r2, #0
 458 000a 1A70     		strb	r2, [r3]
 301:.\BLEApplications.c **** 	
 302:.\BLEApplications.c **** 	if(state != CyBle_GetState())
 459              		.loc 1 302 0
 460 000c 2A4B     		ldr	r3, .L37
 461 000e 1A78     		ldrb	r2, [r3]
 462 0010 2A4B     		ldr	r3, .L37+4
 463 0012 1B78     		ldrb	r3, [r3]
 464 0014 9A42     		cmp	r2, r3
 465 0016 09D0     		beq	.L28
 303:.\BLEApplications.c **** 	{
 304:.\BLEApplications.c **** 		/* If the present BLE state is different from the new BLE state, set the 
 305:.\BLEApplications.c **** 		* state_changed flag and reset the local counter */
 306:.\BLEApplications.c **** 		state_changed = TRUE;
 466              		.loc 1 306 0
 467 0018 FB1D     		add	r3, r7, #7
 468 001a 0122     		mov	r2, #1
 469 001c 1A70     		strb	r2, [r3]
 307:.\BLEApplications.c **** 				
 308:.\BLEApplications.c **** 		if(CyBle_GetState() == CYBLE_STATE_ADVERTISING)
 470              		.loc 1 308 0
 471 001e 274B     		ldr	r3, .L37+4
 472 0020 1B78     		ldrb	r3, [r3]
 473 0022 032B     		cmp	r3, #3
 474 0024 02D1     		bne	.L28
 309:.\BLEApplications.c **** 		{
 310:.\BLEApplications.c **** 			led_counter = TRUE;
 475              		.loc 1 310 0
 476 0026 264B     		ldr	r3, .L37+8
 477 0028 0122     		mov	r2, #1
 478 002a 1A60     		str	r2, [r3]
 479              	.L28:
 311:.\BLEApplications.c **** 		}
 312:.\BLEApplications.c **** 	}
 313:.\BLEApplications.c **** 	
 314:.\BLEApplications.c **** 	/* Store the new BLE state into the present state variable */
 315:.\BLEApplications.c **** 	state = CyBle_GetState();
 480              		.loc 1 315 0
 481 002c 234B     		ldr	r3, .L37+4
 482 002e 1A78     		ldrb	r2, [r3]
 483 0030 214B     		ldr	r3, .L37
ARM GAS  C:\Users\tiantiaf\AppData\Local\Temp\ccTlawkT.s 			page 15


 484 0032 1A70     		strb	r2, [r3]
 316:.\BLEApplications.c **** 		
 317:.\BLEApplications.c **** 	switch(state)
 485              		.loc 1 317 0
 486 0034 204B     		ldr	r3, .L37
 487 0036 1B78     		ldrb	r3, [r3]
 488 0038 032B     		cmp	r3, #3
 489 003a 10D0     		beq	.L30
 490 003c 042B     		cmp	r3, #4
 491 003e 2ED0     		beq	.L31
 492 0040 022B     		cmp	r3, #2
 493 0042 00D0     		beq	.L32
 318:.\BLEApplications.c **** 	{
 319:.\BLEApplications.c **** 		case CYBLE_STATE_CONNECTED:
 320:.\BLEApplications.c **** 			/* If the present BLE state is connected, keep the LED ON for
 321:.\BLEApplications.c **** 			* pre-determined time and then switch it OFF in WDT ISR */
 322:.\BLEApplications.c **** 			if(state_changed)
 323:.\BLEApplications.c **** 			{
 324:.\BLEApplications.c **** 				/* Reset the flag for state change */
 325:.\BLEApplications.c **** 				state_changed = FALSE;
 326:.\BLEApplications.c **** 				
 327:.\BLEApplications.c **** 				/* Set the drive mode of LED to Strong to allow driving the LED */
 328:.\BLEApplications.c **** 				Status_LED_SetDriveMode(Status_LED_DM_ALG_HIZ);
 329:.\BLEApplications.c **** 			}
 330:.\BLEApplications.c **** 		break;
 331:.\BLEApplications.c **** 		
 332:.\BLEApplications.c **** 		case CYBLE_STATE_ADVERTISING:
 333:.\BLEApplications.c **** 			/* If the present BLE state is advertising, toggle the LED
 334:.\BLEApplications.c **** 			* at pre-determined period to indicate advertising. */
 335:.\BLEApplications.c **** 			if((--led_counter) == FALSE)
 336:.\BLEApplications.c **** 			{
 337:.\BLEApplications.c **** 				Status_LED_SetDriveMode(Status_LED_DM_STRONG);
 338:.\BLEApplications.c **** 				
 339:.\BLEApplications.c **** 				if(Status_LED_Read() == LED_OFF)
 340:.\BLEApplications.c **** 				{
 341:.\BLEApplications.c **** 					Status_LED_Write(LED_ON);
 342:.\BLEApplications.c **** 					led_counter	= LED_ADV_BLINK_PERIOD_ON;
 343:.\BLEApplications.c **** 				}
 344:.\BLEApplications.c **** 				else
 345:.\BLEApplications.c **** 				{
 346:.\BLEApplications.c **** 					Status_LED_Write(LED_OFF);
 347:.\BLEApplications.c **** 					led_counter	= LED_ADV_BLINK_PERIOD_OFF;
 348:.\BLEApplications.c **** 				}
 349:.\BLEApplications.c **** 			}
 350:.\BLEApplications.c **** 		break;
 351:.\BLEApplications.c **** 		
 352:.\BLEApplications.c **** 		case CYBLE_STATE_DISCONNECTED:
 353:.\BLEApplications.c **** 			/* If the present BLE state is disconnected, switch off LED
 354:.\BLEApplications.c **** 			* and set the drive mode of LED to Hi-Z (Analog)*/
 355:.\BLEApplications.c **** 			Status_LED_Write(LED_OFF);
 356:.\BLEApplications.c **** 			Status_LED_SetDriveMode(Status_LED_DM_ALG_HIZ);
 357:.\BLEApplications.c **** 		break;
 358:.\BLEApplications.c **** 		
 359:.\BLEApplications.c **** 		default:
 360:.\BLEApplications.c **** 
 361:.\BLEApplications.c **** 		break;
 494              		.loc 1 361 0
ARM GAS  C:\Users\tiantiaf\AppData\Local\Temp\ccTlawkT.s 			page 16


 495 0044 32E0     		b	.L34
 496              	.L32:
 322:.\BLEApplications.c **** 			{
 497              		.loc 1 322 0
 498 0046 FB1D     		add	r3, r7, #7
 499 0048 1B78     		ldrb	r3, [r3]
 500 004a 002B     		cmp	r3, #0
 501 004c 06D0     		beq	.L33
 325:.\BLEApplications.c **** 				
 502              		.loc 1 325 0
 503 004e FB1D     		add	r3, r7, #7
 504 0050 0022     		mov	r2, #0
 505 0052 1A70     		strb	r2, [r3]
 328:.\BLEApplications.c **** 			}
 506              		.loc 1 328 0
 507 0054 0020     		mov	r0, #0
 508 0056 FFF7FEFF 		bl	Status_LED_SetDriveMode
 330:.\BLEApplications.c **** 		
 509              		.loc 1 330 0
 510 005a 27E0     		b	.L34
 511              	.L33:
 512 005c 26E0     		b	.L34
 513              	.L30:
 335:.\BLEApplications.c **** 			{
 514              		.loc 1 335 0
 515 005e 184B     		ldr	r3, .L37+8
 516 0060 1B68     		ldr	r3, [r3]
 517 0062 5A1E     		sub	r2, r3, #1
 518 0064 164B     		ldr	r3, .L37+8
 519 0066 1A60     		str	r2, [r3]
 520 0068 154B     		ldr	r3, .L37+8
 521 006a 1B68     		ldr	r3, [r3]
 522 006c 002B     		cmp	r3, #0
 523 006e 15D1     		bne	.L35
 337:.\BLEApplications.c **** 				
 524              		.loc 1 337 0
 525 0070 0620     		mov	r0, #6
 526 0072 FFF7FEFF 		bl	Status_LED_SetDriveMode
 339:.\BLEApplications.c **** 				{
 527              		.loc 1 339 0
 528 0076 FFF7FEFF 		bl	Status_LED_Read
 529 007a 031E     		sub	r3, r0, #0
 530 007c 012B     		cmp	r3, #1
 531 007e 06D1     		bne	.L36
 341:.\BLEApplications.c **** 					led_counter	= LED_ADV_BLINK_PERIOD_ON;
 532              		.loc 1 341 0
 533 0080 0020     		mov	r0, #0
 534 0082 FFF7FEFF 		bl	Status_LED_Write
 342:.\BLEApplications.c **** 				}
 535              		.loc 1 342 0
 536 0086 0E4B     		ldr	r3, .L37+8
 537 0088 0522     		mov	r2, #5
 538 008a 1A60     		str	r2, [r3]
 539 008c 06E0     		b	.L35
 540              	.L36:
 346:.\BLEApplications.c **** 					led_counter	= LED_ADV_BLINK_PERIOD_OFF;
 541              		.loc 1 346 0
ARM GAS  C:\Users\tiantiaf\AppData\Local\Temp\ccTlawkT.s 			page 17


 542 008e 0120     		mov	r0, #1
 543 0090 FFF7FEFF 		bl	Status_LED_Write
 347:.\BLEApplications.c **** 				}
 544              		.loc 1 347 0
 545 0094 0A4B     		ldr	r3, .L37+8
 546 0096 1422     		mov	r2, #20
 547 0098 1A60     		str	r2, [r3]
 350:.\BLEApplications.c **** 		
 548              		.loc 1 350 0
 549 009a 07E0     		b	.L34
 550              	.L35:
 551 009c 06E0     		b	.L34
 552              	.L31:
 355:.\BLEApplications.c **** 			Status_LED_SetDriveMode(Status_LED_DM_ALG_HIZ);
 553              		.loc 1 355 0
 554 009e 0120     		mov	r0, #1
 555 00a0 FFF7FEFF 		bl	Status_LED_Write
 356:.\BLEApplications.c **** 		break;
 556              		.loc 1 356 0
 557 00a4 0020     		mov	r0, #0
 558 00a6 FFF7FEFF 		bl	Status_LED_SetDriveMode
 357:.\BLEApplications.c **** 		
 559              		.loc 1 357 0
 560 00aa C046     		mov	r8, r8
 561              	.L34:
 362:.\BLEApplications.c **** 	}
 363:.\BLEApplications.c **** 	
 364:.\BLEApplications.c **** 	/* Reset the state changed flag. */
 365:.\BLEApplications.c **** 	state_changed = FALSE;
 562              		.loc 1 365 0
 563 00ac FB1D     		add	r3, r7, #7
 564 00ae 0022     		mov	r2, #0
 565 00b0 1A70     		strb	r2, [r3]
 366:.\BLEApplications.c **** }
 566              		.loc 1 366 0
 567 00b2 BD46     		mov	sp, r7
 568 00b4 02B0     		add	sp, sp, #8
 569              		@ sp needed
 570 00b6 80BD     		pop	{r7, pc}
 571              	.L38:
 572              		.align	2
 573              	.L37:
 574 00b8 00000000 		.word	state.7078
 575 00bc 00000000 		.word	cyBle_state
 576 00c0 04000000 		.word	led_counter.7077
 577              		.cfi_endproc
 578              	.LFE40:
 579              		.size	HandleStatusLED, .-HandleStatusLED
 580              		.data
 581              		.type	state.7078, %object
 582              		.size	state.7078, 1
 583              	state.7078:
 584 0000 FF       		.byte	-1
 585 0001 000000   		.align	2
 586              		.type	led_counter.7077, %object
 587              		.size	led_counter.7077, 4
 588              	led_counter.7077:
ARM GAS  C:\Users\tiantiaf\AppData\Local\Temp\ccTlawkT.s 			page 18


 589 0004 01000000 		.word	1
 590              		.text
 591              	.Letext0:
 592              		.file 2 "Generated_Source\\PSoC4/cytypes.h"
 593              		.file 3 "Generated_Source\\PSoC4/BLE_StackGatt.h"
 594              		.file 4 "Generated_Source\\PSoC4/BLE_StackGattServer.h"
 595              		.file 5 "Generated_Source\\PSoC4/BLE_Stack.h"
 596              		.file 6 "Generated_Source\\PSoC4/BLE_eventHandler.h"