ARM GAS  C:\Users\tiantiaf\AppData\Local\Temp\cc2Xz98j.s 			page 1


   1              		.cpu cortex-m0
   2              		.fpu softvfp
   3              		.eabi_attribute 20, 1
   4              		.eabi_attribute 21, 1
   5              		.eabi_attribute 23, 3
   6              		.eabi_attribute 24, 1
   7              		.eabi_attribute 25, 1
   8              		.eabi_attribute 26, 1
   9              		.eabi_attribute 30, 1
  10              		.eabi_attribute 34, 0
  11              		.eabi_attribute 18, 4
  12              		.code	16
  13              		.file	"BLE_LED_eventHandler.c"
  14              		.text
  15              	.Ltext0:
  16              		.cfi_sections	.debug_frame
  17              		.section	.text.CyBle_GattDisconnectEventHandler,"ax",%progbits
  18              		.align	2
  19              		.code	16
  20              		.thumb_func
  21              		.type	CyBle_GattDisconnectEventHandler, %function
  22              	CyBle_GattDisconnectEventHandler:
  23              	.LFB4:
  24              		.file 1 ".\\Generated_Source\\PSoC4\\BLE_LED_eventHandler.c"
   1:.\Generated_Source\PSoC4/BLE_LED_eventHandler.c **** /***************************************************************************//**
   2:.\Generated_Source\PSoC4/BLE_LED_eventHandler.c **** * \file CYBLE_eventHandler.c
   3:.\Generated_Source\PSoC4/BLE_LED_eventHandler.c **** * \version 3.10
   4:.\Generated_Source\PSoC4/BLE_LED_eventHandler.c **** * 
   5:.\Generated_Source\PSoC4/BLE_LED_eventHandler.c **** * \brief
   6:.\Generated_Source\PSoC4/BLE_LED_eventHandler.c **** *  This file contains the source code for the Event Handler State Machine
   7:.\Generated_Source\PSoC4/BLE_LED_eventHandler.c **** *  of the BLE Component.
   8:.\Generated_Source\PSoC4/BLE_LED_eventHandler.c **** * 
   9:.\Generated_Source\PSoC4/BLE_LED_eventHandler.c **** ********************************************************************************
  10:.\Generated_Source\PSoC4/BLE_LED_eventHandler.c **** * \copyright
  11:.\Generated_Source\PSoC4/BLE_LED_eventHandler.c **** * Copyright 2014-2016, Cypress Semiconductor Corporation.  All rights reserved.
  12:.\Generated_Source\PSoC4/BLE_LED_eventHandler.c **** * You may use this file only in accordance with the license, terms, conditions,
  13:.\Generated_Source\PSoC4/BLE_LED_eventHandler.c **** * disclaimers, and limitations in the end user license agreement accompanying
  14:.\Generated_Source\PSoC4/BLE_LED_eventHandler.c **** * the software package with which this file was provided.
  15:.\Generated_Source\PSoC4/BLE_LED_eventHandler.c **** *******************************************************************************/
  16:.\Generated_Source\PSoC4/BLE_LED_eventHandler.c **** 
  17:.\Generated_Source\PSoC4/BLE_LED_eventHandler.c **** #include "BLE_LED_eventHandler.h"
  18:.\Generated_Source\PSoC4/BLE_LED_eventHandler.c **** 
  19:.\Generated_Source\PSoC4/BLE_LED_eventHandler.c **** 
  20:.\Generated_Source\PSoC4/BLE_LED_eventHandler.c **** /***************************************
  21:.\Generated_Source\PSoC4/BLE_LED_eventHandler.c **** * Private Function Prototypes
  22:.\Generated_Source\PSoC4/BLE_LED_eventHandler.c **** ***************************************/
  23:.\Generated_Source\PSoC4/BLE_LED_eventHandler.c **** 
  24:.\Generated_Source\PSoC4/BLE_LED_eventHandler.c **** static void CyBle_GattDisconnectEventHandler(void);
  25:.\Generated_Source\PSoC4/BLE_LED_eventHandler.c **** static void CyBle_TimeOutEventHandler(const CYBLE_TO_REASON_CODE_T *eventParam);
  26:.\Generated_Source\PSoC4/BLE_LED_eventHandler.c **** static void CyBle_GattConnectReqHandler(void);
  27:.\Generated_Source\PSoC4/BLE_LED_eventHandler.c **** static void CyBle_L2Cap_ConnParamUpdateRspEventHandler(uint16 response);
  28:.\Generated_Source\PSoC4/BLE_LED_eventHandler.c **** static void CyBle_GapConnUpdateCompleteEventHandler(const CYBLE_GAP_CONN_PARAM_UPDATED_IN_CONTROLLE
  29:.\Generated_Source\PSoC4/BLE_LED_eventHandler.c **** 
  30:.\Generated_Source\PSoC4/BLE_LED_eventHandler.c **** 
  31:.\Generated_Source\PSoC4/BLE_LED_eventHandler.c **** #if (CYBLE_GATT_ROLE_SERVER)
  32:.\Generated_Source\PSoC4/BLE_LED_eventHandler.c **** 
  33:.\Generated_Source\PSoC4/BLE_LED_eventHandler.c **** static void CyBle_WriteReqHandler(CYBLE_GATTS_WRITE_REQ_PARAM_T *eventParam);
ARM GAS  C:\Users\tiantiaf\AppData\Local\Temp\cc2Xz98j.s 			page 2


  34:.\Generated_Source\PSoC4/BLE_LED_eventHandler.c **** static void CyBle_ValueConfirmation(const CYBLE_CONN_HANDLE_T *eventParam);
  35:.\Generated_Source\PSoC4/BLE_LED_eventHandler.c **** 
  36:.\Generated_Source\PSoC4/BLE_LED_eventHandler.c **** #endif /* CYBLE_GATT_ROLE_SERVER */
  37:.\Generated_Source\PSoC4/BLE_LED_eventHandler.c **** 
  38:.\Generated_Source\PSoC4/BLE_LED_eventHandler.c **** #if (CYBLE_GATT_ROLE_CLIENT)
  39:.\Generated_Source\PSoC4/BLE_LED_eventHandler.c **** 
  40:.\Generated_Source\PSoC4/BLE_LED_eventHandler.c **** static void CyBle_GapcDiscoverCharacteristicsEventHandler(CYBLE_DISC_CHAR_INFO_T *discCharInfo);
  41:.\Generated_Source\PSoC4/BLE_LED_eventHandler.c **** static CYBLE_GATT_ATTR_HANDLE_RANGE_T CyBle_GetCharRange(void);
  42:.\Generated_Source\PSoC4/BLE_LED_eventHandler.c **** static void CyBle_GattcWriteResponseEventHandler(const CYBLE_CONN_HANDLE_T *eventParam);
  43:.\Generated_Source\PSoC4/BLE_LED_eventHandler.c **** static void CyBle_NotificationEventHandler(CYBLE_GATTC_HANDLE_VALUE_NTF_PARAM_T *eventParam);
  44:.\Generated_Source\PSoC4/BLE_LED_eventHandler.c **** static void CyBle_IndicationEventHandler(CYBLE_GATTC_HANDLE_VALUE_IND_PARAM_T *eventParam);
  45:.\Generated_Source\PSoC4/BLE_LED_eventHandler.c **** static void CyBle_ReadResponseEventHandler(CYBLE_GATTC_READ_RSP_PARAM_T *eventParam);
  46:.\Generated_Source\PSoC4/BLE_LED_eventHandler.c **** static void CyBle_ReadMultipleResponseEventHandler(CYBLE_GATTC_READ_RSP_PARAM_T *eventParam);
  47:.\Generated_Source\PSoC4/BLE_LED_eventHandler.c **** 
  48:.\Generated_Source\PSoC4/BLE_LED_eventHandler.c **** #endif /* CYBLE_GATT_ROLE_CLIENT */
  49:.\Generated_Source\PSoC4/BLE_LED_eventHandler.c **** 
  50:.\Generated_Source\PSoC4/BLE_LED_eventHandler.c **** 
  51:.\Generated_Source\PSoC4/BLE_LED_eventHandler.c **** /***************************************
  52:.\Generated_Source\PSoC4/BLE_LED_eventHandler.c **** * Global Variables
  53:.\Generated_Source\PSoC4/BLE_LED_eventHandler.c **** ***************************************/
  54:.\Generated_Source\PSoC4/BLE_LED_eventHandler.c **** 
  55:.\Generated_Source\PSoC4/BLE_LED_eventHandler.c **** /* This global variable is initialized after connection with peer device, 
  56:.\Generated_Source\PSoC4/BLE_LED_eventHandler.c ****    after CYBLE_EVT_GATT_CONNECT_IND event, and could be used by application code
  57:.\Generated_Source\PSoC4/BLE_LED_eventHandler.c ****    to send data to peer device. 
  58:.\Generated_Source\PSoC4/BLE_LED_eventHandler.c **** */
  59:.\Generated_Source\PSoC4/BLE_LED_eventHandler.c **** CYBLE_CONN_HANDLE_T cyBle_connHandle;
  60:.\Generated_Source\PSoC4/BLE_LED_eventHandler.c **** 
  61:.\Generated_Source\PSoC4/BLE_LED_eventHandler.c **** volatile uint8 cyBle_eventHandlerFlag;
  62:.\Generated_Source\PSoC4/BLE_LED_eventHandler.c **** volatile uint8 cyBle_busyStatus;
  63:.\Generated_Source\PSoC4/BLE_LED_eventHandler.c **** 
  64:.\Generated_Source\PSoC4/BLE_LED_eventHandler.c **** #if(CYBLE_GAP_ROLE_PERIPHERAL || CYBLE_GAP_ROLE_BROADCASTER) 
  65:.\Generated_Source\PSoC4/BLE_LED_eventHandler.c ****     uint8 cyBle_advertisingIntervalType;
  66:.\Generated_Source\PSoC4/BLE_LED_eventHandler.c **** #endif /* CYBLE_GAP_ROLE_PERIPHERAL || CYBLE_GAP_ROLE_BROADCASTER) */
  67:.\Generated_Source\PSoC4/BLE_LED_eventHandler.c **** 
  68:.\Generated_Source\PSoC4/BLE_LED_eventHandler.c **** #if(CYBLE_GAP_ROLE_CENTRAL || CYBLE_GAP_ROLE_OBSERVER) 
  69:.\Generated_Source\PSoC4/BLE_LED_eventHandler.c ****     uint8 cyBle_scanningIntervalType;
  70:.\Generated_Source\PSoC4/BLE_LED_eventHandler.c **** #endif /* CYBLE_GAP_ROLE_CENTRAL || CYBLE_GAP_ROLE_OBSERVER */
  71:.\Generated_Source\PSoC4/BLE_LED_eventHandler.c **** 
  72:.\Generated_Source\PSoC4/BLE_LED_eventHandler.c **** #if(CYBLE_GATT_ROLE_SERVER)
  73:.\Generated_Source\PSoC4/BLE_LED_eventHandler.c **** #if defined CYBLE_CTS_SERVER || defined CYBLE_ESS_SERVER
  74:.\Generated_Source\PSoC4/BLE_LED_eventHandler.c **** CYBLE_GATT_ERR_CODE_T cyBle_gattError;
  75:.\Generated_Source\PSoC4/BLE_LED_eventHandler.c **** #endif /* defined CYBLE_CTS_SERVER || defined CYBLE_ESS_SERVER */
  76:.\Generated_Source\PSoC4/BLE_LED_eventHandler.c **** #endif /* CYBLE_GATT_ROLE_SERVER */
  77:.\Generated_Source\PSoC4/BLE_LED_eventHandler.c **** 
  78:.\Generated_Source\PSoC4/BLE_LED_eventHandler.c **** #if(CYBLE_GATT_ROLE_CLIENT)
  79:.\Generated_Source\PSoC4/BLE_LED_eventHandler.c **** uint8 cyBle_disCount; /* Counter for discovery procedures */
  80:.\Generated_Source\PSoC4/BLE_LED_eventHandler.c **** 
  81:.\Generated_Source\PSoC4/BLE_LED_eventHandler.c **** #ifdef CYBLE_CUSTOM_CLIENT
  82:.\Generated_Source\PSoC4/BLE_LED_eventHandler.c **** /* Discovery included service information, used for 128-bit UUID read response handle 
  83:.\Generated_Source\PSoC4/BLE_LED_eventHandler.c ****    and for continue discovery. 
  84:.\Generated_Source\PSoC4/BLE_LED_eventHandler.c **** */
  85:.\Generated_Source\PSoC4/BLE_LED_eventHandler.c **** static CYBLE_DISC_INCL_INFO_T cyBle_discInclInfo;
  86:.\Generated_Source\PSoC4/BLE_LED_eventHandler.c **** #endif /* CYBLE_CUSTOM_CLIENT */
  87:.\Generated_Source\PSoC4/BLE_LED_eventHandler.c **** 
  88:.\Generated_Source\PSoC4/BLE_LED_eventHandler.c **** #ifdef CYBLE_HIDS_CLIENT
  89:.\Generated_Source\PSoC4/BLE_LED_eventHandler.c ****     static uint8 disServiceIndex;      /* To discovery descriptors for multiple HID service instanc
  90:.\Generated_Source\PSoC4/BLE_LED_eventHandler.c **** #endif /* CYBLE_HIDS_CLIENT */
ARM GAS  C:\Users\tiantiaf\AppData\Local\Temp\cc2Xz98j.s 			page 3


  91:.\Generated_Source\PSoC4/BLE_LED_eventHandler.c **** 
  92:.\Generated_Source\PSoC4/BLE_LED_eventHandler.c **** CYBLE_DISC_SRVC_INFO_T cyBle_serverInfo[CYBLE_SRVI_COUNT] = /*3*/
  93:.\Generated_Source\PSoC4/BLE_LED_eventHandler.c **** {
  94:.\Generated_Source\PSoC4/BLE_LED_eventHandler.c ****     {{CYBLE_GATT_INVALID_ATTR_HANDLE_VALUE, CYBLE_GATT_INVALID_ATTR_HANDLE_VALUE}, CYBLE_UUID_GAP_S
  95:.\Generated_Source\PSoC4/BLE_LED_eventHandler.c ****     {{CYBLE_GATT_INVALID_ATTR_HANDLE_VALUE, CYBLE_GATT_INVALID_ATTR_HANDLE_VALUE}, CYBLE_UUID_GATT_
  96:.\Generated_Source\PSoC4/BLE_LED_eventHandler.c **** #ifdef CYBLE_ANCS_CLIENT
  97:.\Generated_Source\PSoC4/BLE_LED_eventHandler.c ****     {{CYBLE_GATT_INVALID_ATTR_HANDLE_VALUE, CYBLE_GATT_INVALID_ATTR_HANDLE_VALUE}, 0x0000u},
  98:.\Generated_Source\PSoC4/BLE_LED_eventHandler.c **** #endif /* CYBLE_ANCS_CLIENT */
  99:.\Generated_Source\PSoC4/BLE_LED_eventHandler.c **** #ifdef CYBLE_ANS_CLIENT
 100:.\Generated_Source\PSoC4/BLE_LED_eventHandler.c ****     {{CYBLE_GATT_INVALID_ATTR_HANDLE_VALUE, CYBLE_GATT_INVALID_ATTR_HANDLE_VALUE}, 
 101:.\Generated_Source\PSoC4/BLE_LED_eventHandler.c ****         CYBLE_UUID_ALERT_NOTIFICATION_SERVICE},
 102:.\Generated_Source\PSoC4/BLE_LED_eventHandler.c **** #endif /* CYBLE_ANS_CLIENT */
 103:.\Generated_Source\PSoC4/BLE_LED_eventHandler.c **** #ifdef CYBLE_BAS_CLIENT
 104:.\Generated_Source\PSoC4/BLE_LED_eventHandler.c ****     {{CYBLE_GATT_INVALID_ATTR_HANDLE_VALUE, CYBLE_GATT_INVALID_ATTR_HANDLE_VALUE}, CYBLE_UUID_BAS_S
 105:.\Generated_Source\PSoC4/BLE_LED_eventHandler.c ****     #if(CYBLE_BASC_SERVICE_COUNT > 1u) /* Generate it by GUI */
 106:.\Generated_Source\PSoC4/BLE_LED_eventHandler.c ****         
 107:.\Generated_Source\PSoC4/BLE_LED_eventHandler.c ****     #endif /* CYBLE_BASC_SERVICE_COUNT > 1u */
 108:.\Generated_Source\PSoC4/BLE_LED_eventHandler.c **** #endif /* CYBLE_BAS_CLIENT */
 109:.\Generated_Source\PSoC4/BLE_LED_eventHandler.c **** #ifdef CYBLE_BCS_CLIENT
 110:.\Generated_Source\PSoC4/BLE_LED_eventHandler.c ****     {{CYBLE_GATT_INVALID_ATTR_HANDLE_VALUE, CYBLE_GATT_INVALID_ATTR_HANDLE_VALUE}, CYBLE_UUID_BODY_
 111:.\Generated_Source\PSoC4/BLE_LED_eventHandler.c **** #endif /* CYBLE_BCS_CLIENT */
 112:.\Generated_Source\PSoC4/BLE_LED_eventHandler.c **** #ifdef CYBLE_BLS_CLIENT
 113:.\Generated_Source\PSoC4/BLE_LED_eventHandler.c ****     {{CYBLE_GATT_INVALID_ATTR_HANDLE_VALUE, CYBLE_GATT_INVALID_ATTR_HANDLE_VALUE}, CYBLE_UUID_BLOOD
 114:.\Generated_Source\PSoC4/BLE_LED_eventHandler.c **** #endif /* CYBLE_BLS_CLIENT */
 115:.\Generated_Source\PSoC4/BLE_LED_eventHandler.c **** #ifdef CYBLE_BMS_CLIENT
 116:.\Generated_Source\PSoC4/BLE_LED_eventHandler.c ****     {{CYBLE_GATT_INVALID_ATTR_HANDLE_VALUE, CYBLE_GATT_INVALID_ATTR_HANDLE_VALUE}, CYBLE_UUID_BOND_
 117:.\Generated_Source\PSoC4/BLE_LED_eventHandler.c **** #endif /* CYBLE_BMS_CLIENT */
 118:.\Generated_Source\PSoC4/BLE_LED_eventHandler.c **** #ifdef CYBLE_CGMS_CLIENT
 119:.\Generated_Source\PSoC4/BLE_LED_eventHandler.c ****     {{CYBLE_GATT_INVALID_ATTR_HANDLE_VALUE, CYBLE_GATT_INVALID_ATTR_HANDLE_VALUE}, CYBLE_UUID_CGM_S
 120:.\Generated_Source\PSoC4/BLE_LED_eventHandler.c **** #endif /* CYBLE_CGMS_CLIENT */
 121:.\Generated_Source\PSoC4/BLE_LED_eventHandler.c **** #ifdef CYBLE_CPS_CLIENT
 122:.\Generated_Source\PSoC4/BLE_LED_eventHandler.c ****     {{CYBLE_GATT_INVALID_ATTR_HANDLE_VALUE, CYBLE_GATT_INVALID_ATTR_HANDLE_VALUE}, CYBLE_UUID_CPS_S
 123:.\Generated_Source\PSoC4/BLE_LED_eventHandler.c **** #endif /* CYBLE_CPS_CLIENT */
 124:.\Generated_Source\PSoC4/BLE_LED_eventHandler.c **** #ifdef CYBLE_CSCS_CLIENT
 125:.\Generated_Source\PSoC4/BLE_LED_eventHandler.c ****     {{CYBLE_GATT_INVALID_ATTR_HANDLE_VALUE, CYBLE_GATT_INVALID_ATTR_HANDLE_VALUE}, 
 126:.\Generated_Source\PSoC4/BLE_LED_eventHandler.c ****         CYBLE_UUID_CYCLING_SPEED_AND_CADENCE_SERVICE},
 127:.\Generated_Source\PSoC4/BLE_LED_eventHandler.c **** #endif /* CYBLE_CSCS_CLIENT */
 128:.\Generated_Source\PSoC4/BLE_LED_eventHandler.c **** #ifdef CYBLE_CTS_CLIENT
 129:.\Generated_Source\PSoC4/BLE_LED_eventHandler.c ****     {{CYBLE_GATT_INVALID_ATTR_HANDLE_VALUE, CYBLE_GATT_INVALID_ATTR_HANDLE_VALUE}, CYBLE_UUID_CURRE
 130:.\Generated_Source\PSoC4/BLE_LED_eventHandler.c **** #endif /* CYBLE_CTS_CLIENT */
 131:.\Generated_Source\PSoC4/BLE_LED_eventHandler.c **** #ifdef CYBLE_CUSTOM_CLIENT
 132:.\Generated_Source\PSoC4/BLE_LED_eventHandler.c ****     
 133:.\Generated_Source\PSoC4/BLE_LED_eventHandler.c **** #endif /* CYBLE_CUSTOM_CLIENT */
 134:.\Generated_Source\PSoC4/BLE_LED_eventHandler.c **** #ifdef CYBLE_DIS_CLIENT
 135:.\Generated_Source\PSoC4/BLE_LED_eventHandler.c ****     {{CYBLE_GATT_INVALID_ATTR_HANDLE_VALUE, CYBLE_GATT_INVALID_ATTR_HANDLE_VALUE}, CYBLE_UUID_DEVIC
 136:.\Generated_Source\PSoC4/BLE_LED_eventHandler.c **** #endif /* CYBLE_DIS_CLIENT */
 137:.\Generated_Source\PSoC4/BLE_LED_eventHandler.c **** #ifdef CYBLE_ESS_CLIENT
 138:.\Generated_Source\PSoC4/BLE_LED_eventHandler.c ****     {{CYBLE_GATT_INVALID_ATTR_HANDLE_VALUE, CYBLE_GATT_INVALID_ATTR_HANDLE_VALUE}, 
 139:.\Generated_Source\PSoC4/BLE_LED_eventHandler.c ****         CYBLE_UUID_ENVIRONMENTAL_SENSING_SERVICE},
 140:.\Generated_Source\PSoC4/BLE_LED_eventHandler.c **** #endif /* CYBLE_ESS_CLIENT */
 141:.\Generated_Source\PSoC4/BLE_LED_eventHandler.c **** #ifdef CYBLE_GLS_CLIENT
 142:.\Generated_Source\PSoC4/BLE_LED_eventHandler.c ****     {{CYBLE_GATT_INVALID_ATTR_HANDLE_VALUE, CYBLE_GATT_INVALID_ATTR_HANDLE_VALUE}, CYBLE_UUID_GLUCO
 143:.\Generated_Source\PSoC4/BLE_LED_eventHandler.c **** #endif /* CYBLE_GLS_CLIENT */
 144:.\Generated_Source\PSoC4/BLE_LED_eventHandler.c **** #ifdef CYBLE_HIDS_CLIENT
 145:.\Generated_Source\PSoC4/BLE_LED_eventHandler.c ****     {{CYBLE_GATT_INVALID_ATTR_HANDLE_VALUE, CYBLE_GATT_INVALID_ATTR_HANDLE_VALUE}, CYBLE_UUID_HIDS_
 146:.\Generated_Source\PSoC4/BLE_LED_eventHandler.c ****     #if(CYBLE_HIDSC_SERVICE_COUNT > 1u) /* Generate it by GUI */
 147:.\Generated_Source\PSoC4/BLE_LED_eventHandler.c ****         
ARM GAS  C:\Users\tiantiaf\AppData\Local\Temp\cc2Xz98j.s 			page 4


 148:.\Generated_Source\PSoC4/BLE_LED_eventHandler.c ****     #endif /* CYBLE_HIDSC_SERVICE_COUNT > 1u */
 149:.\Generated_Source\PSoC4/BLE_LED_eventHandler.c **** #endif /* CYBLE_HIDS_CLIENT */
 150:.\Generated_Source\PSoC4/BLE_LED_eventHandler.c **** #ifdef CYBLE_HPS_CLIENT
 151:.\Generated_Source\PSoC4/BLE_LED_eventHandler.c ****     {{CYBLE_GATT_INVALID_ATTR_HANDLE_VALUE, CYBLE_GATT_INVALID_ATTR_HANDLE_VALUE}, CYBLE_UUID_HTTP_
 152:.\Generated_Source\PSoC4/BLE_LED_eventHandler.c **** #endif /* CYBLE_HPS_CLIENT */
 153:.\Generated_Source\PSoC4/BLE_LED_eventHandler.c **** #ifdef CYBLE_HRS_CLIENT
 154:.\Generated_Source\PSoC4/BLE_LED_eventHandler.c ****     {{CYBLE_GATT_INVALID_ATTR_HANDLE_VALUE, CYBLE_GATT_INVALID_ATTR_HANDLE_VALUE}, CYBLE_UUID_HEART
 155:.\Generated_Source\PSoC4/BLE_LED_eventHandler.c **** #endif /* CYBLE_HRS_CLIENT */
 156:.\Generated_Source\PSoC4/BLE_LED_eventHandler.c **** #ifdef CYBLE_HTS_CLIENT
 157:.\Generated_Source\PSoC4/BLE_LED_eventHandler.c ****     {{CYBLE_GATT_INVALID_ATTR_HANDLE_VALUE, CYBLE_GATT_INVALID_ATTR_HANDLE_VALUE}, CYBLE_UUID_HEALT
 158:.\Generated_Source\PSoC4/BLE_LED_eventHandler.c **** #endif /* CYBLE_HTS_CLIENT */
 159:.\Generated_Source\PSoC4/BLE_LED_eventHandler.c **** #ifdef CYBLE_IAS_CLIENT
 160:.\Generated_Source\PSoC4/BLE_LED_eventHandler.c ****     {{CYBLE_GATT_INVALID_ATTR_HANDLE_VALUE, CYBLE_GATT_INVALID_ATTR_HANDLE_VALUE}, CYBLE_UUID_IMMED
 161:.\Generated_Source\PSoC4/BLE_LED_eventHandler.c **** #endif /* CYBLE_IAS_CLIENT */
 162:.\Generated_Source\PSoC4/BLE_LED_eventHandler.c **** #ifdef CYBLE_IPS_CLIENT
 163:.\Generated_Source\PSoC4/BLE_LED_eventHandler.c ****     {{CYBLE_GATT_INVALID_ATTR_HANDLE_VALUE, CYBLE_GATT_INVALID_ATTR_HANDLE_VALUE}, CYBLE_UUID_IPS_S
 164:.\Generated_Source\PSoC4/BLE_LED_eventHandler.c **** #endif /* CYBLE_IPS_CLIENT */
 165:.\Generated_Source\PSoC4/BLE_LED_eventHandler.c **** #ifdef CYBLE_LLS_CLIENT
 166:.\Generated_Source\PSoC4/BLE_LED_eventHandler.c ****     {{CYBLE_GATT_INVALID_ATTR_HANDLE_VALUE, CYBLE_GATT_INVALID_ATTR_HANDLE_VALUE}, CYBLE_UUID_LINK_
 167:.\Generated_Source\PSoC4/BLE_LED_eventHandler.c **** #endif /* CYBLE_LLS_CLIENT */
 168:.\Generated_Source\PSoC4/BLE_LED_eventHandler.c **** #ifdef CYBLE_LNS_CLIENT
 169:.\Generated_Source\PSoC4/BLE_LED_eventHandler.c ****     {{CYBLE_GATT_INVALID_ATTR_HANDLE_VALUE, CYBLE_GATT_INVALID_ATTR_HANDLE_VALUE}, CYBLE_UUID_LOCAT
 170:.\Generated_Source\PSoC4/BLE_LED_eventHandler.c **** #endif /* CYBLE_LNS_CLIENT */
 171:.\Generated_Source\PSoC4/BLE_LED_eventHandler.c **** #ifdef CYBLE_NDCS_CLIENT
 172:.\Generated_Source\PSoC4/BLE_LED_eventHandler.c ****     {{CYBLE_GATT_INVALID_ATTR_HANDLE_VALUE, CYBLE_GATT_INVALID_ATTR_HANDLE_VALUE}, CYBLE_UUID_NEXT_
 173:.\Generated_Source\PSoC4/BLE_LED_eventHandler.c **** #endif /* CYBLE_NDCS_CLIENT */
 174:.\Generated_Source\PSoC4/BLE_LED_eventHandler.c **** #ifdef CYBLE_IPSS_CLIENT
 175:.\Generated_Source\PSoC4/BLE_LED_eventHandler.c ****     {{CYBLE_GATT_INVALID_ATTR_HANDLE_VALUE, CYBLE_GATT_INVALID_ATTR_HANDLE_VALUE}, CYBLE_UUID_INTER
 176:.\Generated_Source\PSoC4/BLE_LED_eventHandler.c **** #endif /* CYBLE_IPSS_CLIENT */
 177:.\Generated_Source\PSoC4/BLE_LED_eventHandler.c **** #ifdef CYBLE_PASS_CLIENT
 178:.\Generated_Source\PSoC4/BLE_LED_eventHandler.c ****     {{CYBLE_GATT_INVALID_ATTR_HANDLE_VALUE, CYBLE_GATT_INVALID_ATTR_HANDLE_VALUE}, CYBLE_UUID_PHONE
 179:.\Generated_Source\PSoC4/BLE_LED_eventHandler.c **** #endif /* CYBLE_PASS_CLIENT */
 180:.\Generated_Source\PSoC4/BLE_LED_eventHandler.c **** #ifdef CYBLE_RSCS_CLIENT
 181:.\Generated_Source\PSoC4/BLE_LED_eventHandler.c ****     {{CYBLE_GATT_INVALID_ATTR_HANDLE_VALUE, CYBLE_GATT_INVALID_ATTR_HANDLE_VALUE}, CYBLE_UUID_RUNNI
 182:.\Generated_Source\PSoC4/BLE_LED_eventHandler.c **** #endif /* CYBLE_RSCS_CLIENT */
 183:.\Generated_Source\PSoC4/BLE_LED_eventHandler.c **** #ifdef CYBLE_RTUS_CLIENT
 184:.\Generated_Source\PSoC4/BLE_LED_eventHandler.c ****     {{CYBLE_GATT_INVALID_ATTR_HANDLE_VALUE, CYBLE_GATT_INVALID_ATTR_HANDLE_VALUE}, CYBLE_UUID_REF_T
 185:.\Generated_Source\PSoC4/BLE_LED_eventHandler.c **** #endif /* CYBLE_RTUS_CLIENT */
 186:.\Generated_Source\PSoC4/BLE_LED_eventHandler.c **** #ifdef CYBLE_SCPS_CLIENT
 187:.\Generated_Source\PSoC4/BLE_LED_eventHandler.c ****     {{CYBLE_GATT_INVALID_ATTR_HANDLE_VALUE, CYBLE_GATT_INVALID_ATTR_HANDLE_VALUE}, CYBLE_UUID_SCAN_
 188:.\Generated_Source\PSoC4/BLE_LED_eventHandler.c **** #endif /* CYBLE_SCPS_CLIENT */
 189:.\Generated_Source\PSoC4/BLE_LED_eventHandler.c **** #ifdef CYBLE_TPS_CLIENT
 190:.\Generated_Source\PSoC4/BLE_LED_eventHandler.c ****     {{CYBLE_GATT_INVALID_ATTR_HANDLE_VALUE, CYBLE_GATT_INVALID_ATTR_HANDLE_VALUE}, CYBLE_UUID_TX_PO
 191:.\Generated_Source\PSoC4/BLE_LED_eventHandler.c **** #endif /* CYBLE_TPS_CLIENT */
 192:.\Generated_Source\PSoC4/BLE_LED_eventHandler.c **** #ifdef CYBLE_UDS_CLIENT
 193:.\Generated_Source\PSoC4/BLE_LED_eventHandler.c ****     {{CYBLE_GATT_INVALID_ATTR_HANDLE_VALUE, CYBLE_GATT_INVALID_ATTR_HANDLE_VALUE}, CYBLE_UUID_USER_
 194:.\Generated_Source\PSoC4/BLE_LED_eventHandler.c **** #endif /* CYBLE_UDS_CLIENT */
 195:.\Generated_Source\PSoC4/BLE_LED_eventHandler.c **** #ifdef CYBLE_WSS_CLIENT
 196:.\Generated_Source\PSoC4/BLE_LED_eventHandler.c ****     {{CYBLE_GATT_INVALID_ATTR_HANDLE_VALUE, CYBLE_GATT_INVALID_ATTR_HANDLE_VALUE}, CYBLE_UUID_WEIGH
 197:.\Generated_Source\PSoC4/BLE_LED_eventHandler.c **** #endif /* CYBLE_WSS_CLIENT */
 198:.\Generated_Source\PSoC4/BLE_LED_eventHandler.c **** #ifdef CYBLE_WPTS_CLIENT
 199:.\Generated_Source\PSoC4/BLE_LED_eventHandler.c ****     {{CYBLE_GATT_INVALID_ATTR_HANDLE_VALUE, CYBLE_GATT_INVALID_ATTR_HANDLE_VALUE}, CYBLE_UUID_WIREL
 200:.\Generated_Source\PSoC4/BLE_LED_eventHandler.c **** #endif /* CYBLE_WPTS_CLIENT */
 201:.\Generated_Source\PSoC4/BLE_LED_eventHandler.c **** };
 202:.\Generated_Source\PSoC4/BLE_LED_eventHandler.c **** 
 203:.\Generated_Source\PSoC4/BLE_LED_eventHandler.c **** CYBLE_GAPC_T cyBle_gapc;
 204:.\Generated_Source\PSoC4/BLE_LED_eventHandler.c **** 
ARM GAS  C:\Users\tiantiaf\AppData\Local\Temp\cc2Xz98j.s 			page 5


 205:.\Generated_Source\PSoC4/BLE_LED_eventHandler.c **** #endif /* CYBLE_GATT_ROLE_CLIENT */
 206:.\Generated_Source\PSoC4/BLE_LED_eventHandler.c **** 
 207:.\Generated_Source\PSoC4/BLE_LED_eventHandler.c **** /* Default device security */
 208:.\Generated_Source\PSoC4/BLE_LED_eventHandler.c **** CYBLE_GAP_AUTH_INFO_T cyBle_authInfo =
 209:.\Generated_Source\PSoC4/BLE_LED_eventHandler.c **** {
 210:.\Generated_Source\PSoC4/BLE_LED_eventHandler.c ****     (CYBLE_GAP_SEC_MODE_1 | CYBLE_GAP_SEC_LEVEL_1 ), /* uint8 security */
 211:.\Generated_Source\PSoC4/BLE_LED_eventHandler.c ****     CYBLE_GAP_BONDING_NONE, /* uint8 bonding */
 212:.\Generated_Source\PSoC4/BLE_LED_eventHandler.c ****     0x10u,      /* uint8 ekeySize */
 213:.\Generated_Source\PSoC4/BLE_LED_eventHandler.c ****     CYBLE_GAP_AUTH_ERROR_NONE, /* CYBLE_AUTH_FAILED_REASON_T authErr */
 214:.\Generated_Source\PSoC4/BLE_LED_eventHandler.c ****     0x00u,      /* uint8 pairingProperties */
 215:.\Generated_Source\PSoC4/BLE_LED_eventHandler.c **** };
 216:.\Generated_Source\PSoC4/BLE_LED_eventHandler.c **** 
 217:.\Generated_Source\PSoC4/BLE_LED_eventHandler.c **** #if(CYBLE_GATT_ROLE_SERVER)
 218:.\Generated_Source\PSoC4/BLE_LED_eventHandler.c **** 
 219:.\Generated_Source\PSoC4/BLE_LED_eventHandler.c **** 
 220:.\Generated_Source\PSoC4/BLE_LED_eventHandler.c **** /******************************************************************************    
 221:.\Generated_Source\PSoC4/BLE_LED_eventHandler.c **** * Function Name: CyBle_WriteReqHandler
 222:.\Generated_Source\PSoC4/BLE_LED_eventHandler.c **** ***************************************************************************//**
 223:.\Generated_Source\PSoC4/BLE_LED_eventHandler.c **** * 
 224:.\Generated_Source\PSoC4/BLE_LED_eventHandler.c **** *  Handles the Write Request event from BLE stack.
 225:.\Generated_Source\PSoC4/BLE_LED_eventHandler.c **** * 
 226:.\Generated_Source\PSoC4/BLE_LED_eventHandler.c **** *  CYBLE_GATTS_WRITE_REQ_PARAM_T * eventParam - event parameter
 227:.\Generated_Source\PSoC4/BLE_LED_eventHandler.c **** * 
 228:.\Generated_Source\PSoC4/BLE_LED_eventHandler.c **** * \return
 229:.\Generated_Source\PSoC4/BLE_LED_eventHandler.c **** *  None
 230:.\Generated_Source\PSoC4/BLE_LED_eventHandler.c **** * 
 231:.\Generated_Source\PSoC4/BLE_LED_eventHandler.c **** ******************************************************************************/
 232:.\Generated_Source\PSoC4/BLE_LED_eventHandler.c **** static void CyBle_WriteReqHandler(CYBLE_GATTS_WRITE_REQ_PARAM_T *eventParam)
 233:.\Generated_Source\PSoC4/BLE_LED_eventHandler.c **** {
 234:.\Generated_Source\PSoC4/BLE_LED_eventHandler.c ****     CYBLE_GATT_ERR_CODE_T gattErr;
 235:.\Generated_Source\PSoC4/BLE_LED_eventHandler.c **** #if defined CYBLE_CTS_SERVER || defined CYBLE_ESS_SERVER
 236:.\Generated_Source\PSoC4/BLE_LED_eventHandler.c ****     cyBle_gattError = CYBLE_GATT_ERR_NONE;
 237:.\Generated_Source\PSoC4/BLE_LED_eventHandler.c **** #endif /* defined CYBLE_CTS_SERVER || defined CYBLE_ESS_SERVER */
 238:.\Generated_Source\PSoC4/BLE_LED_eventHandler.c ****     
 239:.\Generated_Source\PSoC4/BLE_LED_eventHandler.c ****     gattErr = CyBle_GattsWriteEventHandler(eventParam);
 240:.\Generated_Source\PSoC4/BLE_LED_eventHandler.c **** #ifdef CYBLE_ANCS_SERVER
 241:.\Generated_Source\PSoC4/BLE_LED_eventHandler.c ****     if(((cyBle_eventHandlerFlag & CYBLE_CALLBACK) != 0u) && (gattErr == CYBLE_GATT_ERR_NONE))
 242:.\Generated_Source\PSoC4/BLE_LED_eventHandler.c ****     {
 243:.\Generated_Source\PSoC4/BLE_LED_eventHandler.c ****         gattErr = CyBle_AncssWriteEventHandler(eventParam);
 244:.\Generated_Source\PSoC4/BLE_LED_eventHandler.c ****     }
 245:.\Generated_Source\PSoC4/BLE_LED_eventHandler.c **** #endif /* CYBLE_ANCS_SERVER */
 246:.\Generated_Source\PSoC4/BLE_LED_eventHandler.c **** #ifdef CYBLE_ANS_SERVER
 247:.\Generated_Source\PSoC4/BLE_LED_eventHandler.c ****     if(((cyBle_eventHandlerFlag & CYBLE_CALLBACK) != 0u) && (gattErr == CYBLE_GATT_ERR_NONE))
 248:.\Generated_Source\PSoC4/BLE_LED_eventHandler.c ****     {
 249:.\Generated_Source\PSoC4/BLE_LED_eventHandler.c ****         gattErr = CyBle_AnssWriteEventHandler(eventParam);
 250:.\Generated_Source\PSoC4/BLE_LED_eventHandler.c ****     }
 251:.\Generated_Source\PSoC4/BLE_LED_eventHandler.c **** #endif /* CYBLE_ANS_SERVER */
 252:.\Generated_Source\PSoC4/BLE_LED_eventHandler.c **** #ifdef CYBLE_BAS_SERVER
 253:.\Generated_Source\PSoC4/BLE_LED_eventHandler.c ****     if(((cyBle_eventHandlerFlag & CYBLE_CALLBACK) != 0u) && (gattErr == CYBLE_GATT_ERR_NONE))
 254:.\Generated_Source\PSoC4/BLE_LED_eventHandler.c ****     {
 255:.\Generated_Source\PSoC4/BLE_LED_eventHandler.c ****         gattErr = CyBle_BassWriteEventHandler(eventParam);
 256:.\Generated_Source\PSoC4/BLE_LED_eventHandler.c ****     }
 257:.\Generated_Source\PSoC4/BLE_LED_eventHandler.c **** #endif /* CYBLE_BAS_SERVER */
 258:.\Generated_Source\PSoC4/BLE_LED_eventHandler.c **** #ifdef CYBLE_BCS_SERVER
 259:.\Generated_Source\PSoC4/BLE_LED_eventHandler.c ****     if(((cyBle_eventHandlerFlag & CYBLE_CALLBACK) != 0u) && (gattErr == CYBLE_GATT_ERR_NONE))
 260:.\Generated_Source\PSoC4/BLE_LED_eventHandler.c ****     {
 261:.\Generated_Source\PSoC4/BLE_LED_eventHandler.c ****         gattErr = CyBle_BcssWriteEventHandler(eventParam);
ARM GAS  C:\Users\tiantiaf\AppData\Local\Temp\cc2Xz98j.s 			page 6


 262:.\Generated_Source\PSoC4/BLE_LED_eventHandler.c ****     }
 263:.\Generated_Source\PSoC4/BLE_LED_eventHandler.c **** #endif /* CYBLE_BCS_SERVER */
 264:.\Generated_Source\PSoC4/BLE_LED_eventHandler.c **** #ifdef CYBLE_BLS_SERVER
 265:.\Generated_Source\PSoC4/BLE_LED_eventHandler.c ****     if(((cyBle_eventHandlerFlag & CYBLE_CALLBACK) != 0u) && (gattErr == CYBLE_GATT_ERR_NONE))
 266:.\Generated_Source\PSoC4/BLE_LED_eventHandler.c ****     {
 267:.\Generated_Source\PSoC4/BLE_LED_eventHandler.c ****         gattErr = CyBle_BlssWriteEventHandler(eventParam);
 268:.\Generated_Source\PSoC4/BLE_LED_eventHandler.c ****     }
 269:.\Generated_Source\PSoC4/BLE_LED_eventHandler.c **** #endif /* CYBLE_BLS_SERVER */
 270:.\Generated_Source\PSoC4/BLE_LED_eventHandler.c **** #ifdef CYBLE_BMS_SERVER
 271:.\Generated_Source\PSoC4/BLE_LED_eventHandler.c ****     if(((cyBle_eventHandlerFlag & CYBLE_CALLBACK) != 0u) && (gattErr == CYBLE_GATT_ERR_NONE))
 272:.\Generated_Source\PSoC4/BLE_LED_eventHandler.c ****     {
 273:.\Generated_Source\PSoC4/BLE_LED_eventHandler.c ****         gattErr = CyBle_BmssWriteEventHandler(eventParam);
 274:.\Generated_Source\PSoC4/BLE_LED_eventHandler.c ****     }
 275:.\Generated_Source\PSoC4/BLE_LED_eventHandler.c **** #endif /* CYBLE_BMS_SERVER */
 276:.\Generated_Source\PSoC4/BLE_LED_eventHandler.c **** #ifdef CYBLE_BTS_SERVER
 277:.\Generated_Source\PSoC4/BLE_LED_eventHandler.c ****     if((cyBle_eventHandlerFlag & CYBLE_CALLBACK) != 0u)
 278:.\Generated_Source\PSoC4/BLE_LED_eventHandler.c ****     {
 279:.\Generated_Source\PSoC4/BLE_LED_eventHandler.c ****         gattErr = CyBle_BtsWriteEventHandler(eventParam);
 280:.\Generated_Source\PSoC4/BLE_LED_eventHandler.c ****     }
 281:.\Generated_Source\PSoC4/BLE_LED_eventHandler.c **** #endif /* CYBLE_BTS_SERVER */
 282:.\Generated_Source\PSoC4/BLE_LED_eventHandler.c **** #ifdef CYBLE_CGMS_SERVER
 283:.\Generated_Source\PSoC4/BLE_LED_eventHandler.c ****     if(((cyBle_eventHandlerFlag & CYBLE_CALLBACK) != 0u) && (gattErr == CYBLE_GATT_ERR_NONE))
 284:.\Generated_Source\PSoC4/BLE_LED_eventHandler.c ****     {
 285:.\Generated_Source\PSoC4/BLE_LED_eventHandler.c ****         gattErr = CyBle_CgmssWriteEventHandler(eventParam);
 286:.\Generated_Source\PSoC4/BLE_LED_eventHandler.c ****     }
 287:.\Generated_Source\PSoC4/BLE_LED_eventHandler.c **** #endif /* CYBLE_CGMS_SERVER */
 288:.\Generated_Source\PSoC4/BLE_LED_eventHandler.c **** #ifdef CYBLE_CPS_SERVER
 289:.\Generated_Source\PSoC4/BLE_LED_eventHandler.c ****     if(((cyBle_eventHandlerFlag & CYBLE_CALLBACK) != 0u) && (gattErr == CYBLE_GATT_ERR_NONE))
 290:.\Generated_Source\PSoC4/BLE_LED_eventHandler.c ****     {
 291:.\Generated_Source\PSoC4/BLE_LED_eventHandler.c ****         gattErr = CyBle_CpssWriteEventHandler(eventParam);
 292:.\Generated_Source\PSoC4/BLE_LED_eventHandler.c ****     }
 293:.\Generated_Source\PSoC4/BLE_LED_eventHandler.c **** #endif /* CYBLE_CPS_SERVER */
 294:.\Generated_Source\PSoC4/BLE_LED_eventHandler.c **** #ifdef CYBLE_CSCS_SERVER
 295:.\Generated_Source\PSoC4/BLE_LED_eventHandler.c ****     if(((cyBle_eventHandlerFlag & CYBLE_CALLBACK) != 0u) && (gattErr == CYBLE_GATT_ERR_NONE))
 296:.\Generated_Source\PSoC4/BLE_LED_eventHandler.c ****     {
 297:.\Generated_Source\PSoC4/BLE_LED_eventHandler.c ****         gattErr = CyBle_CscssWriteEventHandler(eventParam);
 298:.\Generated_Source\PSoC4/BLE_LED_eventHandler.c ****     }
 299:.\Generated_Source\PSoC4/BLE_LED_eventHandler.c **** #endif /* CYBLE_CSCS_SERVER */
 300:.\Generated_Source\PSoC4/BLE_LED_eventHandler.c **** #ifdef CYBLE_CTS_SERVER
 301:.\Generated_Source\PSoC4/BLE_LED_eventHandler.c ****     if(((cyBle_eventHandlerFlag & CYBLE_CALLBACK) != 0u) && (gattErr == CYBLE_GATT_ERR_NONE))
 302:.\Generated_Source\PSoC4/BLE_LED_eventHandler.c ****     {
 303:.\Generated_Source\PSoC4/BLE_LED_eventHandler.c ****         gattErr = CyBle_CtssWriteEventHandler(eventParam);
 304:.\Generated_Source\PSoC4/BLE_LED_eventHandler.c ****     }
 305:.\Generated_Source\PSoC4/BLE_LED_eventHandler.c **** #endif /* CYBLE_CTS_SERVER */
 306:.\Generated_Source\PSoC4/BLE_LED_eventHandler.c **** #ifdef CYBLE_ESS_SERVER
 307:.\Generated_Source\PSoC4/BLE_LED_eventHandler.c ****     if(((cyBle_eventHandlerFlag & CYBLE_CALLBACK) != 0u) && (gattErr == CYBLE_GATT_ERR_NONE))
 308:.\Generated_Source\PSoC4/BLE_LED_eventHandler.c ****     {
 309:.\Generated_Source\PSoC4/BLE_LED_eventHandler.c ****         gattErr = CyBle_EsssWriteEventHandler(eventParam);
 310:.\Generated_Source\PSoC4/BLE_LED_eventHandler.c ****     }
 311:.\Generated_Source\PSoC4/BLE_LED_eventHandler.c **** #endif /* CYBLE_ESS_SERVER */
 312:.\Generated_Source\PSoC4/BLE_LED_eventHandler.c **** #ifdef CYBLE_GLS_SERVER
 313:.\Generated_Source\PSoC4/BLE_LED_eventHandler.c ****     if(((cyBle_eventHandlerFlag & CYBLE_CALLBACK) != 0u) && (gattErr == CYBLE_GATT_ERR_NONE))
 314:.\Generated_Source\PSoC4/BLE_LED_eventHandler.c ****     {
 315:.\Generated_Source\PSoC4/BLE_LED_eventHandler.c ****         gattErr = CyBle_GlssWriteEventHandler(eventParam);
 316:.\Generated_Source\PSoC4/BLE_LED_eventHandler.c ****     }
 317:.\Generated_Source\PSoC4/BLE_LED_eventHandler.c **** #endif /* CYBLE_GLS_SERVER */
 318:.\Generated_Source\PSoC4/BLE_LED_eventHandler.c **** #ifdef CYBLE_HIDS_SERVER
ARM GAS  C:\Users\tiantiaf\AppData\Local\Temp\cc2Xz98j.s 			page 7


 319:.\Generated_Source\PSoC4/BLE_LED_eventHandler.c ****     if(((cyBle_eventHandlerFlag & CYBLE_CALLBACK) != 0u) && (gattErr == CYBLE_GATT_ERR_NONE))
 320:.\Generated_Source\PSoC4/BLE_LED_eventHandler.c ****     {
 321:.\Generated_Source\PSoC4/BLE_LED_eventHandler.c ****         gattErr = CyBle_HidssWriteEventHandler(eventParam);
 322:.\Generated_Source\PSoC4/BLE_LED_eventHandler.c ****     }
 323:.\Generated_Source\PSoC4/BLE_LED_eventHandler.c **** #endif /* CYBLE_HIDS_SERVER */
 324:.\Generated_Source\PSoC4/BLE_LED_eventHandler.c **** #ifdef CYBLE_HPS_SERVER
 325:.\Generated_Source\PSoC4/BLE_LED_eventHandler.c ****     if(((cyBle_eventHandlerFlag & CYBLE_CALLBACK) != 0u) && (gattErr == CYBLE_GATT_ERR_NONE))
 326:.\Generated_Source\PSoC4/BLE_LED_eventHandler.c ****     {
 327:.\Generated_Source\PSoC4/BLE_LED_eventHandler.c ****         gattErr = CyBle_HpssWriteEventHandler(eventParam);
 328:.\Generated_Source\PSoC4/BLE_LED_eventHandler.c ****     }
 329:.\Generated_Source\PSoC4/BLE_LED_eventHandler.c **** #endif /* CYBLE_HPS_SERVER */
 330:.\Generated_Source\PSoC4/BLE_LED_eventHandler.c **** #ifdef CYBLE_HRS_SERVER
 331:.\Generated_Source\PSoC4/BLE_LED_eventHandler.c ****     if(((cyBle_eventHandlerFlag & CYBLE_CALLBACK) != 0u) && (gattErr == CYBLE_GATT_ERR_NONE))
 332:.\Generated_Source\PSoC4/BLE_LED_eventHandler.c ****     {
 333:.\Generated_Source\PSoC4/BLE_LED_eventHandler.c ****         gattErr = CyBle_HrssWriteEventHandler(eventParam);
 334:.\Generated_Source\PSoC4/BLE_LED_eventHandler.c ****     }
 335:.\Generated_Source\PSoC4/BLE_LED_eventHandler.c **** #endif /* CYBLE_HRS_SERVER */
 336:.\Generated_Source\PSoC4/BLE_LED_eventHandler.c **** #ifdef CYBLE_HTS_SERVER
 337:.\Generated_Source\PSoC4/BLE_LED_eventHandler.c ****     if(((cyBle_eventHandlerFlag & CYBLE_CALLBACK) != 0u) && (gattErr == CYBLE_GATT_ERR_NONE))
 338:.\Generated_Source\PSoC4/BLE_LED_eventHandler.c ****     {
 339:.\Generated_Source\PSoC4/BLE_LED_eventHandler.c ****         gattErr = CyBle_HtssWriteEventHandler(eventParam);
 340:.\Generated_Source\PSoC4/BLE_LED_eventHandler.c ****     }
 341:.\Generated_Source\PSoC4/BLE_LED_eventHandler.c **** #endif /* CYBLE_HTS_SERVER */
 342:.\Generated_Source\PSoC4/BLE_LED_eventHandler.c **** #ifdef CYBLE_IPS_SERVER
 343:.\Generated_Source\PSoC4/BLE_LED_eventHandler.c ****     if(((cyBle_eventHandlerFlag & CYBLE_CALLBACK) != 0u) && (gattErr == CYBLE_GATT_ERR_NONE))
 344:.\Generated_Source\PSoC4/BLE_LED_eventHandler.c ****     {
 345:.\Generated_Source\PSoC4/BLE_LED_eventHandler.c ****         gattErr = CyBle_IpssWriteEventHandler(eventParam);
 346:.\Generated_Source\PSoC4/BLE_LED_eventHandler.c ****     }
 347:.\Generated_Source\PSoC4/BLE_LED_eventHandler.c **** #endif /* CYBLE_IPS_SERVER */
 348:.\Generated_Source\PSoC4/BLE_LED_eventHandler.c **** #ifdef CYBLE_LLS_SERVER
 349:.\Generated_Source\PSoC4/BLE_LED_eventHandler.c ****     if(((cyBle_eventHandlerFlag & CYBLE_CALLBACK) != 0u) && (gattErr == CYBLE_GATT_ERR_NONE))
 350:.\Generated_Source\PSoC4/BLE_LED_eventHandler.c ****     {
 351:.\Generated_Source\PSoC4/BLE_LED_eventHandler.c ****         gattErr = CyBle_LlssWriteEventHandler(eventParam);
 352:.\Generated_Source\PSoC4/BLE_LED_eventHandler.c ****     }
 353:.\Generated_Source\PSoC4/BLE_LED_eventHandler.c **** #endif /* CYBLE_LLS_SERVER */
 354:.\Generated_Source\PSoC4/BLE_LED_eventHandler.c **** #ifdef CYBLE_LNS_SERVER
 355:.\Generated_Source\PSoC4/BLE_LED_eventHandler.c ****     if(((cyBle_eventHandlerFlag & CYBLE_CALLBACK) != 0u) && (gattErr == CYBLE_GATT_ERR_NONE))
 356:.\Generated_Source\PSoC4/BLE_LED_eventHandler.c ****     {
 357:.\Generated_Source\PSoC4/BLE_LED_eventHandler.c ****         gattErr = CyBle_LnssWriteEventHandler(eventParam);
 358:.\Generated_Source\PSoC4/BLE_LED_eventHandler.c ****     }
 359:.\Generated_Source\PSoC4/BLE_LED_eventHandler.c **** #endif /* CYBLE_LNS_SERVER */
 360:.\Generated_Source\PSoC4/BLE_LED_eventHandler.c **** #ifdef CYBLE_PASS_SERVER
 361:.\Generated_Source\PSoC4/BLE_LED_eventHandler.c ****     if(((cyBle_eventHandlerFlag & CYBLE_CALLBACK) != 0u) && (gattErr == CYBLE_GATT_ERR_NONE))
 362:.\Generated_Source\PSoC4/BLE_LED_eventHandler.c ****     {
 363:.\Generated_Source\PSoC4/BLE_LED_eventHandler.c ****         gattErr = CyBle_PasssWriteEventHandler(eventParam);
 364:.\Generated_Source\PSoC4/BLE_LED_eventHandler.c ****     }
 365:.\Generated_Source\PSoC4/BLE_LED_eventHandler.c **** #endif /* CYBLE_PASS_SERVER */
 366:.\Generated_Source\PSoC4/BLE_LED_eventHandler.c **** #ifdef CYBLE_RSCS_SERVER
 367:.\Generated_Source\PSoC4/BLE_LED_eventHandler.c ****     if(((cyBle_eventHandlerFlag & CYBLE_CALLBACK) != 0u) && (gattErr == CYBLE_GATT_ERR_NONE))
 368:.\Generated_Source\PSoC4/BLE_LED_eventHandler.c ****     {
 369:.\Generated_Source\PSoC4/BLE_LED_eventHandler.c ****         gattErr = CyBle_RscssWriteEventHandler(eventParam);
 370:.\Generated_Source\PSoC4/BLE_LED_eventHandler.c ****     }
 371:.\Generated_Source\PSoC4/BLE_LED_eventHandler.c **** #endif /* CYBLE_RSCS_SERVER */
 372:.\Generated_Source\PSoC4/BLE_LED_eventHandler.c **** #ifdef CYBLE_SCPS_SERVER
 373:.\Generated_Source\PSoC4/BLE_LED_eventHandler.c ****     if(((cyBle_eventHandlerFlag & CYBLE_CALLBACK) != 0u) && (gattErr == CYBLE_GATT_ERR_NONE))
 374:.\Generated_Source\PSoC4/BLE_LED_eventHandler.c ****     {
 375:.\Generated_Source\PSoC4/BLE_LED_eventHandler.c ****         gattErr = CyBle_ScpssWriteEventHandler(eventParam);
ARM GAS  C:\Users\tiantiaf\AppData\Local\Temp\cc2Xz98j.s 			page 8


 376:.\Generated_Source\PSoC4/BLE_LED_eventHandler.c ****     }
 377:.\Generated_Source\PSoC4/BLE_LED_eventHandler.c **** #endif /* CYBLE_SCPS_SERVER */
 378:.\Generated_Source\PSoC4/BLE_LED_eventHandler.c **** #ifdef CYBLE_TPS_SERVER
 379:.\Generated_Source\PSoC4/BLE_LED_eventHandler.c ****     if(((cyBle_eventHandlerFlag & CYBLE_CALLBACK) != 0u) && (gattErr == CYBLE_GATT_ERR_NONE))
 380:.\Generated_Source\PSoC4/BLE_LED_eventHandler.c ****     {
 381:.\Generated_Source\PSoC4/BLE_LED_eventHandler.c ****         gattErr = CyBle_TpssWriteEventHandler(eventParam);
 382:.\Generated_Source\PSoC4/BLE_LED_eventHandler.c ****     }
 383:.\Generated_Source\PSoC4/BLE_LED_eventHandler.c **** #endif /* CYBLE_TPS_SERVER */
 384:.\Generated_Source\PSoC4/BLE_LED_eventHandler.c **** #ifdef CYBLE_UDS_SERVER
 385:.\Generated_Source\PSoC4/BLE_LED_eventHandler.c ****     if(((cyBle_eventHandlerFlag & CYBLE_CALLBACK) != 0u) && (gattErr == CYBLE_GATT_ERR_NONE))
 386:.\Generated_Source\PSoC4/BLE_LED_eventHandler.c ****     {
 387:.\Generated_Source\PSoC4/BLE_LED_eventHandler.c ****         gattErr = CyBle_UdssWriteEventHandler(eventParam);
 388:.\Generated_Source\PSoC4/BLE_LED_eventHandler.c ****     }
 389:.\Generated_Source\PSoC4/BLE_LED_eventHandler.c **** #endif /* CYBLE_UDS_SERVER */
 390:.\Generated_Source\PSoC4/BLE_LED_eventHandler.c **** #ifdef CYBLE_WPTS_SERVER
 391:.\Generated_Source\PSoC4/BLE_LED_eventHandler.c ****     if(((cyBle_eventHandlerFlag & CYBLE_CALLBACK) != 0u) && (gattErr == CYBLE_GATT_ERR_NONE))
 392:.\Generated_Source\PSoC4/BLE_LED_eventHandler.c ****     {
 393:.\Generated_Source\PSoC4/BLE_LED_eventHandler.c ****         gattErr = CyBle_WptssWriteEventHandler(eventParam);
 394:.\Generated_Source\PSoC4/BLE_LED_eventHandler.c ****     }
 395:.\Generated_Source\PSoC4/BLE_LED_eventHandler.c **** #endif /* CYBLE_WPTS_SERVER */
 396:.\Generated_Source\PSoC4/BLE_LED_eventHandler.c **** #ifdef CYBLE_WSS_SERVER
 397:.\Generated_Source\PSoC4/BLE_LED_eventHandler.c ****     if(((cyBle_eventHandlerFlag & CYBLE_CALLBACK) != 0u) && (gattErr == CYBLE_GATT_ERR_NONE))
 398:.\Generated_Source\PSoC4/BLE_LED_eventHandler.c ****     {
 399:.\Generated_Source\PSoC4/BLE_LED_eventHandler.c ****         gattErr = CyBle_WsssWriteEventHandler(eventParam);
 400:.\Generated_Source\PSoC4/BLE_LED_eventHandler.c ****     }
 401:.\Generated_Source\PSoC4/BLE_LED_eventHandler.c **** #endif /* CYBLE_WSS_SERVER */
 402:.\Generated_Source\PSoC4/BLE_LED_eventHandler.c **** 
 403:.\Generated_Source\PSoC4/BLE_LED_eventHandler.c ****     /* Send response when event was handled by service */
 404:.\Generated_Source\PSoC4/BLE_LED_eventHandler.c ****     if((cyBle_eventHandlerFlag & CYBLE_CALLBACK) == 0u)
 405:.\Generated_Source\PSoC4/BLE_LED_eventHandler.c ****     {
 406:.\Generated_Source\PSoC4/BLE_LED_eventHandler.c ****         if(gattErr != CYBLE_GATT_ERR_NONE)
 407:.\Generated_Source\PSoC4/BLE_LED_eventHandler.c ****         {
 408:.\Generated_Source\PSoC4/BLE_LED_eventHandler.c ****             CYBLE_GATTS_ERR_PARAM_T err_param;
 409:.\Generated_Source\PSoC4/BLE_LED_eventHandler.c ****             
 410:.\Generated_Source\PSoC4/BLE_LED_eventHandler.c ****             err_param.opcode = (uint8) CYBLE_GATT_WRITE_REQ;
 411:.\Generated_Source\PSoC4/BLE_LED_eventHandler.c ****             err_param.attrHandle = eventParam->handleValPair.attrHandle;
 412:.\Generated_Source\PSoC4/BLE_LED_eventHandler.c ****             err_param.errorCode = gattErr;
 413:.\Generated_Source\PSoC4/BLE_LED_eventHandler.c **** 
 414:.\Generated_Source\PSoC4/BLE_LED_eventHandler.c ****             /* Send Error Response */
 415:.\Generated_Source\PSoC4/BLE_LED_eventHandler.c ****             (void)CyBle_GattsErrorRsp(eventParam->connHandle, &err_param);
 416:.\Generated_Source\PSoC4/BLE_LED_eventHandler.c ****         }
 417:.\Generated_Source\PSoC4/BLE_LED_eventHandler.c ****         else
 418:.\Generated_Source\PSoC4/BLE_LED_eventHandler.c ****         {
 419:.\Generated_Source\PSoC4/BLE_LED_eventHandler.c ****             (void)CyBle_GattsWriteRsp(eventParam->connHandle);
 420:.\Generated_Source\PSoC4/BLE_LED_eventHandler.c ****         }
 421:.\Generated_Source\PSoC4/BLE_LED_eventHandler.c ****     }
 422:.\Generated_Source\PSoC4/BLE_LED_eventHandler.c **** }
 423:.\Generated_Source\PSoC4/BLE_LED_eventHandler.c **** 
 424:.\Generated_Source\PSoC4/BLE_LED_eventHandler.c **** 
 425:.\Generated_Source\PSoC4/BLE_LED_eventHandler.c **** /****************************************************************************** 
 426:.\Generated_Source\PSoC4/BLE_LED_eventHandler.c **** * Function Name: CyBle_ValueConfirmation
 427:.\Generated_Source\PSoC4/BLE_LED_eventHandler.c **** ***************************************************************************//**
 428:.\Generated_Source\PSoC4/BLE_LED_eventHandler.c **** * 
 429:.\Generated_Source\PSoC4/BLE_LED_eventHandler.c **** *  Handles the Value Confirmation request event from the BLE stack.
 430:.\Generated_Source\PSoC4/BLE_LED_eventHandler.c **** * 
 431:.\Generated_Source\PSoC4/BLE_LED_eventHandler.c **** *  \param eventParam: Pointer to a structure of type 'CYBLE_CONN_HANDLE_T'
 432:.\Generated_Source\PSoC4/BLE_LED_eventHandler.c **** * 
ARM GAS  C:\Users\tiantiaf\AppData\Local\Temp\cc2Xz98j.s 			page 9


 433:.\Generated_Source\PSoC4/BLE_LED_eventHandler.c **** * \return
 434:.\Generated_Source\PSoC4/BLE_LED_eventHandler.c **** *  None
 435:.\Generated_Source\PSoC4/BLE_LED_eventHandler.c **** * 
 436:.\Generated_Source\PSoC4/BLE_LED_eventHandler.c **** ******************************************************************************/
 437:.\Generated_Source\PSoC4/BLE_LED_eventHandler.c **** static void CyBle_ValueConfirmation(const CYBLE_CONN_HANDLE_T *eventParam)
 438:.\Generated_Source\PSoC4/BLE_LED_eventHandler.c **** {
 439:.\Generated_Source\PSoC4/BLE_LED_eventHandler.c ****     if(eventParam != NULL)
 440:.\Generated_Source\PSoC4/BLE_LED_eventHandler.c ****     {
 441:.\Generated_Source\PSoC4/BLE_LED_eventHandler.c ****     #ifdef CYBLE_BCS_SERVER
 442:.\Generated_Source\PSoC4/BLE_LED_eventHandler.c ****         CyBle_BcssConfirmationEventHandler(eventParam);
 443:.\Generated_Source\PSoC4/BLE_LED_eventHandler.c ****     #endif /* CYBLE_BCS_SERVER */
 444:.\Generated_Source\PSoC4/BLE_LED_eventHandler.c ****     #ifdef CYBLE_BLS_SERVER
 445:.\Generated_Source\PSoC4/BLE_LED_eventHandler.c ****         if((cyBle_eventHandlerFlag & CYBLE_CALLBACK) != 0u)
 446:.\Generated_Source\PSoC4/BLE_LED_eventHandler.c ****         {
 447:.\Generated_Source\PSoC4/BLE_LED_eventHandler.c ****             CyBle_BlssConfirmationEventHandler(eventParam);
 448:.\Generated_Source\PSoC4/BLE_LED_eventHandler.c ****         }
 449:.\Generated_Source\PSoC4/BLE_LED_eventHandler.c ****     #endif /* CYBLE_BLS_SERVER */
 450:.\Generated_Source\PSoC4/BLE_LED_eventHandler.c ****     
 451:.\Generated_Source\PSoC4/BLE_LED_eventHandler.c ****     #ifdef CYBLE_CGMS_SERVER
 452:.\Generated_Source\PSoC4/BLE_LED_eventHandler.c ****         if((cyBle_eventHandlerFlag & CYBLE_CALLBACK) != 0u)
 453:.\Generated_Source\PSoC4/BLE_LED_eventHandler.c ****         {
 454:.\Generated_Source\PSoC4/BLE_LED_eventHandler.c ****             CyBle_CgmssConfirmationEventHandler(eventParam);
 455:.\Generated_Source\PSoC4/BLE_LED_eventHandler.c ****         }
 456:.\Generated_Source\PSoC4/BLE_LED_eventHandler.c ****     #endif /* CYBLE_CGMS_SERVER */
 457:.\Generated_Source\PSoC4/BLE_LED_eventHandler.c ****     
 458:.\Generated_Source\PSoC4/BLE_LED_eventHandler.c ****     #ifdef CYBLE_CPS_SERVER
 459:.\Generated_Source\PSoC4/BLE_LED_eventHandler.c ****         if((cyBle_eventHandlerFlag & CYBLE_CALLBACK) != 0u)
 460:.\Generated_Source\PSoC4/BLE_LED_eventHandler.c ****         {
 461:.\Generated_Source\PSoC4/BLE_LED_eventHandler.c ****             CyBle_CpssConfirmationEventHandler(eventParam);
 462:.\Generated_Source\PSoC4/BLE_LED_eventHandler.c ****         }
 463:.\Generated_Source\PSoC4/BLE_LED_eventHandler.c ****     #endif /* CYBLE_CPS_SERVER */
 464:.\Generated_Source\PSoC4/BLE_LED_eventHandler.c ****     
 465:.\Generated_Source\PSoC4/BLE_LED_eventHandler.c ****     #ifdef CYBLE_CSCS_SERVER
 466:.\Generated_Source\PSoC4/BLE_LED_eventHandler.c ****         if((cyBle_eventHandlerFlag & CYBLE_CALLBACK) != 0u)
 467:.\Generated_Source\PSoC4/BLE_LED_eventHandler.c ****         {
 468:.\Generated_Source\PSoC4/BLE_LED_eventHandler.c ****             CyBle_CscssConfirmationEventHandler(eventParam);
 469:.\Generated_Source\PSoC4/BLE_LED_eventHandler.c ****         }
 470:.\Generated_Source\PSoC4/BLE_LED_eventHandler.c ****     #endif /* CYBLE_CSCS_SERVER */
 471:.\Generated_Source\PSoC4/BLE_LED_eventHandler.c ****     
 472:.\Generated_Source\PSoC4/BLE_LED_eventHandler.c ****     #ifdef CYBLE_ESS_SERVER
 473:.\Generated_Source\PSoC4/BLE_LED_eventHandler.c ****         if((cyBle_eventHandlerFlag & CYBLE_CALLBACK) != 0u)
 474:.\Generated_Source\PSoC4/BLE_LED_eventHandler.c ****         {
 475:.\Generated_Source\PSoC4/BLE_LED_eventHandler.c ****             CyBle_EsssConfirmationEventHandler(eventParam);
 476:.\Generated_Source\PSoC4/BLE_LED_eventHandler.c ****         }
 477:.\Generated_Source\PSoC4/BLE_LED_eventHandler.c ****     #endif /* CYBLE_ESS_SERVER */
 478:.\Generated_Source\PSoC4/BLE_LED_eventHandler.c ****     
 479:.\Generated_Source\PSoC4/BLE_LED_eventHandler.c ****     #ifdef CYBLE_GLS_SERVER
 480:.\Generated_Source\PSoC4/BLE_LED_eventHandler.c ****         if((cyBle_eventHandlerFlag & CYBLE_CALLBACK) != 0u)
 481:.\Generated_Source\PSoC4/BLE_LED_eventHandler.c ****         {
 482:.\Generated_Source\PSoC4/BLE_LED_eventHandler.c ****             CyBle_GlssConfirmationEventHandler(eventParam);
 483:.\Generated_Source\PSoC4/BLE_LED_eventHandler.c ****         }
 484:.\Generated_Source\PSoC4/BLE_LED_eventHandler.c ****     #endif /* CYBLE_GLS_SERVER */
 485:.\Generated_Source\PSoC4/BLE_LED_eventHandler.c ****     
 486:.\Generated_Source\PSoC4/BLE_LED_eventHandler.c ****     #ifdef CYBLE_HTS_SERVER
 487:.\Generated_Source\PSoC4/BLE_LED_eventHandler.c ****         if((cyBle_eventHandlerFlag & CYBLE_CALLBACK) != 0u)
 488:.\Generated_Source\PSoC4/BLE_LED_eventHandler.c ****         {
 489:.\Generated_Source\PSoC4/BLE_LED_eventHandler.c ****             CyBle_HtssConfirmationEventHandler(eventParam);
ARM GAS  C:\Users\tiantiaf\AppData\Local\Temp\cc2Xz98j.s 			page 10


 490:.\Generated_Source\PSoC4/BLE_LED_eventHandler.c ****         }
 491:.\Generated_Source\PSoC4/BLE_LED_eventHandler.c ****     #endif /* CYBLE_HTS_SERVER */
 492:.\Generated_Source\PSoC4/BLE_LED_eventHandler.c **** 
 493:.\Generated_Source\PSoC4/BLE_LED_eventHandler.c ****     #ifdef CYBLE_LNS_SERVER
 494:.\Generated_Source\PSoC4/BLE_LED_eventHandler.c ****         if((cyBle_eventHandlerFlag & CYBLE_CALLBACK) != 0u)
 495:.\Generated_Source\PSoC4/BLE_LED_eventHandler.c ****         {
 496:.\Generated_Source\PSoC4/BLE_LED_eventHandler.c ****             CyBle_LnssConfirmationEventHandler(eventParam);
 497:.\Generated_Source\PSoC4/BLE_LED_eventHandler.c ****         }
 498:.\Generated_Source\PSoC4/BLE_LED_eventHandler.c ****     #endif /* CYBLE_LNS_SERVER */
 499:.\Generated_Source\PSoC4/BLE_LED_eventHandler.c ****     
 500:.\Generated_Source\PSoC4/BLE_LED_eventHandler.c ****     #ifdef CYBLE_RSCS_SERVER
 501:.\Generated_Source\PSoC4/BLE_LED_eventHandler.c ****         if((cyBle_eventHandlerFlag & CYBLE_CALLBACK) != 0u)
 502:.\Generated_Source\PSoC4/BLE_LED_eventHandler.c ****         {
 503:.\Generated_Source\PSoC4/BLE_LED_eventHandler.c ****             CyBle_RscssConfirmationEventHandler(eventParam);
 504:.\Generated_Source\PSoC4/BLE_LED_eventHandler.c ****         }
 505:.\Generated_Source\PSoC4/BLE_LED_eventHandler.c ****     #endif /* CYBLE_RSCS_SERVER */
 506:.\Generated_Source\PSoC4/BLE_LED_eventHandler.c ****     
 507:.\Generated_Source\PSoC4/BLE_LED_eventHandler.c ****     #ifdef CYBLE_UDS_SERVER
 508:.\Generated_Source\PSoC4/BLE_LED_eventHandler.c ****         if((cyBle_eventHandlerFlag & CYBLE_CALLBACK) != 0u)
 509:.\Generated_Source\PSoC4/BLE_LED_eventHandler.c ****         {
 510:.\Generated_Source\PSoC4/BLE_LED_eventHandler.c ****             CyBle_UdssConfirmationEventHandler(eventParam);
 511:.\Generated_Source\PSoC4/BLE_LED_eventHandler.c ****         }
 512:.\Generated_Source\PSoC4/BLE_LED_eventHandler.c ****     #endif /* CYBLE_UDS_SERVER */
 513:.\Generated_Source\PSoC4/BLE_LED_eventHandler.c ****     
 514:.\Generated_Source\PSoC4/BLE_LED_eventHandler.c ****     #ifdef CYBLE_WPTS_SERVER
 515:.\Generated_Source\PSoC4/BLE_LED_eventHandler.c ****         if((cyBle_eventHandlerFlag & CYBLE_CALLBACK) != 0u)
 516:.\Generated_Source\PSoC4/BLE_LED_eventHandler.c ****         {
 517:.\Generated_Source\PSoC4/BLE_LED_eventHandler.c ****             CyBle_WptssConfirmationEventHandler(eventParam);
 518:.\Generated_Source\PSoC4/BLE_LED_eventHandler.c ****         }
 519:.\Generated_Source\PSoC4/BLE_LED_eventHandler.c ****     #endif /* CYBLE_WPTS_SERVER */
 520:.\Generated_Source\PSoC4/BLE_LED_eventHandler.c ****     
 521:.\Generated_Source\PSoC4/BLE_LED_eventHandler.c ****     #ifdef CYBLE_WSS_SERVER
 522:.\Generated_Source\PSoC4/BLE_LED_eventHandler.c ****         if((cyBle_eventHandlerFlag & CYBLE_CALLBACK) != 0u)
 523:.\Generated_Source\PSoC4/BLE_LED_eventHandler.c ****         {
 524:.\Generated_Source\PSoC4/BLE_LED_eventHandler.c ****             CyBle_WsssConfirmationEventHandler(eventParam);
 525:.\Generated_Source\PSoC4/BLE_LED_eventHandler.c ****         }
 526:.\Generated_Source\PSoC4/BLE_LED_eventHandler.c ****     #endif /* CYBLE_WSS_SERVER */
 527:.\Generated_Source\PSoC4/BLE_LED_eventHandler.c ****     }
 528:.\Generated_Source\PSoC4/BLE_LED_eventHandler.c **** }
 529:.\Generated_Source\PSoC4/BLE_LED_eventHandler.c **** 
 530:.\Generated_Source\PSoC4/BLE_LED_eventHandler.c **** #endif /* CYBLE_GATT_ROLE_SERVER */
 531:.\Generated_Source\PSoC4/BLE_LED_eventHandler.c **** 
 532:.\Generated_Source\PSoC4/BLE_LED_eventHandler.c **** 
 533:.\Generated_Source\PSoC4/BLE_LED_eventHandler.c **** #if (CYBLE_GATT_ROLE_CLIENT)
 534:.\Generated_Source\PSoC4/BLE_LED_eventHandler.c **** 
 535:.\Generated_Source\PSoC4/BLE_LED_eventHandler.c **** /****************************************************************************** 
 536:.\Generated_Source\PSoC4/BLE_LED_eventHandler.c **** * Function Name: CyBle_GattcWriteResponseEventHandler
 537:.\Generated_Source\PSoC4/BLE_LED_eventHandler.c **** ***************************************************************************//**
 538:.\Generated_Source\PSoC4/BLE_LED_eventHandler.c **** * 
 539:.\Generated_Source\PSoC4/BLE_LED_eventHandler.c **** *  Handles the Write response event from the BLE stack.
 540:.\Generated_Source\PSoC4/BLE_LED_eventHandler.c **** * 
 541:.\Generated_Source\PSoC4/BLE_LED_eventHandler.c **** *  \param eventParam: Pointer to a structure of type 'CYBLE_CONN_HANDLE_T'
 542:.\Generated_Source\PSoC4/BLE_LED_eventHandler.c **** * 
 543:.\Generated_Source\PSoC4/BLE_LED_eventHandler.c **** * \return
 544:.\Generated_Source\PSoC4/BLE_LED_eventHandler.c **** *  None
 545:.\Generated_Source\PSoC4/BLE_LED_eventHandler.c **** * 
 546:.\Generated_Source\PSoC4/BLE_LED_eventHandler.c **** ******************************************************************************/
ARM GAS  C:\Users\tiantiaf\AppData\Local\Temp\cc2Xz98j.s 			page 11


 547:.\Generated_Source\PSoC4/BLE_LED_eventHandler.c **** static void CyBle_GattcWriteResponseEventHandler(const CYBLE_CONN_HANDLE_T *eventParam)
 548:.\Generated_Source\PSoC4/BLE_LED_eventHandler.c **** {
 549:.\Generated_Source\PSoC4/BLE_LED_eventHandler.c **** #ifdef CYBLE_ANCS_CLIENT
 550:.\Generated_Source\PSoC4/BLE_LED_eventHandler.c ****     CyBle_AncscWriteResponseEventHandler(eventParam);
 551:.\Generated_Source\PSoC4/BLE_LED_eventHandler.c **** #endif /* CYBLE_ANCS_CLIENT */
 552:.\Generated_Source\PSoC4/BLE_LED_eventHandler.c **** 
 553:.\Generated_Source\PSoC4/BLE_LED_eventHandler.c **** #ifdef CYBLE_ANS_CLIENT
 554:.\Generated_Source\PSoC4/BLE_LED_eventHandler.c ****     if((cyBle_eventHandlerFlag & CYBLE_CALLBACK) != 0u)
 555:.\Generated_Source\PSoC4/BLE_LED_eventHandler.c ****     {
 556:.\Generated_Source\PSoC4/BLE_LED_eventHandler.c ****         CyBle_AnscWriteResponseEventHandler(eventParam);
 557:.\Generated_Source\PSoC4/BLE_LED_eventHandler.c ****     }
 558:.\Generated_Source\PSoC4/BLE_LED_eventHandler.c **** #endif /* CYBLE_ANS_CLIENT */
 559:.\Generated_Source\PSoC4/BLE_LED_eventHandler.c **** 
 560:.\Generated_Source\PSoC4/BLE_LED_eventHandler.c **** #ifdef CYBLE_BAS_CLIENT
 561:.\Generated_Source\PSoC4/BLE_LED_eventHandler.c ****     if((cyBle_eventHandlerFlag & CYBLE_CALLBACK) != 0u)
 562:.\Generated_Source\PSoC4/BLE_LED_eventHandler.c ****     {
 563:.\Generated_Source\PSoC4/BLE_LED_eventHandler.c ****         CyBle_BascWriteResponseEventHandler(eventParam);
 564:.\Generated_Source\PSoC4/BLE_LED_eventHandler.c ****     }
 565:.\Generated_Source\PSoC4/BLE_LED_eventHandler.c **** #endif /* CYBLE_BAS_CLIENT */
 566:.\Generated_Source\PSoC4/BLE_LED_eventHandler.c **** 
 567:.\Generated_Source\PSoC4/BLE_LED_eventHandler.c **** #ifdef CYBLE_BCS_CLIENT
 568:.\Generated_Source\PSoC4/BLE_LED_eventHandler.c ****     if((cyBle_eventHandlerFlag & CYBLE_CALLBACK) != 0u)
 569:.\Generated_Source\PSoC4/BLE_LED_eventHandler.c ****     {
 570:.\Generated_Source\PSoC4/BLE_LED_eventHandler.c ****         CyBle_BcscWriteResponseEventHandler(eventParam);
 571:.\Generated_Source\PSoC4/BLE_LED_eventHandler.c ****     }
 572:.\Generated_Source\PSoC4/BLE_LED_eventHandler.c **** #endif /* CYBLE_BCS_CLIENT */
 573:.\Generated_Source\PSoC4/BLE_LED_eventHandler.c **** 
 574:.\Generated_Source\PSoC4/BLE_LED_eventHandler.c **** #ifdef CYBLE_BLS_CLIENT
 575:.\Generated_Source\PSoC4/BLE_LED_eventHandler.c ****     if((cyBle_eventHandlerFlag & CYBLE_CALLBACK) != 0u)
 576:.\Generated_Source\PSoC4/BLE_LED_eventHandler.c ****     {
 577:.\Generated_Source\PSoC4/BLE_LED_eventHandler.c ****         CyBle_BlscWriteResponseEventHandler(eventParam);
 578:.\Generated_Source\PSoC4/BLE_LED_eventHandler.c ****     }
 579:.\Generated_Source\PSoC4/BLE_LED_eventHandler.c **** #endif /* CYBLE_BLS_CLIENT */
 580:.\Generated_Source\PSoC4/BLE_LED_eventHandler.c **** 
 581:.\Generated_Source\PSoC4/BLE_LED_eventHandler.c **** #ifdef CYBLE_BMS_CLIENT
 582:.\Generated_Source\PSoC4/BLE_LED_eventHandler.c ****     if((cyBle_eventHandlerFlag & CYBLE_CALLBACK) != 0u)
 583:.\Generated_Source\PSoC4/BLE_LED_eventHandler.c ****     {
 584:.\Generated_Source\PSoC4/BLE_LED_eventHandler.c ****         CyBle_BmscWriteResponseEventHandler(eventParam);
 585:.\Generated_Source\PSoC4/BLE_LED_eventHandler.c ****     }
 586:.\Generated_Source\PSoC4/BLE_LED_eventHandler.c **** #endif /* CYBLE_BMS_CLIENT */
 587:.\Generated_Source\PSoC4/BLE_LED_eventHandler.c **** 
 588:.\Generated_Source\PSoC4/BLE_LED_eventHandler.c **** #ifdef CYBLE_CGMS_CLIENT
 589:.\Generated_Source\PSoC4/BLE_LED_eventHandler.c ****     if((cyBle_eventHandlerFlag & CYBLE_CALLBACK) != 0u)
 590:.\Generated_Source\PSoC4/BLE_LED_eventHandler.c ****     {
 591:.\Generated_Source\PSoC4/BLE_LED_eventHandler.c ****         CyBle_CgmscWriteResponseEventHandler(eventParam);
 592:.\Generated_Source\PSoC4/BLE_LED_eventHandler.c ****     }
 593:.\Generated_Source\PSoC4/BLE_LED_eventHandler.c **** #endif /* CYBLE_CGMS_CLIENT */
 594:.\Generated_Source\PSoC4/BLE_LED_eventHandler.c **** 
 595:.\Generated_Source\PSoC4/BLE_LED_eventHandler.c **** #ifdef CYBLE_CPS_CLIENT
 596:.\Generated_Source\PSoC4/BLE_LED_eventHandler.c ****     if((cyBle_eventHandlerFlag & CYBLE_CALLBACK) != 0u)
 597:.\Generated_Source\PSoC4/BLE_LED_eventHandler.c ****     {
 598:.\Generated_Source\PSoC4/BLE_LED_eventHandler.c ****         CyBle_CpscWriteResponseEventHandler(eventParam);
 599:.\Generated_Source\PSoC4/BLE_LED_eventHandler.c ****     }
 600:.\Generated_Source\PSoC4/BLE_LED_eventHandler.c **** #endif /* CYBLE_CPS_CLIENT */
 601:.\Generated_Source\PSoC4/BLE_LED_eventHandler.c **** 
 602:.\Generated_Source\PSoC4/BLE_LED_eventHandler.c **** #ifdef CYBLE_CSCS_CLIENT
 603:.\Generated_Source\PSoC4/BLE_LED_eventHandler.c ****     if((cyBle_eventHandlerFlag & CYBLE_CALLBACK) != 0u)
ARM GAS  C:\Users\tiantiaf\AppData\Local\Temp\cc2Xz98j.s 			page 12


 604:.\Generated_Source\PSoC4/BLE_LED_eventHandler.c ****     {
 605:.\Generated_Source\PSoC4/BLE_LED_eventHandler.c ****         CyBle_CscscWriteResponseEventHandler(eventParam);
 606:.\Generated_Source\PSoC4/BLE_LED_eventHandler.c ****     }
 607:.\Generated_Source\PSoC4/BLE_LED_eventHandler.c **** #endif /* CYBLE_CSCS_CLIENT */
 608:.\Generated_Source\PSoC4/BLE_LED_eventHandler.c **** 
 609:.\Generated_Source\PSoC4/BLE_LED_eventHandler.c **** #ifdef CYBLE_CTS_CLIENT
 610:.\Generated_Source\PSoC4/BLE_LED_eventHandler.c ****     if((cyBle_eventHandlerFlag & CYBLE_CALLBACK) != 0u)
 611:.\Generated_Source\PSoC4/BLE_LED_eventHandler.c ****     {
 612:.\Generated_Source\PSoC4/BLE_LED_eventHandler.c ****         CyBle_CtscWriteResponseEventHandler(eventParam);
 613:.\Generated_Source\PSoC4/BLE_LED_eventHandler.c ****     }
 614:.\Generated_Source\PSoC4/BLE_LED_eventHandler.c **** #endif /* CYBLE_CTS_CLIENT */
 615:.\Generated_Source\PSoC4/BLE_LED_eventHandler.c **** 
 616:.\Generated_Source\PSoC4/BLE_LED_eventHandler.c **** #ifdef CYBLE_ESS_CLIENT
 617:.\Generated_Source\PSoC4/BLE_LED_eventHandler.c ****     if((cyBle_eventHandlerFlag & CYBLE_CALLBACK) != 0u)
 618:.\Generated_Source\PSoC4/BLE_LED_eventHandler.c ****     {
 619:.\Generated_Source\PSoC4/BLE_LED_eventHandler.c ****         CyBle_EsscWriteResponseEventHandler(eventParam);
 620:.\Generated_Source\PSoC4/BLE_LED_eventHandler.c ****     }
 621:.\Generated_Source\PSoC4/BLE_LED_eventHandler.c **** #endif /* CYBLE_ESS_CLIENT */
 622:.\Generated_Source\PSoC4/BLE_LED_eventHandler.c **** 
 623:.\Generated_Source\PSoC4/BLE_LED_eventHandler.c **** #ifdef CYBLE_GLS_CLIENT
 624:.\Generated_Source\PSoC4/BLE_LED_eventHandler.c ****     if((cyBle_eventHandlerFlag & CYBLE_CALLBACK) != 0u)
 625:.\Generated_Source\PSoC4/BLE_LED_eventHandler.c ****     {
 626:.\Generated_Source\PSoC4/BLE_LED_eventHandler.c ****         CyBle_GlscWriteResponseEventHandler(eventParam);
 627:.\Generated_Source\PSoC4/BLE_LED_eventHandler.c ****     }
 628:.\Generated_Source\PSoC4/BLE_LED_eventHandler.c **** #endif /* CYBLE_GLS_CLIENT */
 629:.\Generated_Source\PSoC4/BLE_LED_eventHandler.c **** 
 630:.\Generated_Source\PSoC4/BLE_LED_eventHandler.c **** #ifdef CYBLE_HIDS_CLIENT
 631:.\Generated_Source\PSoC4/BLE_LED_eventHandler.c ****     if((cyBle_eventHandlerFlag & CYBLE_CALLBACK) != 0u)
 632:.\Generated_Source\PSoC4/BLE_LED_eventHandler.c ****     {
 633:.\Generated_Source\PSoC4/BLE_LED_eventHandler.c ****         CyBle_HidscWriteResponseEventHandler(eventParam);
 634:.\Generated_Source\PSoC4/BLE_LED_eventHandler.c ****     }
 635:.\Generated_Source\PSoC4/BLE_LED_eventHandler.c **** #endif /* CYBLE_HIDS_CLIENT */
 636:.\Generated_Source\PSoC4/BLE_LED_eventHandler.c **** 
 637:.\Generated_Source\PSoC4/BLE_LED_eventHandler.c **** #ifdef CYBLE_HPS_CLIENT
 638:.\Generated_Source\PSoC4/BLE_LED_eventHandler.c ****     if((cyBle_eventHandlerFlag & CYBLE_CALLBACK) != 0u)
 639:.\Generated_Source\PSoC4/BLE_LED_eventHandler.c ****     {
 640:.\Generated_Source\PSoC4/BLE_LED_eventHandler.c ****         CyBle_HpscWriteResponseEventHandler(eventParam);
 641:.\Generated_Source\PSoC4/BLE_LED_eventHandler.c ****     }
 642:.\Generated_Source\PSoC4/BLE_LED_eventHandler.c **** #endif /* CYBLE_HPS_CLIENT */
 643:.\Generated_Source\PSoC4/BLE_LED_eventHandler.c **** 
 644:.\Generated_Source\PSoC4/BLE_LED_eventHandler.c **** #ifdef CYBLE_HRS_CLIENT
 645:.\Generated_Source\PSoC4/BLE_LED_eventHandler.c ****     if((cyBle_eventHandlerFlag & CYBLE_CALLBACK) != 0u)
 646:.\Generated_Source\PSoC4/BLE_LED_eventHandler.c ****     {
 647:.\Generated_Source\PSoC4/BLE_LED_eventHandler.c ****         CyBle_HrscWriteResponseEventHandler(eventParam);
 648:.\Generated_Source\PSoC4/BLE_LED_eventHandler.c ****     }
 649:.\Generated_Source\PSoC4/BLE_LED_eventHandler.c **** #endif /* CYBLE_HRS_CLIENT */
 650:.\Generated_Source\PSoC4/BLE_LED_eventHandler.c **** 
 651:.\Generated_Source\PSoC4/BLE_LED_eventHandler.c **** #ifdef CYBLE_HTS_CLIENT
 652:.\Generated_Source\PSoC4/BLE_LED_eventHandler.c ****     if((cyBle_eventHandlerFlag & CYBLE_CALLBACK) != 0u)
 653:.\Generated_Source\PSoC4/BLE_LED_eventHandler.c ****     {
 654:.\Generated_Source\PSoC4/BLE_LED_eventHandler.c ****         CyBle_HtscWriteResponseEventHandler(eventParam);
 655:.\Generated_Source\PSoC4/BLE_LED_eventHandler.c ****     }
 656:.\Generated_Source\PSoC4/BLE_LED_eventHandler.c **** #endif /* CYBLE_HTS_CLIENT */
 657:.\Generated_Source\PSoC4/BLE_LED_eventHandler.c **** 
 658:.\Generated_Source\PSoC4/BLE_LED_eventHandler.c **** #ifdef CYBLE_IPS_CLIENT
 659:.\Generated_Source\PSoC4/BLE_LED_eventHandler.c ****     if((cyBle_eventHandlerFlag & CYBLE_CALLBACK) != 0u)
 660:.\Generated_Source\PSoC4/BLE_LED_eventHandler.c ****     {
ARM GAS  C:\Users\tiantiaf\AppData\Local\Temp\cc2Xz98j.s 			page 13


 661:.\Generated_Source\PSoC4/BLE_LED_eventHandler.c ****         CyBle_IpscWriteResponseEventHandler(eventParam);
 662:.\Generated_Source\PSoC4/BLE_LED_eventHandler.c ****     }
 663:.\Generated_Source\PSoC4/BLE_LED_eventHandler.c **** #endif /* CYBLE_IPS_CLIENT */
 664:.\Generated_Source\PSoC4/BLE_LED_eventHandler.c **** 
 665:.\Generated_Source\PSoC4/BLE_LED_eventHandler.c **** #ifdef CYBLE_LLS_CLIENT
 666:.\Generated_Source\PSoC4/BLE_LED_eventHandler.c ****     if((cyBle_eventHandlerFlag & CYBLE_CALLBACK) != 0u)
 667:.\Generated_Source\PSoC4/BLE_LED_eventHandler.c ****     {
 668:.\Generated_Source\PSoC4/BLE_LED_eventHandler.c ****         CyBle_LlscWriteResponseEventHandler(eventParam);
 669:.\Generated_Source\PSoC4/BLE_LED_eventHandler.c ****     }
 670:.\Generated_Source\PSoC4/BLE_LED_eventHandler.c **** #endif /* CYBLE_LLS_CLIENT */
 671:.\Generated_Source\PSoC4/BLE_LED_eventHandler.c **** 
 672:.\Generated_Source\PSoC4/BLE_LED_eventHandler.c **** #ifdef CYBLE_LNS_CLIENT
 673:.\Generated_Source\PSoC4/BLE_LED_eventHandler.c ****     if((cyBle_eventHandlerFlag & CYBLE_CALLBACK) != 0u)
 674:.\Generated_Source\PSoC4/BLE_LED_eventHandler.c ****     {
 675:.\Generated_Source\PSoC4/BLE_LED_eventHandler.c ****         CyBle_LnscWriteResponseEventHandler(eventParam);
 676:.\Generated_Source\PSoC4/BLE_LED_eventHandler.c ****     }
 677:.\Generated_Source\PSoC4/BLE_LED_eventHandler.c **** #endif /* CYBLE_LNS_CLIENT */
 678:.\Generated_Source\PSoC4/BLE_LED_eventHandler.c **** 
 679:.\Generated_Source\PSoC4/BLE_LED_eventHandler.c **** #ifdef CYBLE_PASS_CLIENT
 680:.\Generated_Source\PSoC4/BLE_LED_eventHandler.c ****     if((cyBle_eventHandlerFlag & CYBLE_CALLBACK) != 0u)
 681:.\Generated_Source\PSoC4/BLE_LED_eventHandler.c ****     {
 682:.\Generated_Source\PSoC4/BLE_LED_eventHandler.c ****         CyBle_PasscWriteResponseEventHandler(eventParam);
 683:.\Generated_Source\PSoC4/BLE_LED_eventHandler.c ****     }
 684:.\Generated_Source\PSoC4/BLE_LED_eventHandler.c **** #endif /* CYBLE_PASS_CLIENT */
 685:.\Generated_Source\PSoC4/BLE_LED_eventHandler.c **** 
 686:.\Generated_Source\PSoC4/BLE_LED_eventHandler.c **** #ifdef CYBLE_RSCS_CLIENT
 687:.\Generated_Source\PSoC4/BLE_LED_eventHandler.c ****     if((cyBle_eventHandlerFlag & CYBLE_CALLBACK) != 0u)
 688:.\Generated_Source\PSoC4/BLE_LED_eventHandler.c ****     {
 689:.\Generated_Source\PSoC4/BLE_LED_eventHandler.c ****         CyBle_RscscWriteResponseEventHandler(eventParam);
 690:.\Generated_Source\PSoC4/BLE_LED_eventHandler.c ****     }
 691:.\Generated_Source\PSoC4/BLE_LED_eventHandler.c **** #endif /* CYBLE_RSCS_CLIENT */
 692:.\Generated_Source\PSoC4/BLE_LED_eventHandler.c **** 
 693:.\Generated_Source\PSoC4/BLE_LED_eventHandler.c **** #ifdef CYBLE_SCPS_CLIENT
 694:.\Generated_Source\PSoC4/BLE_LED_eventHandler.c ****     if((cyBle_eventHandlerFlag & CYBLE_CALLBACK) != 0u)
 695:.\Generated_Source\PSoC4/BLE_LED_eventHandler.c ****     {
 696:.\Generated_Source\PSoC4/BLE_LED_eventHandler.c ****         CyBle_ScpscWriteResponseEventHandler(eventParam);
 697:.\Generated_Source\PSoC4/BLE_LED_eventHandler.c ****     }
 698:.\Generated_Source\PSoC4/BLE_LED_eventHandler.c **** #endif /* CYBLE_SCPS_CLIENT */
 699:.\Generated_Source\PSoC4/BLE_LED_eventHandler.c **** 
 700:.\Generated_Source\PSoC4/BLE_LED_eventHandler.c **** #ifdef CYBLE_TPS_CLIENT
 701:.\Generated_Source\PSoC4/BLE_LED_eventHandler.c ****     if((cyBle_eventHandlerFlag & CYBLE_CALLBACK) != 0u)
 702:.\Generated_Source\PSoC4/BLE_LED_eventHandler.c ****     {
 703:.\Generated_Source\PSoC4/BLE_LED_eventHandler.c ****         CyBle_TpscWriteResponseEventHandler(eventParam);
 704:.\Generated_Source\PSoC4/BLE_LED_eventHandler.c ****     }
 705:.\Generated_Source\PSoC4/BLE_LED_eventHandler.c **** #endif /* CYBLE_TPS_CLIENT */
 706:.\Generated_Source\PSoC4/BLE_LED_eventHandler.c **** 
 707:.\Generated_Source\PSoC4/BLE_LED_eventHandler.c **** #ifdef CYBLE_UDS_CLIENT
 708:.\Generated_Source\PSoC4/BLE_LED_eventHandler.c ****     if((cyBle_eventHandlerFlag & CYBLE_CALLBACK) != 0u)
 709:.\Generated_Source\PSoC4/BLE_LED_eventHandler.c ****     {
 710:.\Generated_Source\PSoC4/BLE_LED_eventHandler.c ****         CyBle_UdscWriteResponseEventHandler(eventParam);
 711:.\Generated_Source\PSoC4/BLE_LED_eventHandler.c ****     }
 712:.\Generated_Source\PSoC4/BLE_LED_eventHandler.c **** #endif /* CYBLE_UDS_CLIENT */
 713:.\Generated_Source\PSoC4/BLE_LED_eventHandler.c **** #ifdef CYBLE_WPTS_CLIENT
 714:.\Generated_Source\PSoC4/BLE_LED_eventHandler.c ****     if((cyBle_eventHandlerFlag & CYBLE_CALLBACK) != 0u)
 715:.\Generated_Source\PSoC4/BLE_LED_eventHandler.c ****     {
 716:.\Generated_Source\PSoC4/BLE_LED_eventHandler.c ****         CyBle_WptscWriteResponseEventHandler(eventParam);
 717:.\Generated_Source\PSoC4/BLE_LED_eventHandler.c ****     }
ARM GAS  C:\Users\tiantiaf\AppData\Local\Temp\cc2Xz98j.s 			page 14


 718:.\Generated_Source\PSoC4/BLE_LED_eventHandler.c **** #endif /* CYBLE_WPTS_CLIENT */
 719:.\Generated_Source\PSoC4/BLE_LED_eventHandler.c **** #ifdef CYBLE_WSS_CLIENT
 720:.\Generated_Source\PSoC4/BLE_LED_eventHandler.c ****     if((cyBle_eventHandlerFlag & CYBLE_CALLBACK) != 0u)
 721:.\Generated_Source\PSoC4/BLE_LED_eventHandler.c ****     {
 722:.\Generated_Source\PSoC4/BLE_LED_eventHandler.c ****         CyBle_WsscWriteResponseEventHandler(eventParam);
 723:.\Generated_Source\PSoC4/BLE_LED_eventHandler.c ****     }
 724:.\Generated_Source\PSoC4/BLE_LED_eventHandler.c **** #endif /* CYBLE_WSS_CLIENT */
 725:.\Generated_Source\PSoC4/BLE_LED_eventHandler.c **** }
 726:.\Generated_Source\PSoC4/BLE_LED_eventHandler.c **** 
 727:.\Generated_Source\PSoC4/BLE_LED_eventHandler.c **** 
 728:.\Generated_Source\PSoC4/BLE_LED_eventHandler.c **** /******************************************************************************    
 729:.\Generated_Source\PSoC4/BLE_LED_eventHandler.c **** * Function Name: CyBle_NotificationEventHandler
 730:.\Generated_Source\PSoC4/BLE_LED_eventHandler.c **** ***************************************************************************//**
 731:.\Generated_Source\PSoC4/BLE_LED_eventHandler.c **** * 
 732:.\Generated_Source\PSoC4/BLE_LED_eventHandler.c **** *  Handles the Notification event from BLE stack.
 733:.\Generated_Source\PSoC4/BLE_LED_eventHandler.c **** * 
 734:.\Generated_Source\PSoC4/BLE_LED_eventHandler.c **** *  \param eventParam: event parameter
 735:.\Generated_Source\PSoC4/BLE_LED_eventHandler.c **** * 
 736:.\Generated_Source\PSoC4/BLE_LED_eventHandler.c **** * \return
 737:.\Generated_Source\PSoC4/BLE_LED_eventHandler.c **** *  None
 738:.\Generated_Source\PSoC4/BLE_LED_eventHandler.c **** * 
 739:.\Generated_Source\PSoC4/BLE_LED_eventHandler.c **** ******************************************************************************/
 740:.\Generated_Source\PSoC4/BLE_LED_eventHandler.c **** static void CyBle_NotificationEventHandler(CYBLE_GATTC_HANDLE_VALUE_NTF_PARAM_T *eventParam)
 741:.\Generated_Source\PSoC4/BLE_LED_eventHandler.c **** {
 742:.\Generated_Source\PSoC4/BLE_LED_eventHandler.c **** #ifdef CYBLE_ANCS_CLIENT
 743:.\Generated_Source\PSoC4/BLE_LED_eventHandler.c ****     CyBle_AncscNotificationEventHandler(eventParam);
 744:.\Generated_Source\PSoC4/BLE_LED_eventHandler.c **** #endif /* CYBLE_ANCS_CLIENT */
 745:.\Generated_Source\PSoC4/BLE_LED_eventHandler.c **** #ifdef CYBLE_ANS_CLIENT
 746:.\Generated_Source\PSoC4/BLE_LED_eventHandler.c ****     if((cyBle_eventHandlerFlag & CYBLE_CALLBACK) != 0u)
 747:.\Generated_Source\PSoC4/BLE_LED_eventHandler.c ****     {
 748:.\Generated_Source\PSoC4/BLE_LED_eventHandler.c ****         CyBle_AnscNotificationEventHandler(eventParam);
 749:.\Generated_Source\PSoC4/BLE_LED_eventHandler.c ****     }
 750:.\Generated_Source\PSoC4/BLE_LED_eventHandler.c **** #endif /* CYBLE_ANS_CLIENT */
 751:.\Generated_Source\PSoC4/BLE_LED_eventHandler.c **** #ifdef CYBLE_BAS_CLIENT
 752:.\Generated_Source\PSoC4/BLE_LED_eventHandler.c ****     if((cyBle_eventHandlerFlag & CYBLE_CALLBACK) != 0u)
 753:.\Generated_Source\PSoC4/BLE_LED_eventHandler.c ****     {
 754:.\Generated_Source\PSoC4/BLE_LED_eventHandler.c ****         CyBle_BascNotificationEventHandler(eventParam);
 755:.\Generated_Source\PSoC4/BLE_LED_eventHandler.c ****     }
 756:.\Generated_Source\PSoC4/BLE_LED_eventHandler.c **** #endif /* CYBLE_BAS_CLIENT */
 757:.\Generated_Source\PSoC4/BLE_LED_eventHandler.c **** #ifdef CYBLE_BLS_CLIENT
 758:.\Generated_Source\PSoC4/BLE_LED_eventHandler.c ****     if((cyBle_eventHandlerFlag & CYBLE_CALLBACK) != 0u)
 759:.\Generated_Source\PSoC4/BLE_LED_eventHandler.c ****     {
 760:.\Generated_Source\PSoC4/BLE_LED_eventHandler.c ****         CyBle_BlscNotificationEventHandler(eventParam);
 761:.\Generated_Source\PSoC4/BLE_LED_eventHandler.c ****     }
 762:.\Generated_Source\PSoC4/BLE_LED_eventHandler.c **** #endif /* CYBLE_BLS_CLIENT */
 763:.\Generated_Source\PSoC4/BLE_LED_eventHandler.c **** #ifdef CYBLE_CGMS_CLIENT
 764:.\Generated_Source\PSoC4/BLE_LED_eventHandler.c ****     if((cyBle_eventHandlerFlag & CYBLE_CALLBACK) != 0u)
 765:.\Generated_Source\PSoC4/BLE_LED_eventHandler.c ****     {
 766:.\Generated_Source\PSoC4/BLE_LED_eventHandler.c ****         CyBle_CgmscNotificationEventHandler(eventParam);
 767:.\Generated_Source\PSoC4/BLE_LED_eventHandler.c ****     }
 768:.\Generated_Source\PSoC4/BLE_LED_eventHandler.c **** #endif /* CYBLE_CGMS_CLIENT */
 769:.\Generated_Source\PSoC4/BLE_LED_eventHandler.c **** #ifdef CYBLE_CPS_CLIENT
 770:.\Generated_Source\PSoC4/BLE_LED_eventHandler.c ****     if((cyBle_eventHandlerFlag & CYBLE_CALLBACK) != 0u)
 771:.\Generated_Source\PSoC4/BLE_LED_eventHandler.c ****     {
 772:.\Generated_Source\PSoC4/BLE_LED_eventHandler.c ****         CyBle_CpscNotificationEventHandler(eventParam);
 773:.\Generated_Source\PSoC4/BLE_LED_eventHandler.c ****     }
 774:.\Generated_Source\PSoC4/BLE_LED_eventHandler.c **** #endif /* CYBLE_CPS_CLIENT */
ARM GAS  C:\Users\tiantiaf\AppData\Local\Temp\cc2Xz98j.s 			page 15


 775:.\Generated_Source\PSoC4/BLE_LED_eventHandler.c **** #ifdef CYBLE_CSCS_CLIENT
 776:.\Generated_Source\PSoC4/BLE_LED_eventHandler.c ****     if((cyBle_eventHandlerFlag & CYBLE_CALLBACK) != 0u)
 777:.\Generated_Source\PSoC4/BLE_LED_eventHandler.c ****     {
 778:.\Generated_Source\PSoC4/BLE_LED_eventHandler.c ****         CyBle_CscscNotificationEventHandler(eventParam);
 779:.\Generated_Source\PSoC4/BLE_LED_eventHandler.c ****     }
 780:.\Generated_Source\PSoC4/BLE_LED_eventHandler.c **** #endif /* CYBLE_CSCS_CLIENT */
 781:.\Generated_Source\PSoC4/BLE_LED_eventHandler.c **** #ifdef CYBLE_CTS_CLIENT
 782:.\Generated_Source\PSoC4/BLE_LED_eventHandler.c ****     if((cyBle_eventHandlerFlag & CYBLE_CALLBACK) != 0u)
 783:.\Generated_Source\PSoC4/BLE_LED_eventHandler.c ****     {
 784:.\Generated_Source\PSoC4/BLE_LED_eventHandler.c ****         CyBle_CtscNotificationEventHandler(eventParam);
 785:.\Generated_Source\PSoC4/BLE_LED_eventHandler.c ****     }
 786:.\Generated_Source\PSoC4/BLE_LED_eventHandler.c **** #endif /* CYBLE_CTS_CLIENT */
 787:.\Generated_Source\PSoC4/BLE_LED_eventHandler.c **** #ifdef CYBLE_ESS_CLIENT
 788:.\Generated_Source\PSoC4/BLE_LED_eventHandler.c ****     if((cyBle_eventHandlerFlag & CYBLE_CALLBACK) != 0u)
 789:.\Generated_Source\PSoC4/BLE_LED_eventHandler.c ****     {
 790:.\Generated_Source\PSoC4/BLE_LED_eventHandler.c ****         CyBle_EsscNotificationEventHandler(eventParam);
 791:.\Generated_Source\PSoC4/BLE_LED_eventHandler.c ****     }
 792:.\Generated_Source\PSoC4/BLE_LED_eventHandler.c **** #endif /* CYBLE_ESS_CLIENT */
 793:.\Generated_Source\PSoC4/BLE_LED_eventHandler.c **** #ifdef CYBLE_GLS_CLIENT
 794:.\Generated_Source\PSoC4/BLE_LED_eventHandler.c ****     if((cyBle_eventHandlerFlag & CYBLE_CALLBACK) != 0u)
 795:.\Generated_Source\PSoC4/BLE_LED_eventHandler.c ****     {
 796:.\Generated_Source\PSoC4/BLE_LED_eventHandler.c ****         CyBle_GlscNotificationEventHandler(eventParam);
 797:.\Generated_Source\PSoC4/BLE_LED_eventHandler.c ****     }
 798:.\Generated_Source\PSoC4/BLE_LED_eventHandler.c **** #endif /* CYBLE_GLS_CLIENT */
 799:.\Generated_Source\PSoC4/BLE_LED_eventHandler.c **** #ifdef CYBLE_HIDS_CLIENT
 800:.\Generated_Source\PSoC4/BLE_LED_eventHandler.c ****     if((cyBle_eventHandlerFlag & CYBLE_CALLBACK) != 0u)
 801:.\Generated_Source\PSoC4/BLE_LED_eventHandler.c ****     {
 802:.\Generated_Source\PSoC4/BLE_LED_eventHandler.c ****         CyBle_HidscNotificationEventHandler(eventParam);
 803:.\Generated_Source\PSoC4/BLE_LED_eventHandler.c ****     }
 804:.\Generated_Source\PSoC4/BLE_LED_eventHandler.c **** #endif /* CYBLE_HIDS_CLIENT */
 805:.\Generated_Source\PSoC4/BLE_LED_eventHandler.c **** #ifdef CYBLE_HPS_CLIENT
 806:.\Generated_Source\PSoC4/BLE_LED_eventHandler.c ****     if((cyBle_eventHandlerFlag & CYBLE_CALLBACK) != 0u)
 807:.\Generated_Source\PSoC4/BLE_LED_eventHandler.c ****     {
 808:.\Generated_Source\PSoC4/BLE_LED_eventHandler.c ****         CyBle_HpscNotificationEventHandler(eventParam);
 809:.\Generated_Source\PSoC4/BLE_LED_eventHandler.c ****     }
 810:.\Generated_Source\PSoC4/BLE_LED_eventHandler.c **** #endif /* CYBLE_HPS_CLIENT */
 811:.\Generated_Source\PSoC4/BLE_LED_eventHandler.c **** #ifdef CYBLE_HRS_CLIENT
 812:.\Generated_Source\PSoC4/BLE_LED_eventHandler.c ****     if((cyBle_eventHandlerFlag & CYBLE_CALLBACK) != 0u)
 813:.\Generated_Source\PSoC4/BLE_LED_eventHandler.c ****     {
 814:.\Generated_Source\PSoC4/BLE_LED_eventHandler.c ****         CyBle_HrscNotificationEventHandler(eventParam);
 815:.\Generated_Source\PSoC4/BLE_LED_eventHandler.c ****     }
 816:.\Generated_Source\PSoC4/BLE_LED_eventHandler.c **** #endif /* CYBLE_HRS_CLIENT */
 817:.\Generated_Source\PSoC4/BLE_LED_eventHandler.c **** #ifdef CYBLE_HTS_CLIENT
 818:.\Generated_Source\PSoC4/BLE_LED_eventHandler.c ****     if((cyBle_eventHandlerFlag & CYBLE_CALLBACK) != 0u)
 819:.\Generated_Source\PSoC4/BLE_LED_eventHandler.c ****     {
 820:.\Generated_Source\PSoC4/BLE_LED_eventHandler.c ****         CyBle_HtscNotificationEventHandler(eventParam);
 821:.\Generated_Source\PSoC4/BLE_LED_eventHandler.c ****     }
 822:.\Generated_Source\PSoC4/BLE_LED_eventHandler.c **** #endif /* CYBLE_HTS_CLIENT */
 823:.\Generated_Source\PSoC4/BLE_LED_eventHandler.c **** #ifdef CYBLE_LNS_CLIENT
 824:.\Generated_Source\PSoC4/BLE_LED_eventHandler.c ****     if((cyBle_eventHandlerFlag & CYBLE_CALLBACK) != 0u)
 825:.\Generated_Source\PSoC4/BLE_LED_eventHandler.c ****     {
 826:.\Generated_Source\PSoC4/BLE_LED_eventHandler.c ****         CyBle_LnscNotificationEventHandler(eventParam);
 827:.\Generated_Source\PSoC4/BLE_LED_eventHandler.c ****     }
 828:.\Generated_Source\PSoC4/BLE_LED_eventHandler.c **** #endif /* CYBLE_LNS_CLIENT */
 829:.\Generated_Source\PSoC4/BLE_LED_eventHandler.c **** #ifdef CYBLE_PASS_CLIENT
 830:.\Generated_Source\PSoC4/BLE_LED_eventHandler.c ****     if((cyBle_eventHandlerFlag & CYBLE_CALLBACK) != 0u)
 831:.\Generated_Source\PSoC4/BLE_LED_eventHandler.c ****     {
ARM GAS  C:\Users\tiantiaf\AppData\Local\Temp\cc2Xz98j.s 			page 16


 832:.\Generated_Source\PSoC4/BLE_LED_eventHandler.c ****         CyBle_PasscNotificationEventHandler(eventParam);
 833:.\Generated_Source\PSoC4/BLE_LED_eventHandler.c ****     }
 834:.\Generated_Source\PSoC4/BLE_LED_eventHandler.c **** #endif /* CYBLE_PASS_CLIENT */
 835:.\Generated_Source\PSoC4/BLE_LED_eventHandler.c **** #ifdef CYBLE_RSCS_CLIENT
 836:.\Generated_Source\PSoC4/BLE_LED_eventHandler.c ****     if((cyBle_eventHandlerFlag & CYBLE_CALLBACK) != 0u)
 837:.\Generated_Source\PSoC4/BLE_LED_eventHandler.c ****     {
 838:.\Generated_Source\PSoC4/BLE_LED_eventHandler.c ****         CyBle_RscscNotificationEventHandler(eventParam);
 839:.\Generated_Source\PSoC4/BLE_LED_eventHandler.c ****     }
 840:.\Generated_Source\PSoC4/BLE_LED_eventHandler.c **** #endif /* CYBLE_RSCS_CLIENT */
 841:.\Generated_Source\PSoC4/BLE_LED_eventHandler.c **** #ifdef CYBLE_SCPS_CLIENT
 842:.\Generated_Source\PSoC4/BLE_LED_eventHandler.c ****     if((cyBle_eventHandlerFlag & CYBLE_CALLBACK) != 0u)
 843:.\Generated_Source\PSoC4/BLE_LED_eventHandler.c ****     {
 844:.\Generated_Source\PSoC4/BLE_LED_eventHandler.c ****         CyBle_ScpscNotificationEventHandler(eventParam);
 845:.\Generated_Source\PSoC4/BLE_LED_eventHandler.c ****     }
 846:.\Generated_Source\PSoC4/BLE_LED_eventHandler.c **** #endif /* CYBLE_SCPS_CLIENT */
 847:.\Generated_Source\PSoC4/BLE_LED_eventHandler.c **** #ifdef CYBLE_TPS_CLIENT
 848:.\Generated_Source\PSoC4/BLE_LED_eventHandler.c ****     if((cyBle_eventHandlerFlag & CYBLE_CALLBACK) != 0u)
 849:.\Generated_Source\PSoC4/BLE_LED_eventHandler.c ****     {
 850:.\Generated_Source\PSoC4/BLE_LED_eventHandler.c ****         CyBle_TpscNotificationEventHandler(eventParam);
 851:.\Generated_Source\PSoC4/BLE_LED_eventHandler.c ****     }
 852:.\Generated_Source\PSoC4/BLE_LED_eventHandler.c **** #endif /* CYBLE_TPS_CLIENT */
 853:.\Generated_Source\PSoC4/BLE_LED_eventHandler.c **** #ifdef CYBLE_UDS_CLIENT
 854:.\Generated_Source\PSoC4/BLE_LED_eventHandler.c ****     if((cyBle_eventHandlerFlag & CYBLE_CALLBACK) != 0u)
 855:.\Generated_Source\PSoC4/BLE_LED_eventHandler.c ****     {
 856:.\Generated_Source\PSoC4/BLE_LED_eventHandler.c ****         CyBle_UdscNotificationEventHandler(eventParam);
 857:.\Generated_Source\PSoC4/BLE_LED_eventHandler.c ****     }
 858:.\Generated_Source\PSoC4/BLE_LED_eventHandler.c **** #endif /* CYBLE_UDS_CLIENT */
 859:.\Generated_Source\PSoC4/BLE_LED_eventHandler.c **** #ifdef CYBLE_WPTS_CLIENT
 860:.\Generated_Source\PSoC4/BLE_LED_eventHandler.c ****     if((cyBle_eventHandlerFlag & CYBLE_CALLBACK) != 0u)
 861:.\Generated_Source\PSoC4/BLE_LED_eventHandler.c ****     {
 862:.\Generated_Source\PSoC4/BLE_LED_eventHandler.c ****         CyBle_WptscNotificationEventHandler(eventParam);
 863:.\Generated_Source\PSoC4/BLE_LED_eventHandler.c ****     }
 864:.\Generated_Source\PSoC4/BLE_LED_eventHandler.c **** #endif /* CYBLE_WPTS_CLIENT */
 865:.\Generated_Source\PSoC4/BLE_LED_eventHandler.c **** }
 866:.\Generated_Source\PSoC4/BLE_LED_eventHandler.c **** 
 867:.\Generated_Source\PSoC4/BLE_LED_eventHandler.c **** 
 868:.\Generated_Source\PSoC4/BLE_LED_eventHandler.c **** /******************************************************************************    
 869:.\Generated_Source\PSoC4/BLE_LED_eventHandler.c **** * Function Name: CyBle_IndicationEventHandler
 870:.\Generated_Source\PSoC4/BLE_LED_eventHandler.c **** ***************************************************************************//**
 871:.\Generated_Source\PSoC4/BLE_LED_eventHandler.c **** * 
 872:.\Generated_Source\PSoC4/BLE_LED_eventHandler.c **** *  Handles the Indication event from BLE stack.
 873:.\Generated_Source\PSoC4/BLE_LED_eventHandler.c **** * 
 874:.\Generated_Source\PSoC4/BLE_LED_eventHandler.c **** *  \param eventParam: event parameter
 875:.\Generated_Source\PSoC4/BLE_LED_eventHandler.c **** * 
 876:.\Generated_Source\PSoC4/BLE_LED_eventHandler.c **** * \return
 877:.\Generated_Source\PSoC4/BLE_LED_eventHandler.c **** *  None
 878:.\Generated_Source\PSoC4/BLE_LED_eventHandler.c **** * 
 879:.\Generated_Source\PSoC4/BLE_LED_eventHandler.c **** ******************************************************************************/
 880:.\Generated_Source\PSoC4/BLE_LED_eventHandler.c **** static void CyBle_IndicationEventHandler(CYBLE_GATTC_HANDLE_VALUE_IND_PARAM_T *eventParam)
 881:.\Generated_Source\PSoC4/BLE_LED_eventHandler.c **** {
 882:.\Generated_Source\PSoC4/BLE_LED_eventHandler.c **** #ifdef CYBLE_BCS_CLIENT
 883:.\Generated_Source\PSoC4/BLE_LED_eventHandler.c ****     if((cyBle_eventHandlerFlag & CYBLE_CALLBACK) != 0u)
 884:.\Generated_Source\PSoC4/BLE_LED_eventHandler.c ****     {
 885:.\Generated_Source\PSoC4/BLE_LED_eventHandler.c ****         CyBle_BcscIndicationEventHandler(eventParam);
 886:.\Generated_Source\PSoC4/BLE_LED_eventHandler.c ****     }
 887:.\Generated_Source\PSoC4/BLE_LED_eventHandler.c **** #endif /* CYBLE_BCS_CLIENT */
 888:.\Generated_Source\PSoC4/BLE_LED_eventHandler.c **** #ifdef CYBLE_BLS_CLIENT
ARM GAS  C:\Users\tiantiaf\AppData\Local\Temp\cc2Xz98j.s 			page 17


 889:.\Generated_Source\PSoC4/BLE_LED_eventHandler.c ****     if((cyBle_eventHandlerFlag & CYBLE_CALLBACK) != 0u)
 890:.\Generated_Source\PSoC4/BLE_LED_eventHandler.c ****     {
 891:.\Generated_Source\PSoC4/BLE_LED_eventHandler.c ****         CyBle_BlscIndicationEventHandler(eventParam);
 892:.\Generated_Source\PSoC4/BLE_LED_eventHandler.c ****     }
 893:.\Generated_Source\PSoC4/BLE_LED_eventHandler.c **** #endif /* CYBLE_BLS_CLIENT */
 894:.\Generated_Source\PSoC4/BLE_LED_eventHandler.c **** #ifdef CYBLE_CGMS_CLIENT
 895:.\Generated_Source\PSoC4/BLE_LED_eventHandler.c ****     if((cyBle_eventHandlerFlag & CYBLE_CALLBACK) != 0u)
 896:.\Generated_Source\PSoC4/BLE_LED_eventHandler.c ****     {
 897:.\Generated_Source\PSoC4/BLE_LED_eventHandler.c ****         CyBle_CgmscIndicationEventHandler(eventParam);
 898:.\Generated_Source\PSoC4/BLE_LED_eventHandler.c ****     }
 899:.\Generated_Source\PSoC4/BLE_LED_eventHandler.c **** #endif /* CYBLE_CGMS_CLIENT */
 900:.\Generated_Source\PSoC4/BLE_LED_eventHandler.c **** #ifdef CYBLE_CPS_CLIENT
 901:.\Generated_Source\PSoC4/BLE_LED_eventHandler.c ****     if((cyBle_eventHandlerFlag & CYBLE_CALLBACK) != 0u)
 902:.\Generated_Source\PSoC4/BLE_LED_eventHandler.c ****     {
 903:.\Generated_Source\PSoC4/BLE_LED_eventHandler.c ****         CyBle_CpscIndicationEventHandler(eventParam);
 904:.\Generated_Source\PSoC4/BLE_LED_eventHandler.c ****     }
 905:.\Generated_Source\PSoC4/BLE_LED_eventHandler.c **** #endif /* CYBLE_CPS_CLIENT */
 906:.\Generated_Source\PSoC4/BLE_LED_eventHandler.c **** #ifdef CYBLE_CSCS_CLIENT
 907:.\Generated_Source\PSoC4/BLE_LED_eventHandler.c ****     if((cyBle_eventHandlerFlag & CYBLE_CALLBACK) != 0u)
 908:.\Generated_Source\PSoC4/BLE_LED_eventHandler.c ****     {
 909:.\Generated_Source\PSoC4/BLE_LED_eventHandler.c ****         CyBle_CscscIndicationEventHandler(eventParam);
 910:.\Generated_Source\PSoC4/BLE_LED_eventHandler.c ****     }
 911:.\Generated_Source\PSoC4/BLE_LED_eventHandler.c **** #endif /* CYBLE_CSCS_CLIENT */
 912:.\Generated_Source\PSoC4/BLE_LED_eventHandler.c **** #ifdef CYBLE_ESS_CLIENT
 913:.\Generated_Source\PSoC4/BLE_LED_eventHandler.c ****     if((cyBle_eventHandlerFlag & CYBLE_CALLBACK) != 0u)
 914:.\Generated_Source\PSoC4/BLE_LED_eventHandler.c ****     {
 915:.\Generated_Source\PSoC4/BLE_LED_eventHandler.c ****         CyBle_EsscIndicationEventHandler(eventParam);
 916:.\Generated_Source\PSoC4/BLE_LED_eventHandler.c ****     }
 917:.\Generated_Source\PSoC4/BLE_LED_eventHandler.c **** #endif /* CYBLE_ESS_CLIENT */
 918:.\Generated_Source\PSoC4/BLE_LED_eventHandler.c **** #ifdef CYBLE_GLS_CLIENT
 919:.\Generated_Source\PSoC4/BLE_LED_eventHandler.c ****     if((cyBle_eventHandlerFlag & CYBLE_CALLBACK) != 0u)
 920:.\Generated_Source\PSoC4/BLE_LED_eventHandler.c ****     {
 921:.\Generated_Source\PSoC4/BLE_LED_eventHandler.c ****         CyBle_GlscIndicationEventHandler(eventParam);
 922:.\Generated_Source\PSoC4/BLE_LED_eventHandler.c ****     }
 923:.\Generated_Source\PSoC4/BLE_LED_eventHandler.c **** #endif /* CYBLE_GLS_CLIENT */
 924:.\Generated_Source\PSoC4/BLE_LED_eventHandler.c **** #ifdef CYBLE_HTS_CLIENT
 925:.\Generated_Source\PSoC4/BLE_LED_eventHandler.c ****     if((cyBle_eventHandlerFlag & CYBLE_CALLBACK) != 0u)
 926:.\Generated_Source\PSoC4/BLE_LED_eventHandler.c ****     {
 927:.\Generated_Source\PSoC4/BLE_LED_eventHandler.c ****         CyBle_HtscIndicationEventHandler(eventParam);
 928:.\Generated_Source\PSoC4/BLE_LED_eventHandler.c ****     }
 929:.\Generated_Source\PSoC4/BLE_LED_eventHandler.c **** #endif /* CYBLE_HTS_CLIENT */
 930:.\Generated_Source\PSoC4/BLE_LED_eventHandler.c **** #ifdef CYBLE_LNS_CLIENT
 931:.\Generated_Source\PSoC4/BLE_LED_eventHandler.c ****     if((cyBle_eventHandlerFlag & CYBLE_CALLBACK) != 0u)
 932:.\Generated_Source\PSoC4/BLE_LED_eventHandler.c ****     {
 933:.\Generated_Source\PSoC4/BLE_LED_eventHandler.c ****         CyBle_LnscIndicationEventHandler(eventParam);
 934:.\Generated_Source\PSoC4/BLE_LED_eventHandler.c ****     }
 935:.\Generated_Source\PSoC4/BLE_LED_eventHandler.c **** #endif /* CYBLE_LNS_CLIENT */
 936:.\Generated_Source\PSoC4/BLE_LED_eventHandler.c **** #ifdef CYBLE_RSCS_CLIENT
 937:.\Generated_Source\PSoC4/BLE_LED_eventHandler.c ****     if((cyBle_eventHandlerFlag & CYBLE_CALLBACK) != 0u)
 938:.\Generated_Source\PSoC4/BLE_LED_eventHandler.c ****     {
 939:.\Generated_Source\PSoC4/BLE_LED_eventHandler.c ****         CyBle_RscscIndicationEventHandler(eventParam);
 940:.\Generated_Source\PSoC4/BLE_LED_eventHandler.c ****     }
 941:.\Generated_Source\PSoC4/BLE_LED_eventHandler.c **** #endif /* CYBLE_RSCS_CLIENT */
 942:.\Generated_Source\PSoC4/BLE_LED_eventHandler.c **** #ifdef CYBLE_UDS_CLIENT
 943:.\Generated_Source\PSoC4/BLE_LED_eventHandler.c ****     if((cyBle_eventHandlerFlag & CYBLE_CALLBACK) != 0u)
 944:.\Generated_Source\PSoC4/BLE_LED_eventHandler.c ****     {
 945:.\Generated_Source\PSoC4/BLE_LED_eventHandler.c ****         CyBle_UdscIndicationEventHandler(eventParam);
ARM GAS  C:\Users\tiantiaf\AppData\Local\Temp\cc2Xz98j.s 			page 18


 946:.\Generated_Source\PSoC4/BLE_LED_eventHandler.c ****     }
 947:.\Generated_Source\PSoC4/BLE_LED_eventHandler.c **** #endif /* CYBLE_UDS_CLIENT */
 948:.\Generated_Source\PSoC4/BLE_LED_eventHandler.c **** #ifdef CYBLE_WPTS_CLIENT
 949:.\Generated_Source\PSoC4/BLE_LED_eventHandler.c ****     if((cyBle_eventHandlerFlag & CYBLE_CALLBACK) != 0u)
 950:.\Generated_Source\PSoC4/BLE_LED_eventHandler.c ****     {
 951:.\Generated_Source\PSoC4/BLE_LED_eventHandler.c ****         CyBle_WptscIndicationEventHandler(eventParam);
 952:.\Generated_Source\PSoC4/BLE_LED_eventHandler.c ****     }
 953:.\Generated_Source\PSoC4/BLE_LED_eventHandler.c **** #endif /* CYBLE_WPTS_CLIENT */
 954:.\Generated_Source\PSoC4/BLE_LED_eventHandler.c **** #ifdef CYBLE_WSS_CLIENT
 955:.\Generated_Source\PSoC4/BLE_LED_eventHandler.c ****     if((cyBle_eventHandlerFlag & CYBLE_CALLBACK) != 0u)
 956:.\Generated_Source\PSoC4/BLE_LED_eventHandler.c ****     {
 957:.\Generated_Source\PSoC4/BLE_LED_eventHandler.c ****         CyBle_WsscIndicationEventHandler(eventParam);
 958:.\Generated_Source\PSoC4/BLE_LED_eventHandler.c ****     }
 959:.\Generated_Source\PSoC4/BLE_LED_eventHandler.c **** #endif /* CYBLE_WSS_CLIENT */
 960:.\Generated_Source\PSoC4/BLE_LED_eventHandler.c **** }
 961:.\Generated_Source\PSoC4/BLE_LED_eventHandler.c **** 
 962:.\Generated_Source\PSoC4/BLE_LED_eventHandler.c **** 
 963:.\Generated_Source\PSoC4/BLE_LED_eventHandler.c **** 
 964:.\Generated_Source\PSoC4/BLE_LED_eventHandler.c **** /******************************************************************************    
 965:.\Generated_Source\PSoC4/BLE_LED_eventHandler.c **** * Function Name: CyBle_ReadResponseEventHandler
 966:.\Generated_Source\PSoC4/BLE_LED_eventHandler.c **** ***************************************************************************//**
 967:.\Generated_Source\PSoC4/BLE_LED_eventHandler.c **** * 
 968:.\Generated_Source\PSoC4/BLE_LED_eventHandler.c **** *  Handles the Read Response event from BLE stack.
 969:.\Generated_Source\PSoC4/BLE_LED_eventHandler.c **** * 
 970:.\Generated_Source\PSoC4/BLE_LED_eventHandler.c **** *  \param eventParam: event parameter
 971:.\Generated_Source\PSoC4/BLE_LED_eventHandler.c **** * 
 972:.\Generated_Source\PSoC4/BLE_LED_eventHandler.c **** * \return
 973:.\Generated_Source\PSoC4/BLE_LED_eventHandler.c **** *  None
 974:.\Generated_Source\PSoC4/BLE_LED_eventHandler.c **** * 
 975:.\Generated_Source\PSoC4/BLE_LED_eventHandler.c **** ******************************************************************************/
 976:.\Generated_Source\PSoC4/BLE_LED_eventHandler.c **** static void CyBle_ReadResponseEventHandler(CYBLE_GATTC_READ_RSP_PARAM_T *eventParam)
 977:.\Generated_Source\PSoC4/BLE_LED_eventHandler.c **** {
 978:.\Generated_Source\PSoC4/BLE_LED_eventHandler.c **** #ifdef CYBLE_CUSTOM_CLIENT
 979:.\Generated_Source\PSoC4/BLE_LED_eventHandler.c ****     /* Read response with 128-bit included service uuid */
 980:.\Generated_Source\PSoC4/BLE_LED_eventHandler.c ****     if((CYBLE_CLIENT_STATE_INCL_DISCOVERING == CyBle_GetClientState()) &&
 981:.\Generated_Source\PSoC4/BLE_LED_eventHandler.c ****        (cyBle_discInclInfo.inclDefHandle != 0u))
 982:.\Generated_Source\PSoC4/BLE_LED_eventHandler.c ****     {
 983:.\Generated_Source\PSoC4/BLE_LED_eventHandler.c ****         CYBLE_DISC_SRVC128_INFO_T discServInfo;
 984:.\Generated_Source\PSoC4/BLE_LED_eventHandler.c **** 
 985:.\Generated_Source\PSoC4/BLE_LED_eventHandler.c ****         /* Store service range */
 986:.\Generated_Source\PSoC4/BLE_LED_eventHandler.c ****         discServInfo.range = cyBle_discInclInfo.inclHandleRange;
 987:.\Generated_Source\PSoC4/BLE_LED_eventHandler.c ****         (void)memcpy((void *) discServInfo.uuid.uuid128.value, (void *)eventParam->value.val, event
 988:.\Generated_Source\PSoC4/BLE_LED_eventHandler.c ****         CyBle_CustomcDiscoverServiceEventHandler(&discServInfo);
 989:.\Generated_Source\PSoC4/BLE_LED_eventHandler.c ****         
 990:.\Generated_Source\PSoC4/BLE_LED_eventHandler.c ****         /* Re-initiate CyBle_GattcFindIncludedServices function, setting the start
 991:.\Generated_Source\PSoC4/BLE_LED_eventHandler.c ****            handle to the attribute handle which is placed next to the one used in
 992:.\Generated_Source\PSoC4/BLE_LED_eventHandler.c ****            the above step.
 993:.\Generated_Source\PSoC4/BLE_LED_eventHandler.c ****         */
 994:.\Generated_Source\PSoC4/BLE_LED_eventHandler.c ****         discServInfo.range.startHandle = cyBle_discInclInfo.inclDefHandle + 1u;
 995:.\Generated_Source\PSoC4/BLE_LED_eventHandler.c ****         discServInfo.range.endHandle = cyBle_serverInfo[cyBle_disCount].range.endHandle;
 996:.\Generated_Source\PSoC4/BLE_LED_eventHandler.c ****         if(discServInfo.range.startHandle <= discServInfo.range.endHandle)
 997:.\Generated_Source\PSoC4/BLE_LED_eventHandler.c ****         {
 998:.\Generated_Source\PSoC4/BLE_LED_eventHandler.c ****             if(CYBLE_ERROR_OK != CyBle_GattcFindIncludedServices(cyBle_connHandle, &discServInfo.ra
 999:.\Generated_Source\PSoC4/BLE_LED_eventHandler.c ****             {
1000:.\Generated_Source\PSoC4/BLE_LED_eventHandler.c ****                 CyBle_ApplCallback(CYBLE_EVT_GATTC_INCL_DISCOVERY_FAILED, NULL);
1001:.\Generated_Source\PSoC4/BLE_LED_eventHandler.c ****                 cyBle_eventHandlerFlag &= (uint8)~CYBLE_AUTO_DISCOVERY;
1002:.\Generated_Source\PSoC4/BLE_LED_eventHandler.c ****             }
ARM GAS  C:\Users\tiantiaf\AppData\Local\Temp\cc2Xz98j.s 			page 19


1003:.\Generated_Source\PSoC4/BLE_LED_eventHandler.c ****         }
1004:.\Generated_Source\PSoC4/BLE_LED_eventHandler.c ****         else /* Continue discovery of the following service */
1005:.\Generated_Source\PSoC4/BLE_LED_eventHandler.c ****         {
1006:.\Generated_Source\PSoC4/BLE_LED_eventHandler.c ****             CyBle_NextInclDiscovery(CYBLE_DISCOVERY_CONTINUE);
1007:.\Generated_Source\PSoC4/BLE_LED_eventHandler.c ****         }
1008:.\Generated_Source\PSoC4/BLE_LED_eventHandler.c ****         
1009:.\Generated_Source\PSoC4/BLE_LED_eventHandler.c ****         cyBle_eventHandlerFlag &= (uint8)~CYBLE_CALLBACK;
1010:.\Generated_Source\PSoC4/BLE_LED_eventHandler.c ****     #ifdef CYBLE_CUSTOM_CLIENT
1011:.\Generated_Source\PSoC4/BLE_LED_eventHandler.c ****         cyBle_discInclInfo.inclDefHandle = 0u;
1012:.\Generated_Source\PSoC4/BLE_LED_eventHandler.c ****     #endif /* CYBLE_CUSTOM_CLIENT */
1013:.\Generated_Source\PSoC4/BLE_LED_eventHandler.c ****     }
1014:.\Generated_Source\PSoC4/BLE_LED_eventHandler.c **** #endif /* CYBLE_CUSTOM_CLIENT */
1015:.\Generated_Source\PSoC4/BLE_LED_eventHandler.c **** #ifdef CYBLE_ANCS_CLIENT
1016:.\Generated_Source\PSoC4/BLE_LED_eventHandler.c ****     if((cyBle_eventHandlerFlag & CYBLE_CALLBACK) != 0u)
1017:.\Generated_Source\PSoC4/BLE_LED_eventHandler.c ****     {
1018:.\Generated_Source\PSoC4/BLE_LED_eventHandler.c ****         CyBle_AncscReadResponseEventHandler(eventParam);
1019:.\Generated_Source\PSoC4/BLE_LED_eventHandler.c ****     }
1020:.\Generated_Source\PSoC4/BLE_LED_eventHandler.c **** #endif /* CYBLE_ANCS_CLIENT */
1021:.\Generated_Source\PSoC4/BLE_LED_eventHandler.c **** #ifdef CYBLE_ANS_CLIENT
1022:.\Generated_Source\PSoC4/BLE_LED_eventHandler.c ****     if((cyBle_eventHandlerFlag & CYBLE_CALLBACK) != 0u)
1023:.\Generated_Source\PSoC4/BLE_LED_eventHandler.c ****     {
1024:.\Generated_Source\PSoC4/BLE_LED_eventHandler.c ****         CyBle_AnscReadResponseEventHandler(eventParam);
1025:.\Generated_Source\PSoC4/BLE_LED_eventHandler.c ****     }
1026:.\Generated_Source\PSoC4/BLE_LED_eventHandler.c **** #endif /* CYBLE_ANS_CLIENT */
1027:.\Generated_Source\PSoC4/BLE_LED_eventHandler.c **** #ifdef CYBLE_BAS_CLIENT
1028:.\Generated_Source\PSoC4/BLE_LED_eventHandler.c ****     if((cyBle_eventHandlerFlag & CYBLE_CALLBACK) != 0u)
1029:.\Generated_Source\PSoC4/BLE_LED_eventHandler.c ****     {
1030:.\Generated_Source\PSoC4/BLE_LED_eventHandler.c ****         CyBle_BascReadResponseEventHandler(eventParam);
1031:.\Generated_Source\PSoC4/BLE_LED_eventHandler.c ****     }
1032:.\Generated_Source\PSoC4/BLE_LED_eventHandler.c **** #endif /* CYBLE_BAS_CLIENT */
1033:.\Generated_Source\PSoC4/BLE_LED_eventHandler.c **** #ifdef CYBLE_BLS_CLIENT
1034:.\Generated_Source\PSoC4/BLE_LED_eventHandler.c ****     if((cyBle_eventHandlerFlag & CYBLE_CALLBACK) != 0u)
1035:.\Generated_Source\PSoC4/BLE_LED_eventHandler.c ****     {
1036:.\Generated_Source\PSoC4/BLE_LED_eventHandler.c ****         CyBle_BlscReadResponseEventHandler(eventParam);
1037:.\Generated_Source\PSoC4/BLE_LED_eventHandler.c ****     }
1038:.\Generated_Source\PSoC4/BLE_LED_eventHandler.c **** #endif /* CYBLE_BLS_CLIENT */
1039:.\Generated_Source\PSoC4/BLE_LED_eventHandler.c **** #ifdef CYBLE_BCS_CLIENT
1040:.\Generated_Source\PSoC4/BLE_LED_eventHandler.c ****     if((cyBle_eventHandlerFlag & CYBLE_CALLBACK) != 0u)
1041:.\Generated_Source\PSoC4/BLE_LED_eventHandler.c ****     {
1042:.\Generated_Source\PSoC4/BLE_LED_eventHandler.c ****         CyBle_BcscReadResponseEventHandler(eventParam);
1043:.\Generated_Source\PSoC4/BLE_LED_eventHandler.c ****     }
1044:.\Generated_Source\PSoC4/BLE_LED_eventHandler.c **** #endif /* CYBLE_BCS_CLIENT */
1045:.\Generated_Source\PSoC4/BLE_LED_eventHandler.c **** #ifdef CYBLE_BMS_CLIENT
1046:.\Generated_Source\PSoC4/BLE_LED_eventHandler.c ****     if((cyBle_eventHandlerFlag & CYBLE_CALLBACK) != 0u)
1047:.\Generated_Source\PSoC4/BLE_LED_eventHandler.c ****     {
1048:.\Generated_Source\PSoC4/BLE_LED_eventHandler.c ****         CyBle_BmscReadResponseEventHandler(eventParam);
1049:.\Generated_Source\PSoC4/BLE_LED_eventHandler.c ****     }
1050:.\Generated_Source\PSoC4/BLE_LED_eventHandler.c **** #endif /* CYBLE_BMS_CLIENT */
1051:.\Generated_Source\PSoC4/BLE_LED_eventHandler.c **** #ifdef CYBLE_CGMS_CLIENT
1052:.\Generated_Source\PSoC4/BLE_LED_eventHandler.c ****     if((cyBle_eventHandlerFlag & CYBLE_CALLBACK) != 0u)
1053:.\Generated_Source\PSoC4/BLE_LED_eventHandler.c ****     {
1054:.\Generated_Source\PSoC4/BLE_LED_eventHandler.c ****         CyBle_CgmscReadResponseEventHandler(eventParam);
1055:.\Generated_Source\PSoC4/BLE_LED_eventHandler.c ****     }
1056:.\Generated_Source\PSoC4/BLE_LED_eventHandler.c **** #endif /* CYBLE_CGMS_CLIENT */
1057:.\Generated_Source\PSoC4/BLE_LED_eventHandler.c **** #ifdef CYBLE_CPS_CLIENT
1058:.\Generated_Source\PSoC4/BLE_LED_eventHandler.c ****     if((cyBle_eventHandlerFlag & CYBLE_CALLBACK) != 0u)
1059:.\Generated_Source\PSoC4/BLE_LED_eventHandler.c ****     {
ARM GAS  C:\Users\tiantiaf\AppData\Local\Temp\cc2Xz98j.s 			page 20


1060:.\Generated_Source\PSoC4/BLE_LED_eventHandler.c ****         CyBle_CpscReadResponseEventHandler(eventParam);
1061:.\Generated_Source\PSoC4/BLE_LED_eventHandler.c ****     }
1062:.\Generated_Source\PSoC4/BLE_LED_eventHandler.c **** #endif /* CYBLE_CPS_CLIENT */
1063:.\Generated_Source\PSoC4/BLE_LED_eventHandler.c **** #ifdef CYBLE_CSCS_CLIENT
1064:.\Generated_Source\PSoC4/BLE_LED_eventHandler.c ****     if((cyBle_eventHandlerFlag & CYBLE_CALLBACK) != 0u)
1065:.\Generated_Source\PSoC4/BLE_LED_eventHandler.c ****     {
1066:.\Generated_Source\PSoC4/BLE_LED_eventHandler.c ****         CyBle_CscscReadResponseEventHandler(eventParam);
1067:.\Generated_Source\PSoC4/BLE_LED_eventHandler.c ****     }
1068:.\Generated_Source\PSoC4/BLE_LED_eventHandler.c **** #endif /* CYBLE_CSCS_CLIENT */
1069:.\Generated_Source\PSoC4/BLE_LED_eventHandler.c **** #ifdef CYBLE_CTS_CLIENT
1070:.\Generated_Source\PSoC4/BLE_LED_eventHandler.c ****     if((cyBle_eventHandlerFlag & CYBLE_CALLBACK) != 0u)
1071:.\Generated_Source\PSoC4/BLE_LED_eventHandler.c ****     {
1072:.\Generated_Source\PSoC4/BLE_LED_eventHandler.c ****         CyBle_CtscReadResponseEventHandler(eventParam);
1073:.\Generated_Source\PSoC4/BLE_LED_eventHandler.c ****     }
1074:.\Generated_Source\PSoC4/BLE_LED_eventHandler.c **** #endif /* CYBLE_BAS_CLIENT */
1075:.\Generated_Source\PSoC4/BLE_LED_eventHandler.c **** #ifdef CYBLE_DIS_CLIENT
1076:.\Generated_Source\PSoC4/BLE_LED_eventHandler.c ****     if((cyBle_eventHandlerFlag & CYBLE_CALLBACK) != 0u)
1077:.\Generated_Source\PSoC4/BLE_LED_eventHandler.c ****     {
1078:.\Generated_Source\PSoC4/BLE_LED_eventHandler.c ****         CyBle_DiscReadResponseEventHandler(eventParam);
1079:.\Generated_Source\PSoC4/BLE_LED_eventHandler.c ****     }
1080:.\Generated_Source\PSoC4/BLE_LED_eventHandler.c **** #endif /* CYBLE_DIS_CLIENT */
1081:.\Generated_Source\PSoC4/BLE_LED_eventHandler.c **** #ifdef CYBLE_ESS_CLIENT
1082:.\Generated_Source\PSoC4/BLE_LED_eventHandler.c ****     if((cyBle_eventHandlerFlag & CYBLE_CALLBACK) != 0u)
1083:.\Generated_Source\PSoC4/BLE_LED_eventHandler.c ****     {
1084:.\Generated_Source\PSoC4/BLE_LED_eventHandler.c ****         CyBle_EsscReadResponseEventHandler(eventParam);
1085:.\Generated_Source\PSoC4/BLE_LED_eventHandler.c ****     }
1086:.\Generated_Source\PSoC4/BLE_LED_eventHandler.c **** #endif /* CYBLE_ESS_CLIENT */
1087:.\Generated_Source\PSoC4/BLE_LED_eventHandler.c **** #ifdef CYBLE_GLS_CLIENT
1088:.\Generated_Source\PSoC4/BLE_LED_eventHandler.c ****     if((cyBle_eventHandlerFlag & CYBLE_CALLBACK) != 0u)
1089:.\Generated_Source\PSoC4/BLE_LED_eventHandler.c ****     {
1090:.\Generated_Source\PSoC4/BLE_LED_eventHandler.c ****         CyBle_GlscReadResponseEventHandler(eventParam);
1091:.\Generated_Source\PSoC4/BLE_LED_eventHandler.c ****     }
1092:.\Generated_Source\PSoC4/BLE_LED_eventHandler.c **** #endif /* CYBLE_GLS_CLIENT */
1093:.\Generated_Source\PSoC4/BLE_LED_eventHandler.c **** #ifdef CYBLE_HIDS_CLIENT
1094:.\Generated_Source\PSoC4/BLE_LED_eventHandler.c ****     if((cyBle_eventHandlerFlag & CYBLE_CALLBACK) != 0u)
1095:.\Generated_Source\PSoC4/BLE_LED_eventHandler.c ****     {
1096:.\Generated_Source\PSoC4/BLE_LED_eventHandler.c ****         CyBle_HidscReadResponseEventHandler(eventParam);
1097:.\Generated_Source\PSoC4/BLE_LED_eventHandler.c ****     }
1098:.\Generated_Source\PSoC4/BLE_LED_eventHandler.c **** #endif /* CYBLE_HIDS_CLIENT */
1099:.\Generated_Source\PSoC4/BLE_LED_eventHandler.c **** #ifdef CYBLE_HPS_CLIENT
1100:.\Generated_Source\PSoC4/BLE_LED_eventHandler.c ****     if((cyBle_eventHandlerFlag & CYBLE_CALLBACK) != 0u)
1101:.\Generated_Source\PSoC4/BLE_LED_eventHandler.c ****     {
1102:.\Generated_Source\PSoC4/BLE_LED_eventHandler.c ****         CyBle_HpscReadResponseEventHandler(eventParam);
1103:.\Generated_Source\PSoC4/BLE_LED_eventHandler.c ****     }
1104:.\Generated_Source\PSoC4/BLE_LED_eventHandler.c **** #endif /* CYBLE_HPS_CLIENT */
1105:.\Generated_Source\PSoC4/BLE_LED_eventHandler.c **** #ifdef CYBLE_HRS_CLIENT
1106:.\Generated_Source\PSoC4/BLE_LED_eventHandler.c ****     if((cyBle_eventHandlerFlag & CYBLE_CALLBACK) != 0u)
1107:.\Generated_Source\PSoC4/BLE_LED_eventHandler.c ****     {
1108:.\Generated_Source\PSoC4/BLE_LED_eventHandler.c ****         CyBle_HrscReadResponseEventHandler(eventParam);
1109:.\Generated_Source\PSoC4/BLE_LED_eventHandler.c ****     }
1110:.\Generated_Source\PSoC4/BLE_LED_eventHandler.c **** #endif /* CYBLE_HRS_CLIENT */
1111:.\Generated_Source\PSoC4/BLE_LED_eventHandler.c **** #ifdef CYBLE_HTS_CLIENT
1112:.\Generated_Source\PSoC4/BLE_LED_eventHandler.c ****     if((cyBle_eventHandlerFlag & CYBLE_CALLBACK) != 0u)
1113:.\Generated_Source\PSoC4/BLE_LED_eventHandler.c ****     {
1114:.\Generated_Source\PSoC4/BLE_LED_eventHandler.c ****         CyBle_HtscReadResponseEventHandler(eventParam);
1115:.\Generated_Source\PSoC4/BLE_LED_eventHandler.c ****     }
1116:.\Generated_Source\PSoC4/BLE_LED_eventHandler.c **** #endif /* CYBLE_HTS_CLIENT */
ARM GAS  C:\Users\tiantiaf\AppData\Local\Temp\cc2Xz98j.s 			page 21


1117:.\Generated_Source\PSoC4/BLE_LED_eventHandler.c **** #ifdef CYBLE_IPS_CLIENT
1118:.\Generated_Source\PSoC4/BLE_LED_eventHandler.c ****     if((cyBle_eventHandlerFlag & CYBLE_CALLBACK) != 0u)
1119:.\Generated_Source\PSoC4/BLE_LED_eventHandler.c ****     {
1120:.\Generated_Source\PSoC4/BLE_LED_eventHandler.c ****         CyBle_IpscReadResponseEventHandler(eventParam);
1121:.\Generated_Source\PSoC4/BLE_LED_eventHandler.c ****     }
1122:.\Generated_Source\PSoC4/BLE_LED_eventHandler.c **** #endif /* CYBLE_IPS_CLIENT */
1123:.\Generated_Source\PSoC4/BLE_LED_eventHandler.c **** #ifdef CYBLE_LLS_CLIENT
1124:.\Generated_Source\PSoC4/BLE_LED_eventHandler.c ****     if((cyBle_eventHandlerFlag & CYBLE_CALLBACK) != 0u)
1125:.\Generated_Source\PSoC4/BLE_LED_eventHandler.c ****     {
1126:.\Generated_Source\PSoC4/BLE_LED_eventHandler.c ****         CyBle_LlscReadResponseEventHandler(eventParam);
1127:.\Generated_Source\PSoC4/BLE_LED_eventHandler.c ****     }
1128:.\Generated_Source\PSoC4/BLE_LED_eventHandler.c **** #endif /* CYBLE_LLS_CLIENT */
1129:.\Generated_Source\PSoC4/BLE_LED_eventHandler.c **** #ifdef CYBLE_LNS_CLIENT
1130:.\Generated_Source\PSoC4/BLE_LED_eventHandler.c ****     if((cyBle_eventHandlerFlag & CYBLE_CALLBACK) != 0u)
1131:.\Generated_Source\PSoC4/BLE_LED_eventHandler.c ****     {
1132:.\Generated_Source\PSoC4/BLE_LED_eventHandler.c ****         CyBle_LnscReadResponseEventHandler(eventParam);
1133:.\Generated_Source\PSoC4/BLE_LED_eventHandler.c ****     }
1134:.\Generated_Source\PSoC4/BLE_LED_eventHandler.c **** #endif /* CYBLE_LNS_CLIENT */
1135:.\Generated_Source\PSoC4/BLE_LED_eventHandler.c **** #ifdef CYBLE_NDCS_CLIENT
1136:.\Generated_Source\PSoC4/BLE_LED_eventHandler.c ****     if((cyBle_eventHandlerFlag & CYBLE_CALLBACK) != 0u)
1137:.\Generated_Source\PSoC4/BLE_LED_eventHandler.c ****     {
1138:.\Generated_Source\PSoC4/BLE_LED_eventHandler.c ****         CyBle_NdcscReadResponseEventHandler(eventParam);
1139:.\Generated_Source\PSoC4/BLE_LED_eventHandler.c ****     }
1140:.\Generated_Source\PSoC4/BLE_LED_eventHandler.c **** #endif /* CYBLE_NDCS_CLIENT */
1141:.\Generated_Source\PSoC4/BLE_LED_eventHandler.c **** #ifdef CYBLE_PASS_CLIENT
1142:.\Generated_Source\PSoC4/BLE_LED_eventHandler.c ****     if((cyBle_eventHandlerFlag & CYBLE_CALLBACK) != 0u)
1143:.\Generated_Source\PSoC4/BLE_LED_eventHandler.c ****     {
1144:.\Generated_Source\PSoC4/BLE_LED_eventHandler.c ****         CyBle_PasscReadResponseEventHandler(eventParam);
1145:.\Generated_Source\PSoC4/BLE_LED_eventHandler.c ****     }
1146:.\Generated_Source\PSoC4/BLE_LED_eventHandler.c **** #endif /* CYBLE_PASS_CLIENT */
1147:.\Generated_Source\PSoC4/BLE_LED_eventHandler.c **** #ifdef CYBLE_RSCS_CLIENT
1148:.\Generated_Source\PSoC4/BLE_LED_eventHandler.c ****     if((cyBle_eventHandlerFlag & CYBLE_CALLBACK) != 0u)
1149:.\Generated_Source\PSoC4/BLE_LED_eventHandler.c ****     {
1150:.\Generated_Source\PSoC4/BLE_LED_eventHandler.c ****         CyBle_RscscReadResponseEventHandler(eventParam);
1151:.\Generated_Source\PSoC4/BLE_LED_eventHandler.c ****     }
1152:.\Generated_Source\PSoC4/BLE_LED_eventHandler.c **** #endif /* CYBLE_RSCS_CLIENT */
1153:.\Generated_Source\PSoC4/BLE_LED_eventHandler.c **** #ifdef CYBLE_RTUS_CLIENT
1154:.\Generated_Source\PSoC4/BLE_LED_eventHandler.c ****     if((cyBle_eventHandlerFlag & CYBLE_CALLBACK) != 0u)
1155:.\Generated_Source\PSoC4/BLE_LED_eventHandler.c ****     {
1156:.\Generated_Source\PSoC4/BLE_LED_eventHandler.c ****         CyBle_RtuscReadResponseEventHandler(eventParam);
1157:.\Generated_Source\PSoC4/BLE_LED_eventHandler.c ****     }
1158:.\Generated_Source\PSoC4/BLE_LED_eventHandler.c **** #endif /* CYBLE_RTUS_CLIENT */
1159:.\Generated_Source\PSoC4/BLE_LED_eventHandler.c **** #ifdef CYBLE_SCPS_CLIENT
1160:.\Generated_Source\PSoC4/BLE_LED_eventHandler.c ****     if((cyBle_eventHandlerFlag & CYBLE_CALLBACK) != 0u)
1161:.\Generated_Source\PSoC4/BLE_LED_eventHandler.c ****     {
1162:.\Generated_Source\PSoC4/BLE_LED_eventHandler.c ****         CyBle_ScpscReadResponseEventHandler(eventParam);
1163:.\Generated_Source\PSoC4/BLE_LED_eventHandler.c ****     }
1164:.\Generated_Source\PSoC4/BLE_LED_eventHandler.c **** #endif /* CYBLE_SCPS_CLIENT */
1165:.\Generated_Source\PSoC4/BLE_LED_eventHandler.c **** #ifdef CYBLE_TPS_CLIENT
1166:.\Generated_Source\PSoC4/BLE_LED_eventHandler.c ****     if((cyBle_eventHandlerFlag & CYBLE_CALLBACK) != 0u)
1167:.\Generated_Source\PSoC4/BLE_LED_eventHandler.c ****     {
1168:.\Generated_Source\PSoC4/BLE_LED_eventHandler.c ****         CyBle_TpscReadResponseEventHandler(eventParam);
1169:.\Generated_Source\PSoC4/BLE_LED_eventHandler.c ****     }
1170:.\Generated_Source\PSoC4/BLE_LED_eventHandler.c **** #endif /* CYBLE_TPS_CLIENT */
1171:.\Generated_Source\PSoC4/BLE_LED_eventHandler.c **** #ifdef CYBLE_UDS_CLIENT
1172:.\Generated_Source\PSoC4/BLE_LED_eventHandler.c ****     if((cyBle_eventHandlerFlag & CYBLE_CALLBACK) != 0u)
1173:.\Generated_Source\PSoC4/BLE_LED_eventHandler.c ****     {
ARM GAS  C:\Users\tiantiaf\AppData\Local\Temp\cc2Xz98j.s 			page 22


1174:.\Generated_Source\PSoC4/BLE_LED_eventHandler.c ****         CyBle_UdscReadResponseEventHandler(eventParam);
1175:.\Generated_Source\PSoC4/BLE_LED_eventHandler.c ****     }
1176:.\Generated_Source\PSoC4/BLE_LED_eventHandler.c **** #endif /* CYBLE_UDS_CLIENT */
1177:.\Generated_Source\PSoC4/BLE_LED_eventHandler.c **** #ifdef CYBLE_WPTS_CLIENT
1178:.\Generated_Source\PSoC4/BLE_LED_eventHandler.c ****     if((cyBle_eventHandlerFlag & CYBLE_CALLBACK) != 0u)
1179:.\Generated_Source\PSoC4/BLE_LED_eventHandler.c ****     {
1180:.\Generated_Source\PSoC4/BLE_LED_eventHandler.c ****         CyBle_WptscReadResponseEventHandler(eventParam);
1181:.\Generated_Source\PSoC4/BLE_LED_eventHandler.c ****     }
1182:.\Generated_Source\PSoC4/BLE_LED_eventHandler.c **** #endif /* CYBLE_WPTS_CLIENT */
1183:.\Generated_Source\PSoC4/BLE_LED_eventHandler.c **** #ifdef CYBLE_WSS_CLIENT
1184:.\Generated_Source\PSoC4/BLE_LED_eventHandler.c ****     if((cyBle_eventHandlerFlag & CYBLE_CALLBACK) != 0u)
1185:.\Generated_Source\PSoC4/BLE_LED_eventHandler.c ****     {
1186:.\Generated_Source\PSoC4/BLE_LED_eventHandler.c ****         CyBle_WsscReadResponseEventHandler(eventParam);
1187:.\Generated_Source\PSoC4/BLE_LED_eventHandler.c ****     }
1188:.\Generated_Source\PSoC4/BLE_LED_eventHandler.c **** #endif /* CYBLE_WSS_CLIENT */
1189:.\Generated_Source\PSoC4/BLE_LED_eventHandler.c **** }
1190:.\Generated_Source\PSoC4/BLE_LED_eventHandler.c **** 
1191:.\Generated_Source\PSoC4/BLE_LED_eventHandler.c **** /******************************************************************************    
1192:.\Generated_Source\PSoC4/BLE_LED_eventHandler.c **** * Function Name: CyBle_ReadMultipleResponseEventHandler
1193:.\Generated_Source\PSoC4/BLE_LED_eventHandler.c **** ***************************************************************************//**
1194:.\Generated_Source\PSoC4/BLE_LED_eventHandler.c **** * 
1195:.\Generated_Source\PSoC4/BLE_LED_eventHandler.c **** *  Handles the Read Multiple Response event from BLE stack.
1196:.\Generated_Source\PSoC4/BLE_LED_eventHandler.c **** * 
1197:.\Generated_Source\PSoC4/BLE_LED_eventHandler.c **** *  \param eventParam: event parameter
1198:.\Generated_Source\PSoC4/BLE_LED_eventHandler.c **** * 
1199:.\Generated_Source\PSoC4/BLE_LED_eventHandler.c **** * \return
1200:.\Generated_Source\PSoC4/BLE_LED_eventHandler.c **** *  None
1201:.\Generated_Source\PSoC4/BLE_LED_eventHandler.c **** * 
1202:.\Generated_Source\PSoC4/BLE_LED_eventHandler.c **** ******************************************************************************/
1203:.\Generated_Source\PSoC4/BLE_LED_eventHandler.c **** static void CyBle_ReadMultipleResponseEventHandler(CYBLE_GATTC_READ_RSP_PARAM_T *eventParam)
1204:.\Generated_Source\PSoC4/BLE_LED_eventHandler.c **** {
1205:.\Generated_Source\PSoC4/BLE_LED_eventHandler.c **** #ifdef CYBLE_CUSTOM_CLIENT
1206:.\Generated_Source\PSoC4/BLE_LED_eventHandler.c ****     /* Read response with 128-bit included service uuid */
1207:.\Generated_Source\PSoC4/BLE_LED_eventHandler.c ****     if((CYBLE_CLIENT_STATE_INCL_DISCOVERING == CyBle_GetClientState()) &&
1208:.\Generated_Source\PSoC4/BLE_LED_eventHandler.c ****        (cyBle_discInclInfo.inclDefHandle != 0u))
1209:.\Generated_Source\PSoC4/BLE_LED_eventHandler.c ****     {
1210:.\Generated_Source\PSoC4/BLE_LED_eventHandler.c ****         CYBLE_DISC_SRVC128_INFO_T discServInfo;
1211:.\Generated_Source\PSoC4/BLE_LED_eventHandler.c **** 
1212:.\Generated_Source\PSoC4/BLE_LED_eventHandler.c ****         /* Store service range */
1213:.\Generated_Source\PSoC4/BLE_LED_eventHandler.c ****         discServInfo.range = cyBle_discInclInfo.inclHandleRange;
1214:.\Generated_Source\PSoC4/BLE_LED_eventHandler.c ****         (void)memcpy((void *) discServInfo.uuid.uuid128.value, (void *)eventParam->value.val, event
1215:.\Generated_Source\PSoC4/BLE_LED_eventHandler.c ****         CyBle_CustomcDiscoverServiceEventHandler(&discServInfo);
1216:.\Generated_Source\PSoC4/BLE_LED_eventHandler.c ****         
1217:.\Generated_Source\PSoC4/BLE_LED_eventHandler.c ****         /* Re-initiate CyBle_GattcFindIncludedServices function, setting the start
1218:.\Generated_Source\PSoC4/BLE_LED_eventHandler.c ****            handle to the attribute handle which is placed next to the one used in
1219:.\Generated_Source\PSoC4/BLE_LED_eventHandler.c ****            the above step.
1220:.\Generated_Source\PSoC4/BLE_LED_eventHandler.c ****         */
1221:.\Generated_Source\PSoC4/BLE_LED_eventHandler.c ****         discServInfo.range.startHandle = cyBle_discInclInfo.inclDefHandle + 1;
1222:.\Generated_Source\PSoC4/BLE_LED_eventHandler.c ****         discServInfo.range.endHandle = cyBle_serverInfo[cyBle_disCount].range.endHandle;
1223:.\Generated_Source\PSoC4/BLE_LED_eventHandler.c ****         if(discServInfo.range.startHandle <= discServInfo.range.endHandle)
1224:.\Generated_Source\PSoC4/BLE_LED_eventHandler.c ****         {
1225:.\Generated_Source\PSoC4/BLE_LED_eventHandler.c ****             if(CYBLE_ERROR_OK != CyBle_GattcFindIncludedServices(cyBle_connHandle, &discServInfo.ra
1226:.\Generated_Source\PSoC4/BLE_LED_eventHandler.c ****             {
1227:.\Generated_Source\PSoC4/BLE_LED_eventHandler.c ****                 CyBle_ApplCallback(CYBLE_EVT_GATTC_INCL_DISCOVERY_FAILED, NULL);
1228:.\Generated_Source\PSoC4/BLE_LED_eventHandler.c ****                 cyBle_eventHandlerFlag &= (uint8)~CYBLE_AUTO_DISCOVERY;
1229:.\Generated_Source\PSoC4/BLE_LED_eventHandler.c ****             }
1230:.\Generated_Source\PSoC4/BLE_LED_eventHandler.c ****         }
ARM GAS  C:\Users\tiantiaf\AppData\Local\Temp\cc2Xz98j.s 			page 23


1231:.\Generated_Source\PSoC4/BLE_LED_eventHandler.c ****         else /* Continue discovery of the following service */
1232:.\Generated_Source\PSoC4/BLE_LED_eventHandler.c ****         {
1233:.\Generated_Source\PSoC4/BLE_LED_eventHandler.c ****             CyBle_NextInclDiscovery(CYBLE_DISCOVERY_CONTINUE);
1234:.\Generated_Source\PSoC4/BLE_LED_eventHandler.c ****         }
1235:.\Generated_Source\PSoC4/BLE_LED_eventHandler.c ****         
1236:.\Generated_Source\PSoC4/BLE_LED_eventHandler.c ****         cyBle_eventHandlerFlag &= (uint8)~CYBLE_CALLBACK;
1237:.\Generated_Source\PSoC4/BLE_LED_eventHandler.c ****     #ifdef CYBLE_CUSTOM_CLIENT
1238:.\Generated_Source\PSoC4/BLE_LED_eventHandler.c ****         cyBle_discInclInfo.inclDefHandle = 0u;
1239:.\Generated_Source\PSoC4/BLE_LED_eventHandler.c ****     #endif /* CYBLE_CUSTOM_CLIENT */
1240:.\Generated_Source\PSoC4/BLE_LED_eventHandler.c ****     }
1241:.\Generated_Source\PSoC4/BLE_LED_eventHandler.c **** #endif /* CYBLE_CUSTOM_CLIENT */
1242:.\Generated_Source\PSoC4/BLE_LED_eventHandler.c **** #ifdef CYBLE_IPS_CLIENT
1243:.\Generated_Source\PSoC4/BLE_LED_eventHandler.c ****     if((cyBle_eventHandlerFlag & CYBLE_CALLBACK) != 0u)
1244:.\Generated_Source\PSoC4/BLE_LED_eventHandler.c ****     {
1245:.\Generated_Source\PSoC4/BLE_LED_eventHandler.c ****         CyBle_IpscReadMultipleResponseEventHandler(eventParam);
1246:.\Generated_Source\PSoC4/BLE_LED_eventHandler.c ****     }
1247:.\Generated_Source\PSoC4/BLE_LED_eventHandler.c **** #endif /* CYBLE_IPS_CLIENT */
1248:.\Generated_Source\PSoC4/BLE_LED_eventHandler.c ****     /* MISRA 16.7 violavion workarround */
1249:.\Generated_Source\PSoC4/BLE_LED_eventHandler.c ****     eventParam = eventParam;
1250:.\Generated_Source\PSoC4/BLE_LED_eventHandler.c **** }
1251:.\Generated_Source\PSoC4/BLE_LED_eventHandler.c **** #endif /* CYBLE_GATT_ROLE_CLIENT */
1252:.\Generated_Source\PSoC4/BLE_LED_eventHandler.c **** 
1253:.\Generated_Source\PSoC4/BLE_LED_eventHandler.c **** 
1254:.\Generated_Source\PSoC4/BLE_LED_eventHandler.c **** /****************************************************************************** 
1255:.\Generated_Source\PSoC4/BLE_LED_eventHandler.c **** * Function Name: CyBle_DisconnectEventHandler
1256:.\Generated_Source\PSoC4/BLE_LED_eventHandler.c **** ***************************************************************************//**
1257:.\Generated_Source\PSoC4/BLE_LED_eventHandler.c **** * 
1258:.\Generated_Source\PSoC4/BLE_LED_eventHandler.c **** *  Handles the GATT Disconnection event from the BLE stack.
1259:.\Generated_Source\PSoC4/BLE_LED_eventHandler.c **** * 
1260:.\Generated_Source\PSoC4/BLE_LED_eventHandler.c **** * \return
1261:.\Generated_Source\PSoC4/BLE_LED_eventHandler.c **** *  None
1262:.\Generated_Source\PSoC4/BLE_LED_eventHandler.c **** * 
1263:.\Generated_Source\PSoC4/BLE_LED_eventHandler.c **** ******************************************************************************/
1264:.\Generated_Source\PSoC4/BLE_LED_eventHandler.c **** static void CyBle_GattDisconnectEventHandler(void)
1265:.\Generated_Source\PSoC4/BLE_LED_eventHandler.c **** {
  25              		.loc 1 1265 0
  26              		.cfi_startproc
1266:.\Generated_Source\PSoC4/BLE_LED_eventHandler.c ****     cyBle_connHandle.attId = 0u;
  27              		.loc 1 1266 0
  28 0000 024B     		ldr	r3, .L2
  29 0002 0022     		mov	r2, #0
  30 0004 5A70     		strb	r2, [r3, #1]
1267:.\Generated_Source\PSoC4/BLE_LED_eventHandler.c ****     cyBle_connHandle.bdHandle = 0u;
  31              		.loc 1 1267 0
  32 0006 1A70     		strb	r2, [r3]
1268:.\Generated_Source\PSoC4/BLE_LED_eventHandler.c ****     
1269:.\Generated_Source\PSoC4/BLE_LED_eventHandler.c ****     #if (CYBLE_GATT_ROLE_CLIENT)
1270:.\Generated_Source\PSoC4/BLE_LED_eventHandler.c ****         if(CYBLE_CLIENT_STATE_DISCOVERED == CyBle_GetClientState())
1271:.\Generated_Source\PSoC4/BLE_LED_eventHandler.c ****         {
1272:.\Generated_Source\PSoC4/BLE_LED_eventHandler.c ****             CyBle_SetClientState(CYBLE_CLIENT_STATE_DISCONNECTED_DISCOVERED);
1273:.\Generated_Source\PSoC4/BLE_LED_eventHandler.c ****         }
1274:.\Generated_Source\PSoC4/BLE_LED_eventHandler.c ****         else
1275:.\Generated_Source\PSoC4/BLE_LED_eventHandler.c ****         {
1276:.\Generated_Source\PSoC4/BLE_LED_eventHandler.c ****             CyBle_SetClientState(CYBLE_CLIENT_STATE_DISCONNECTED);
1277:.\Generated_Source\PSoC4/BLE_LED_eventHandler.c ****         }
1278:.\Generated_Source\PSoC4/BLE_LED_eventHandler.c ****     #endif /* CYBLE_GATT_ROLE_CLIENT */
1279:.\Generated_Source\PSoC4/BLE_LED_eventHandler.c ****         
ARM GAS  C:\Users\tiantiaf\AppData\Local\Temp\cc2Xz98j.s 			page 24


1280:.\Generated_Source\PSoC4/BLE_LED_eventHandler.c ****     #ifdef CYBLE_CPS_SERVER
1281:.\Generated_Source\PSoC4/BLE_LED_eventHandler.c ****         #if CYBLE_GAP_ROLE_BROADCASTER
1282:.\Generated_Source\PSoC4/BLE_LED_eventHandler.c ****             CyBle_CpssDisconnectEventHandler();
1283:.\Generated_Source\PSoC4/BLE_LED_eventHandler.c ****         #endif /* CYBLE_GAP_ROLE_BROADCASTER */
1284:.\Generated_Source\PSoC4/BLE_LED_eventHandler.c ****     #endif /* CYBLE_CPS_SERVER */
1285:.\Generated_Source\PSoC4/BLE_LED_eventHandler.c **** 
1286:.\Generated_Source\PSoC4/BLE_LED_eventHandler.c ****     #ifdef CYBLE_CPS_CLIENT
1287:.\Generated_Source\PSoC4/BLE_LED_eventHandler.c ****         CyBle_CpscDisconnectEventHandler();
1288:.\Generated_Source\PSoC4/BLE_LED_eventHandler.c ****     #endif /* CYBLE_CPS_CLIENT */
1289:.\Generated_Source\PSoC4/BLE_LED_eventHandler.c **** 
1290:.\Generated_Source\PSoC4/BLE_LED_eventHandler.c ****     #ifdef CYBLE_IAS_SERVER
1291:.\Generated_Source\PSoC4/BLE_LED_eventHandler.c ****         CyBle_IassDisconnectEventHandler();
1292:.\Generated_Source\PSoC4/BLE_LED_eventHandler.c ****     #endif /* CYBLE_IAS_SERVER */
1293:.\Generated_Source\PSoC4/BLE_LED_eventHandler.c ****     
1294:.\Generated_Source\PSoC4/BLE_LED_eventHandler.c ****     #ifdef CYBLE_GLS_SERVER
1295:.\Generated_Source\PSoC4/BLE_LED_eventHandler.c ****         CyBle_GlsInit();
1296:.\Generated_Source\PSoC4/BLE_LED_eventHandler.c ****     #endif /* CYBLE_GLS_SERVER */
1297:.\Generated_Source\PSoC4/BLE_LED_eventHandler.c ****     
1298:.\Generated_Source\PSoC4/BLE_LED_eventHandler.c ****     #ifdef CYBLE_LNS_SERVER
1299:.\Generated_Source\PSoC4/BLE_LED_eventHandler.c ****         CyBle_LnsInit();
1300:.\Generated_Source\PSoC4/BLE_LED_eventHandler.c ****     #endif /* CYBLE_LNS_SERVER */
1301:.\Generated_Source\PSoC4/BLE_LED_eventHandler.c ****     
1302:.\Generated_Source\PSoC4/BLE_LED_eventHandler.c ****     #ifdef CYBLE_UDS_SERVER
1303:.\Generated_Source\PSoC4/BLE_LED_eventHandler.c ****         CyBle_UdsInit();
1304:.\Generated_Source\PSoC4/BLE_LED_eventHandler.c ****     #endif /* CYBLE_UDS_SERVER */
1305:.\Generated_Source\PSoC4/BLE_LED_eventHandler.c **** }
  33              		.loc 1 1305 0
  34              		@ sp needed
  35 0008 7047     		bx	lr
  36              	.L3:
  37 000a C046     		.align	2
  38              	.L2:
  39 000c 00000000 		.word	cyBle_connHandle
  40              		.cfi_endproc
  41              	.LFE4:
  42              		.size	CyBle_GattDisconnectEventHandler, .-CyBle_GattDisconnectEventHandler
  43              		.section	.text.CyBle_WriteReqHandler,"ax",%progbits
  44              		.align	2
  45              		.code	16
  46              		.thumb_func
  47              		.type	CyBle_WriteReqHandler, %function
  48              	CyBle_WriteReqHandler:
  49              	.LFB2:
 233:.\Generated_Source\PSoC4/BLE_LED_eventHandler.c ****     CYBLE_GATT_ERR_CODE_T gattErr;
  50              		.loc 1 233 0
  51              		.cfi_startproc
  52              	.LVL0:
  53 0000 10B5     		push	{r4, lr}
  54              		.cfi_def_cfa_offset 8
  55              		.cfi_offset 4, -8
  56              		.cfi_offset 14, -4
  57 0002 82B0     		sub	sp, sp, #8
  58              		.cfi_def_cfa_offset 16
  59 0004 041C     		mov	r4, r0
 239:.\Generated_Source\PSoC4/BLE_LED_eventHandler.c **** #ifdef CYBLE_ANCS_SERVER
  60              		.loc 1 239 0
  61 0006 FFF7FEFF 		bl	CyBle_GattsWriteEventHandler
ARM GAS  C:\Users\tiantiaf\AppData\Local\Temp\cc2Xz98j.s 			page 25


  62              	.LVL1:
 404:.\Generated_Source\PSoC4/BLE_LED_eventHandler.c ****     {
  63              		.loc 1 404 0
  64 000a 0A4B     		ldr	r3, .L7
  65 000c 1B78     		ldrb	r3, [r3]
  66 000e DB07     		lsl	r3, r3, #31
  67 0010 0ED4     		bmi	.L4
 406:.\Generated_Source\PSoC4/BLE_LED_eventHandler.c ****         {
  68              		.loc 1 406 0
  69 0012 0028     		cmp	r0, #0
  70 0014 09D0     		beq	.L6
  71              	.LBB2:
 410:.\Generated_Source\PSoC4/BLE_LED_eventHandler.c ****             err_param.attrHandle = eventParam->handleValPair.attrHandle;
  72              		.loc 1 410 0
  73 0016 01A9     		add	r1, sp, #4
  74 0018 1223     		mov	r3, #18
  75 001a 8B70     		strb	r3, [r1, #2]
 411:.\Generated_Source\PSoC4/BLE_LED_eventHandler.c ****             err_param.errorCode = gattErr;
  76              		.loc 1 411 0
  77 001c A389     		ldrh	r3, [r4, #12]
  78 001e 0B80     		strh	r3, [r1]
 412:.\Generated_Source\PSoC4/BLE_LED_eventHandler.c **** 
  79              		.loc 1 412 0
  80 0020 C870     		strb	r0, [r1, #3]
 415:.\Generated_Source\PSoC4/BLE_LED_eventHandler.c ****         }
  81              		.loc 1 415 0
  82 0022 2068     		ldr	r0, [r4]
  83              	.LVL2:
  84 0024 FFF7FEFF 		bl	CyBle_GattsErrorRsp
  85              	.LVL3:
  86              	.LBE2:
  87 0028 02E0     		b	.L4
  88              	.LVL4:
  89              	.L6:
 419:.\Generated_Source\PSoC4/BLE_LED_eventHandler.c ****         }
  90              		.loc 1 419 0
  91 002a 2068     		ldr	r0, [r4]
  92              	.LVL5:
  93 002c FFF7FEFF 		bl	CyBle_GattsWriteRsp
  94              	.LVL6:
  95              	.L4:
 422:.\Generated_Source\PSoC4/BLE_LED_eventHandler.c **** 
  96              		.loc 1 422 0
  97 0030 02B0     		add	sp, sp, #8
  98              		@ sp needed
  99              	.LVL7:
 100 0032 10BD     		pop	{r4, pc}
 101              	.L8:
 102              		.align	2
 103              	.L7:
 104 0034 00000000 		.word	cyBle_eventHandlerFlag
 105              		.cfi_endproc
 106              	.LFE2:
 107              		.size	CyBle_WriteReqHandler, .-CyBle_WriteReqHandler
 108              		.section	.text.CyBle_IsDeviceAddressValid,"ax",%progbits
 109              		.align	2
 110              		.global	CyBle_IsDeviceAddressValid
ARM GAS  C:\Users\tiantiaf\AppData\Local\Temp\cc2Xz98j.s 			page 26


 111              		.code	16
 112              		.thumb_func
 113              		.type	CyBle_IsDeviceAddressValid, %function
 114              	CyBle_IsDeviceAddressValid:
 115              	.LFB7:
1306:.\Generated_Source\PSoC4/BLE_LED_eventHandler.c **** 
1307:.\Generated_Source\PSoC4/BLE_LED_eventHandler.c **** 
1308:.\Generated_Source\PSoC4/BLE_LED_eventHandler.c **** /****************************************************************************** 
1309:.\Generated_Source\PSoC4/BLE_LED_eventHandler.c **** * Function Name: CyBle_TimeOutEventHandler
1310:.\Generated_Source\PSoC4/BLE_LED_eventHandler.c **** ***************************************************************************//**
1311:.\Generated_Source\PSoC4/BLE_LED_eventHandler.c **** * 
1312:.\Generated_Source\PSoC4/BLE_LED_eventHandler.c **** *  Handles the CYBLE_EVT_TIMEOUT event from the BLE stack.
1313:.\Generated_Source\PSoC4/BLE_LED_eventHandler.c **** * 
1314:.\Generated_Source\PSoC4/BLE_LED_eventHandler.c **** *  \param eventParam: The pointer to a structure of type CYBLE_TO_REASON_CODE_T.
1315:.\Generated_Source\PSoC4/BLE_LED_eventHandler.c **** * 
1316:.\Generated_Source\PSoC4/BLE_LED_eventHandler.c **** * \return
1317:.\Generated_Source\PSoC4/BLE_LED_eventHandler.c **** *  None
1318:.\Generated_Source\PSoC4/BLE_LED_eventHandler.c **** * 
1319:.\Generated_Source\PSoC4/BLE_LED_eventHandler.c **** ******************************************************************************/
1320:.\Generated_Source\PSoC4/BLE_LED_eventHandler.c **** static void CyBle_TimeOutEventHandler(const CYBLE_TO_REASON_CODE_T *eventParam)
1321:.\Generated_Source\PSoC4/BLE_LED_eventHandler.c **** {
1322:.\Generated_Source\PSoC4/BLE_LED_eventHandler.c ****     if(*eventParam == CYBLE_GATT_RSP_TO)
1323:.\Generated_Source\PSoC4/BLE_LED_eventHandler.c ****     {
1324:.\Generated_Source\PSoC4/BLE_LED_eventHandler.c ****     #if (CYBLE_GATT_ROLE_CLIENT)
1325:.\Generated_Source\PSoC4/BLE_LED_eventHandler.c ****         if((cyBle_eventHandlerFlag & CYBLE_AUTO_DISCOVERY) != 0u)
1326:.\Generated_Source\PSoC4/BLE_LED_eventHandler.c ****         {
1327:.\Generated_Source\PSoC4/BLE_LED_eventHandler.c ****             switch(CyBle_GetClientState())
1328:.\Generated_Source\PSoC4/BLE_LED_eventHandler.c ****             {
1329:.\Generated_Source\PSoC4/BLE_LED_eventHandler.c ****                 case CYBLE_CLIENT_STATE_SRVC_DISCOVERING:
1330:.\Generated_Source\PSoC4/BLE_LED_eventHandler.c ****                     CyBle_ApplCallback(CYBLE_EVT_GATTC_SRVC_DISCOVERY_FAILED, NULL);
1331:.\Generated_Source\PSoC4/BLE_LED_eventHandler.c ****                     break;
1332:.\Generated_Source\PSoC4/BLE_LED_eventHandler.c ****                 case CYBLE_CLIENT_STATE_INCL_DISCOVERING:
1333:.\Generated_Source\PSoC4/BLE_LED_eventHandler.c ****                     CyBle_ApplCallback(CYBLE_EVT_GATTC_INCL_DISCOVERY_FAILED, NULL);
1334:.\Generated_Source\PSoC4/BLE_LED_eventHandler.c ****                     break;
1335:.\Generated_Source\PSoC4/BLE_LED_eventHandler.c ****                 case CYBLE_CLIENT_STATE_CHAR_DISCOVERING:
1336:.\Generated_Source\PSoC4/BLE_LED_eventHandler.c ****                     CyBle_ApplCallback(CYBLE_EVT_GATTC_CHAR_DISCOVERY_FAILED, NULL);
1337:.\Generated_Source\PSoC4/BLE_LED_eventHandler.c ****                     break;
1338:.\Generated_Source\PSoC4/BLE_LED_eventHandler.c ****                 case CYBLE_CLIENT_STATE_DESCR_DISCOVERING:
1339:.\Generated_Source\PSoC4/BLE_LED_eventHandler.c ****                     CyBle_ApplCallback(CYBLE_EVT_GATTC_DESCR_DISCOVERY_FAILED, NULL);
1340:.\Generated_Source\PSoC4/BLE_LED_eventHandler.c ****                     break;
1341:.\Generated_Source\PSoC4/BLE_LED_eventHandler.c ****                 default:        /* Other states should not be set in Auto discovery mode */
1342:.\Generated_Source\PSoC4/BLE_LED_eventHandler.c ****                     break;
1343:.\Generated_Source\PSoC4/BLE_LED_eventHandler.c ****             }
1344:.\Generated_Source\PSoC4/BLE_LED_eventHandler.c ****             cyBle_eventHandlerFlag &= (uint8)~CYBLE_AUTO_DISCOVERY;
1345:.\Generated_Source\PSoC4/BLE_LED_eventHandler.c ****             CyBle_SetClientState(CYBLE_CLIENT_STATE_CONNECTED);
1346:.\Generated_Source\PSoC4/BLE_LED_eventHandler.c ****         }
1347:.\Generated_Source\PSoC4/BLE_LED_eventHandler.c ****     #endif /* CYBLE_GATT_ROLE_CLIENT */
1348:.\Generated_Source\PSoC4/BLE_LED_eventHandler.c ****     #ifdef CYBLE_CPS_SERVER
1349:.\Generated_Source\PSoC4/BLE_LED_eventHandler.c ****         CyBle_CpssTimeOutEventHandler();
1350:.\Generated_Source\PSoC4/BLE_LED_eventHandler.c ****     #endif /* CYBLE_CPS_SERVER */
1351:.\Generated_Source\PSoC4/BLE_LED_eventHandler.c ****     }
1352:.\Generated_Source\PSoC4/BLE_LED_eventHandler.c ****     
1353:.\Generated_Source\PSoC4/BLE_LED_eventHandler.c ****     /* Connection procedure timeout */
1354:.\Generated_Source\PSoC4/BLE_LED_eventHandler.c ****     if(*eventParam == CYBLE_GENERIC_TO)
1355:.\Generated_Source\PSoC4/BLE_LED_eventHandler.c ****     {
1356:.\Generated_Source\PSoC4/BLE_LED_eventHandler.c ****     #if(CYBLE_GAP_ROLE_CENTRAL)
1357:.\Generated_Source\PSoC4/BLE_LED_eventHandler.c ****         if(CYBLE_STATE_CONNECTING == CyBle_GetState())
ARM GAS  C:\Users\tiantiaf\AppData\Local\Temp\cc2Xz98j.s 			page 27


1358:.\Generated_Source\PSoC4/BLE_LED_eventHandler.c ****         {
1359:.\Generated_Source\PSoC4/BLE_LED_eventHandler.c ****             (void)CyBle_GapcCancelDeviceConnection();
1360:.\Generated_Source\PSoC4/BLE_LED_eventHandler.c ****         }
1361:.\Generated_Source\PSoC4/BLE_LED_eventHandler.c ****     #endif /* CYBLE_GAP_ROLE_CENTRAL */
1362:.\Generated_Source\PSoC4/BLE_LED_eventHandler.c ****     }
1363:.\Generated_Source\PSoC4/BLE_LED_eventHandler.c **** }
1364:.\Generated_Source\PSoC4/BLE_LED_eventHandler.c **** 
1365:.\Generated_Source\PSoC4/BLE_LED_eventHandler.c **** 
1366:.\Generated_Source\PSoC4/BLE_LED_eventHandler.c **** /****************************************************************************** 
1367:.\Generated_Source\PSoC4/BLE_LED_eventHandler.c **** * Function Name: CyBle_GattConnectReqHandler
1368:.\Generated_Source\PSoC4/BLE_LED_eventHandler.c **** ***************************************************************************//**
1369:.\Generated_Source\PSoC4/BLE_LED_eventHandler.c **** * 
1370:.\Generated_Source\PSoC4/BLE_LED_eventHandler.c **** *  Handles the GATT connect event from the BLE stack.
1371:.\Generated_Source\PSoC4/BLE_LED_eventHandler.c **** * 
1372:.\Generated_Source\PSoC4/BLE_LED_eventHandler.c **** * \return
1373:.\Generated_Source\PSoC4/BLE_LED_eventHandler.c **** *  None
1374:.\Generated_Source\PSoC4/BLE_LED_eventHandler.c **** * 
1375:.\Generated_Source\PSoC4/BLE_LED_eventHandler.c **** ******************************************************************************/
1376:.\Generated_Source\PSoC4/BLE_LED_eventHandler.c **** static void CyBle_GattConnectReqHandler(void)
1377:.\Generated_Source\PSoC4/BLE_LED_eventHandler.c **** {
1378:.\Generated_Source\PSoC4/BLE_LED_eventHandler.c ****     #ifdef CYBLE_CGMS_SERVER
1379:.\Generated_Source\PSoC4/BLE_LED_eventHandler.c ****         CyBle_CgmsInit();
1380:.\Generated_Source\PSoC4/BLE_LED_eventHandler.c ****     #endif /* CYBLE_CGMS_SERVER */
1381:.\Generated_Source\PSoC4/BLE_LED_eventHandler.c ****     
1382:.\Generated_Source\PSoC4/BLE_LED_eventHandler.c ****     #ifdef CYBLE_CPS_SERVER
1383:.\Generated_Source\PSoC4/BLE_LED_eventHandler.c ****         CyBle_CpssConnectEventHandler();
1384:.\Generated_Source\PSoC4/BLE_LED_eventHandler.c ****     #endif /* CYBLE_CPS_SERVER */
1385:.\Generated_Source\PSoC4/BLE_LED_eventHandler.c ****     
1386:.\Generated_Source\PSoC4/BLE_LED_eventHandler.c ****     #ifdef CYBLE_CSCS_SERVER
1387:.\Generated_Source\PSoC4/BLE_LED_eventHandler.c ****             CyBle_CscsInit();
1388:.\Generated_Source\PSoC4/BLE_LED_eventHandler.c ****     #endif /* CYBLE_CSCS_SERVER */
1389:.\Generated_Source\PSoC4/BLE_LED_eventHandler.c ****     
1390:.\Generated_Source\PSoC4/BLE_LED_eventHandler.c ****     #ifdef CYBLE_LLS_SERVER
1391:.\Generated_Source\PSoC4/BLE_LED_eventHandler.c ****         CyBle_LlssConnectEventHandler();
1392:.\Generated_Source\PSoC4/BLE_LED_eventHandler.c ****     #endif /* CYBLE_LLS_SERVER */
1393:.\Generated_Source\PSoC4/BLE_LED_eventHandler.c ****     
1394:.\Generated_Source\PSoC4/BLE_LED_eventHandler.c ****     #ifdef CYBLE_HIDS_SERVER
1395:.\Generated_Source\PSoC4/BLE_LED_eventHandler.c ****         CyBle_HidssOnDeviceConnected();
1396:.\Generated_Source\PSoC4/BLE_LED_eventHandler.c ****     #endif /* CYBLE_HIDS_SERVER */
1397:.\Generated_Source\PSoC4/BLE_LED_eventHandler.c **** 
1398:.\Generated_Source\PSoC4/BLE_LED_eventHandler.c ****     #ifdef CYBLE_RSCS_SERVER
1399:.\Generated_Source\PSoC4/BLE_LED_eventHandler.c ****         CyBle_RscsInit();
1400:.\Generated_Source\PSoC4/BLE_LED_eventHandler.c ****     #endif /* CYBLE_RSCS_SERVER */
1401:.\Generated_Source\PSoC4/BLE_LED_eventHandler.c **** }
1402:.\Generated_Source\PSoC4/BLE_LED_eventHandler.c **** 
1403:.\Generated_Source\PSoC4/BLE_LED_eventHandler.c **** 
1404:.\Generated_Source\PSoC4/BLE_LED_eventHandler.c **** #if (CYBLE_GATT_ROLE_SERVER || CYBLE_GATT_ROLE_CLIENT)
1405:.\Generated_Source\PSoC4/BLE_LED_eventHandler.c **** 
1406:.\Generated_Source\PSoC4/BLE_LED_eventHandler.c **** /****************************************************************************** 
1407:.\Generated_Source\PSoC4/BLE_LED_eventHandler.c **** * Function Name: CyBle_IsDeviceAddressValid
1408:.\Generated_Source\PSoC4/BLE_LED_eventHandler.c **** ***************************************************************************//**
1409:.\Generated_Source\PSoC4/BLE_LED_eventHandler.c **** * 
1410:.\Generated_Source\PSoC4/BLE_LED_eventHandler.c **** *  This function verifies that BLE public address has been programmed to SFLASH 
1411:.\Generated_Source\PSoC4/BLE_LED_eventHandler.c **** *  during manufacture. It could be used to verify if public device address is 
1412:.\Generated_Source\PSoC4/BLE_LED_eventHandler.c **** *  programmed to flash memory.
1413:.\Generated_Source\PSoC4/BLE_LED_eventHandler.c **** * 
1414:.\Generated_Source\PSoC4/BLE_LED_eventHandler.c **** *  \param deviceAddress: the pointer to the BD address of type CYBLE_GAP_BD_ADDR_T. 
ARM GAS  C:\Users\tiantiaf\AppData\Local\Temp\cc2Xz98j.s 			page 28


1415:.\Generated_Source\PSoC4/BLE_LED_eventHandler.c **** * 
1416:.\Generated_Source\PSoC4/BLE_LED_eventHandler.c **** * \return
1417:.\Generated_Source\PSoC4/BLE_LED_eventHandler.c **** *  Non zero value when a device address differs from the default SFLASH content.
1418:.\Generated_Source\PSoC4/BLE_LED_eventHandler.c **** * 
1419:.\Generated_Source\PSoC4/BLE_LED_eventHandler.c **** ******************************************************************************/
1420:.\Generated_Source\PSoC4/BLE_LED_eventHandler.c **** uint8 CyBle_IsDeviceAddressValid(const CYBLE_GAP_BD_ADDR_T *deviceAddress)
1421:.\Generated_Source\PSoC4/BLE_LED_eventHandler.c **** {
 116              		.loc 1 1421 0
 117              		.cfi_startproc
 118              	.LVL8:
1422:.\Generated_Source\PSoC4/BLE_LED_eventHandler.c ****     uint8 i;
1423:.\Generated_Source\PSoC4/BLE_LED_eventHandler.c ****     uint8 addressValid = 0u;
1424:.\Generated_Source\PSoC4/BLE_LED_eventHandler.c ****     
1425:.\Generated_Source\PSoC4/BLE_LED_eventHandler.c ****     if(deviceAddress -> type == CYBLE_GAP_ADDR_TYPE_PUBLIC)  
 119              		.loc 1 1425 0
 120 0000 8379     		ldrb	r3, [r0, #6]
 121 0002 002B     		cmp	r3, #0
 122 0004 07D0     		beq	.L13
1423:.\Generated_Source\PSoC4/BLE_LED_eventHandler.c ****     
 123              		.loc 1 1423 0
 124 0006 0020     		mov	r0, #0
 125              	.LVL9:
 126 0008 0BE0     		b	.L11
 127              	.LVL10:
 128              	.L12:
1426:.\Generated_Source\PSoC4/BLE_LED_eventHandler.c ****     {
1427:.\Generated_Source\PSoC4/BLE_LED_eventHandler.c ****         for(i = 0u; i < CYBLE_GAP_BD_ADDR_SIZE; i++)
1428:.\Generated_Source\PSoC4/BLE_LED_eventHandler.c ****         {
1429:.\Generated_Source\PSoC4/BLE_LED_eventHandler.c ****             if(deviceAddress->bdAddr[i] != 0u)
 129              		.loc 1 1429 0
 130 000a C25C     		ldrb	r2, [r0, r3]
 131 000c 002A     		cmp	r2, #0
 132 000e 07D1     		bne	.L14
1427:.\Generated_Source\PSoC4/BLE_LED_eventHandler.c ****         {
 133              		.loc 1 1427 0 discriminator 2
 134 0010 0133     		add	r3, r3, #1
 135              	.LVL11:
 136 0012 DBB2     		uxtb	r3, r3
 137              	.LVL12:
 138 0014 00E0     		b	.L10
 139              	.LVL13:
 140              	.L13:
 141 0016 0023     		mov	r3, #0
 142              	.L10:
 143              	.LVL14:
1427:.\Generated_Source\PSoC4/BLE_LED_eventHandler.c ****         {
 144              		.loc 1 1427 0 is_stmt 0 discriminator 1
 145 0018 052B     		cmp	r3, #5
 146 001a F6D9     		bls	.L12
1423:.\Generated_Source\PSoC4/BLE_LED_eventHandler.c ****     
 147              		.loc 1 1423 0 is_stmt 1
 148 001c 0020     		mov	r0, #0
 149              	.LVL15:
 150 001e 00E0     		b	.L11
 151              	.LVL16:
 152              	.L14:
1430:.\Generated_Source\PSoC4/BLE_LED_eventHandler.c ****             {
ARM GAS  C:\Users\tiantiaf\AppData\Local\Temp\cc2Xz98j.s 			page 29


1431:.\Generated_Source\PSoC4/BLE_LED_eventHandler.c ****                 addressValid = 1u;
 153              		.loc 1 1431 0
 154 0020 0120     		mov	r0, #1
 155              	.LVL17:
 156              	.L11:
1432:.\Generated_Source\PSoC4/BLE_LED_eventHandler.c ****                 break;
1433:.\Generated_Source\PSoC4/BLE_LED_eventHandler.c ****             }
1434:.\Generated_Source\PSoC4/BLE_LED_eventHandler.c ****         }
1435:.\Generated_Source\PSoC4/BLE_LED_eventHandler.c ****     }
1436:.\Generated_Source\PSoC4/BLE_LED_eventHandler.c ****     return (addressValid);
1437:.\Generated_Source\PSoC4/BLE_LED_eventHandler.c **** }
 157              		.loc 1 1437 0
 158              		@ sp needed
 159 0022 7047     		bx	lr
 160              		.cfi_endproc
 161              	.LFE7:
 162              		.size	CyBle_IsDeviceAddressValid, .-CyBle_IsDeviceAddressValid
 163              		.section	.text.CyBle_EventHandler,"ax",%progbits
 164              		.align	2
 165              		.global	CyBle_EventHandler
 166              		.code	16
 167              		.thumb_func
 168              		.type	CyBle_EventHandler, %function
 169              	CyBle_EventHandler:
 170              	.LFB10:
1438:.\Generated_Source\PSoC4/BLE_LED_eventHandler.c **** #endif /* CYBLE_GATT_ROLE_SERVER || CYBLE_GATT_ROLE_CLIENT */
1439:.\Generated_Source\PSoC4/BLE_LED_eventHandler.c **** 
1440:.\Generated_Source\PSoC4/BLE_LED_eventHandler.c **** 
1441:.\Generated_Source\PSoC4/BLE_LED_eventHandler.c **** /****************************************************************************** 
1442:.\Generated_Source\PSoC4/BLE_LED_eventHandler.c **** * Function Name: CyBle_L2Cap_ConnParamUpdateRspHandler
1443:.\Generated_Source\PSoC4/BLE_LED_eventHandler.c **** ***************************************************************************//**
1444:.\Generated_Source\PSoC4/BLE_LED_eventHandler.c **** * 
1445:.\Generated_Source\PSoC4/BLE_LED_eventHandler.c **** *  Handles the L2CAP connection parameter response event from
1446:.\Generated_Source\PSoC4/BLE_LED_eventHandler.c **** *  the BLE stack.
1447:.\Generated_Source\PSoC4/BLE_LED_eventHandler.c **** * 
1448:.\Generated_Source\PSoC4/BLE_LED_eventHandler.c **** *  \param response:
1449:.\Generated_Source\PSoC4/BLE_LED_eventHandler.c **** *      * Accepted = 0x0000
1450:.\Generated_Source\PSoC4/BLE_LED_eventHandler.c **** *      * Rejected = 0x0001
1451:.\Generated_Source\PSoC4/BLE_LED_eventHandler.c **** * 
1452:.\Generated_Source\PSoC4/BLE_LED_eventHandler.c **** * \return
1453:.\Generated_Source\PSoC4/BLE_LED_eventHandler.c **** *  None
1454:.\Generated_Source\PSoC4/BLE_LED_eventHandler.c **** * 
1455:.\Generated_Source\PSoC4/BLE_LED_eventHandler.c **** ******************************************************************************/
1456:.\Generated_Source\PSoC4/BLE_LED_eventHandler.c **** static void CyBle_L2Cap_ConnParamUpdateRspEventHandler(uint16 response)
1457:.\Generated_Source\PSoC4/BLE_LED_eventHandler.c **** {
1458:.\Generated_Source\PSoC4/BLE_LED_eventHandler.c ****     #ifdef CYBLE_CPS_SERVER
1459:.\Generated_Source\PSoC4/BLE_LED_eventHandler.c ****         CyBle_CpssConnParamUpdateRspEventHandler(response);
1460:.\Generated_Source\PSoC4/BLE_LED_eventHandler.c ****     #endif /* CYBLE_CPS_SERVER */
1461:.\Generated_Source\PSoC4/BLE_LED_eventHandler.c ****     
1462:.\Generated_Source\PSoC4/BLE_LED_eventHandler.c ****     /* Unreferenced variable warning workaround */
1463:.\Generated_Source\PSoC4/BLE_LED_eventHandler.c ****     if(response != 0u)
1464:.\Generated_Source\PSoC4/BLE_LED_eventHandler.c ****     {
1465:.\Generated_Source\PSoC4/BLE_LED_eventHandler.c ****     }
1466:.\Generated_Source\PSoC4/BLE_LED_eventHandler.c **** }
1467:.\Generated_Source\PSoC4/BLE_LED_eventHandler.c **** 
1468:.\Generated_Source\PSoC4/BLE_LED_eventHandler.c **** 
1469:.\Generated_Source\PSoC4/BLE_LED_eventHandler.c **** /****************************************************************************** 
ARM GAS  C:\Users\tiantiaf\AppData\Local\Temp\cc2Xz98j.s 			page 30


1470:.\Generated_Source\PSoC4/BLE_LED_eventHandler.c **** * Function Name: CyBle_GapConnUpdateCompleteEventHandler
1471:.\Generated_Source\PSoC4/BLE_LED_eventHandler.c **** ***************************************************************************//**
1472:.\Generated_Source\PSoC4/BLE_LED_eventHandler.c **** * 
1473:.\Generated_Source\PSoC4/BLE_LED_eventHandler.c **** *  Handles the CYBLE_EVT_GAP_CONNECTION_UPDATE_COMPLETE event from
1474:.\Generated_Source\PSoC4/BLE_LED_eventHandler.c **** *  the BLE stack.
1475:.\Generated_Source\PSoC4/BLE_LED_eventHandler.c **** * 
1476:.\Generated_Source\PSoC4/BLE_LED_eventHandler.c **** *  \param eventParam: The pointer to the data structure specified by the event.
1477:.\Generated_Source\PSoC4/BLE_LED_eventHandler.c **** * 
1478:.\Generated_Source\PSoC4/BLE_LED_eventHandler.c **** * \return
1479:.\Generated_Source\PSoC4/BLE_LED_eventHandler.c **** *  None
1480:.\Generated_Source\PSoC4/BLE_LED_eventHandler.c **** * 
1481:.\Generated_Source\PSoC4/BLE_LED_eventHandler.c **** ******************************************************************************/
1482:.\Generated_Source\PSoC4/BLE_LED_eventHandler.c **** static void CyBle_GapConnUpdateCompleteEventHandler(const CYBLE_GAP_CONN_PARAM_UPDATED_IN_CONTROLLE
1483:.\Generated_Source\PSoC4/BLE_LED_eventHandler.c **** {
1484:.\Generated_Source\PSoC4/BLE_LED_eventHandler.c ****     #ifdef CYBLE_CPS_SERVER
1485:.\Generated_Source\PSoC4/BLE_LED_eventHandler.c ****         CyBle_CpssConnUpdateCompleteEventHandler(eventParam);
1486:.\Generated_Source\PSoC4/BLE_LED_eventHandler.c ****     #endif /* CYBLE_CPS_SERVER */
1487:.\Generated_Source\PSoC4/BLE_LED_eventHandler.c ****     
1488:.\Generated_Source\PSoC4/BLE_LED_eventHandler.c ****     /* Unreferenced variable warning workaround */
1489:.\Generated_Source\PSoC4/BLE_LED_eventHandler.c ****     if(eventParam != 0u)
1490:.\Generated_Source\PSoC4/BLE_LED_eventHandler.c ****     {
1491:.\Generated_Source\PSoC4/BLE_LED_eventHandler.c ****     }
1492:.\Generated_Source\PSoC4/BLE_LED_eventHandler.c **** }
1493:.\Generated_Source\PSoC4/BLE_LED_eventHandler.c **** 
1494:.\Generated_Source\PSoC4/BLE_LED_eventHandler.c **** 
1495:.\Generated_Source\PSoC4/BLE_LED_eventHandler.c **** /****************************************************************************** 
1496:.\Generated_Source\PSoC4/BLE_LED_eventHandler.c **** * Function Name: CyBle_EventHandler
1497:.\Generated_Source\PSoC4/BLE_LED_eventHandler.c **** ***************************************************************************//**
1498:.\Generated_Source\PSoC4/BLE_LED_eventHandler.c **** * 
1499:.\Generated_Source\PSoC4/BLE_LED_eventHandler.c **** *  Handles the events from the BLE stack
1500:.\Generated_Source\PSoC4/BLE_LED_eventHandler.c **** * 
1501:.\Generated_Source\PSoC4/BLE_LED_eventHandler.c **** *  \param eventCode:    the event code
1502:.\Generated_Source\PSoC4/BLE_LED_eventHandler.c **** *  \param eventParam:  the event parameters
1503:.\Generated_Source\PSoC4/BLE_LED_eventHandler.c **** * 
1504:.\Generated_Source\PSoC4/BLE_LED_eventHandler.c **** * \return
1505:.\Generated_Source\PSoC4/BLE_LED_eventHandler.c **** *  None.
1506:.\Generated_Source\PSoC4/BLE_LED_eventHandler.c **** * 
1507:.\Generated_Source\PSoC4/BLE_LED_eventHandler.c **** ******************************************************************************/
1508:.\Generated_Source\PSoC4/BLE_LED_eventHandler.c **** void CyBle_EventHandler(uint8 eventCode, void *eventParam)
1509:.\Generated_Source\PSoC4/BLE_LED_eventHandler.c **** {
 171              		.loc 1 1509 0
 172              		.cfi_startproc
 173              	.LVL18:
 174 0000 F0B5     		push	{r4, r5, r6, r7, lr}
 175              		.cfi_def_cfa_offset 20
 176              		.cfi_offset 4, -20
 177              		.cfi_offset 5, -16
 178              		.cfi_offset 6, -12
 179              		.cfi_offset 7, -8
 180              		.cfi_offset 14, -4
 181 0002 83B0     		sub	sp, sp, #12
 182              		.cfi_def_cfa_offset 32
 183 0004 051C     		mov	r5, r0
 184 0006 0C1C     		mov	r4, r1
1510:.\Generated_Source\PSoC4/BLE_LED_eventHandler.c ****     cyBle_eventHandlerFlag |= CYBLE_CALLBACK;
 185              		.loc 1 1510 0
 186 0008 794A     		ldr	r2, .L37
ARM GAS  C:\Users\tiantiaf\AppData\Local\Temp\cc2Xz98j.s 			page 31


 187 000a 1178     		ldrb	r1, [r2]
 188              	.LVL19:
 189 000c 0123     		mov	r3, #1
 190 000e 0B43     		orr	r3, r1
 191 0010 1370     		strb	r3, [r2]
1511:.\Generated_Source\PSoC4/BLE_LED_eventHandler.c **** 
1512:.\Generated_Source\PSoC4/BLE_LED_eventHandler.c ****     /* Common Profile event handling */
1513:.\Generated_Source\PSoC4/BLE_LED_eventHandler.c ****     switch(eventCode)
 192              		.loc 1 1513 0
 193 0012 4C28     		cmp	r0, #76
 194 0014 00D9     		bls	.LCB169
 195 0016 D9E0     		b	.L16	@long jump
 196              	.LCB169:
 197 0018 8300     		lsl	r3, r0, #2
 198 001a 764A     		ldr	r2, .L37+4
 199 001c D358     		ldr	r3, [r2, r3]
 200 001e 9F46     		mov	pc, r3
 201              		.section	.rodata
 202              		.align	2
 203              	.L18:
 204 0000 CC010000 		.word	.L16
 205 0004 20000000 		.word	.L17
 206 0008 CC010000 		.word	.L16
 207 000c CC010000 		.word	.L16
 208 0010 CC010000 		.word	.L16
 209 0014 CC000000 		.word	.L19
 210 0018 D4000000 		.word	.L20
 211 001c CC010000 		.word	.L16
 212 0020 CC010000 		.word	.L16
 213 0024 CC010000 		.word	.L16
 214 0028 CC010000 		.word	.L16
 215 002c CC010000 		.word	.L16
 216 0030 CC010000 		.word	.L16
 217 0034 CC010000 		.word	.L16
 218 0038 CC010000 		.word	.L16
 219 003c CC010000 		.word	.L16
 220 0040 CC010000 		.word	.L16
 221 0044 CC010000 		.word	.L16
 222 0048 CC010000 		.word	.L16
 223 004c CC010000 		.word	.L16
 224 0050 CC010000 		.word	.L16
 225 0054 CC010000 		.word	.L16
 226 0058 CC010000 		.word	.L16
 227 005c CC010000 		.word	.L16
 228 0060 CC010000 		.word	.L16
 229 0064 CC010000 		.word	.L16
 230 0068 CC010000 		.word	.L16
 231 006c CC010000 		.word	.L16
 232 0070 CC010000 		.word	.L16
 233 0074 CC010000 		.word	.L16
 234 0078 CC010000 		.word	.L16
 235 007c CC010000 		.word	.L16
 236 0080 CC010000 		.word	.L16
 237 0084 FA000000 		.word	.L21
 238 0088 CC010000 		.word	.L16
 239 008c CC010000 		.word	.L16
 240 0090 CC010000 		.word	.L16
ARM GAS  C:\Users\tiantiaf\AppData\Local\Temp\cc2Xz98j.s 			page 32


 241 0094 CC010000 		.word	.L16
 242 0098 36010000 		.word	.L22
 243 009c 26010000 		.word	.L23
 244 00a0 2E010000 		.word	.L24
 245 00a4 CC010000 		.word	.L16
 246 00a8 CC010000 		.word	.L16
 247 00ac CC010000 		.word	.L16
 248 00b0 CC010000 		.word	.L16
 249 00b4 CC010000 		.word	.L16
 250 00b8 CC010000 		.word	.L16
 251 00bc CC010000 		.word	.L16
 252 00c0 CC010000 		.word	.L16
 253 00c4 CC010000 		.word	.L16
 254 00c8 CC010000 		.word	.L16
 255 00cc CC010000 		.word	.L16
 256 00d0 CC010000 		.word	.L16
 257 00d4 CC010000 		.word	.L16
 258 00d8 CC010000 		.word	.L16
 259 00dc CC010000 		.word	.L16
 260 00e0 CC010000 		.word	.L16
 261 00e4 CC010000 		.word	.L16
 262 00e8 CC010000 		.word	.L16
 263 00ec CC010000 		.word	.L16
 264 00f0 CC010000 		.word	.L16
 265 00f4 CC010000 		.word	.L16
 266 00f8 CC010000 		.word	.L16
 267 00fc CC010000 		.word	.L16
 268 0100 CC010000 		.word	.L16
 269 0104 9E010000 		.word	.L25
 270 0108 B0010000 		.word	.L26
 271 010c B6010000 		.word	.L27
 272 0110 CC010000 		.word	.L16
 273 0114 CC010000 		.word	.L16
 274 0118 CC010000 		.word	.L16
 275 011c CC010000 		.word	.L16
 276 0120 CC010000 		.word	.L16
 277 0124 CC010000 		.word	.L16
 278 0128 CC010000 		.word	.L16
 279 012c CC010000 		.word	.L16
 280 0130 C6010000 		.word	.L28
 281              		.section	.text.CyBle_EventHandler
 282              	.L17:
 283              	.LBB3:
1514:.\Generated_Source\PSoC4/BLE_LED_eventHandler.c ****     {
1515:.\Generated_Source\PSoC4/BLE_LED_eventHandler.c ****         /**********************************************************
1516:.\Generated_Source\PSoC4/BLE_LED_eventHandler.c ****         * General events
1517:.\Generated_Source\PSoC4/BLE_LED_eventHandler.c ****         ************************************************************/
1518:.\Generated_Source\PSoC4/BLE_LED_eventHandler.c ****         case CYBLE_EVT_STACK_ON:
1519:.\Generated_Source\PSoC4/BLE_LED_eventHandler.c ****         #if(CYBLE_MODE_PROFILE)
1520:.\Generated_Source\PSoC4/BLE_LED_eventHandler.c ****         {
1521:.\Generated_Source\PSoC4/BLE_LED_eventHandler.c ****             CYBLE_BLESS_PWR_IN_DB_T bleSsPowerLevel;
1522:.\Generated_Source\PSoC4/BLE_LED_eventHandler.c ****             
1523:.\Generated_Source\PSoC4/BLE_LED_eventHandler.c ****             /* Set Tx Power Level for advertising and connection channels */
1524:.\Generated_Source\PSoC4/BLE_LED_eventHandler.c ****             bleSsPowerLevel.blePwrLevelInDbm = CYBLE_TX_POWER_LEVEL_ADV;
 284              		.loc 1 1524 0
 285 0020 01AE     		add	r6, sp, #4
 286 0022 0727     		mov	r7, #7
ARM GAS  C:\Users\tiantiaf\AppData\Local\Temp\cc2Xz98j.s 			page 33


 287 0024 3770     		strb	r7, [r6]
1525:.\Generated_Source\PSoC4/BLE_LED_eventHandler.c ****             bleSsPowerLevel.bleSsChId = CYBLE_LL_ADV_CH_TYPE;
 288              		.loc 1 1525 0
 289 0026 0023     		mov	r3, #0
 290 0028 7370     		strb	r3, [r6, #1]
1526:.\Generated_Source\PSoC4/BLE_LED_eventHandler.c ****             (void) CyBle_SetTxPowerLevel (&bleSsPowerLevel);
 291              		.loc 1 1526 0
 292 002a 301C     		mov	r0, r6
 293              	.LVL20:
 294 002c FFF7FEFF 		bl	CyBle_SetTxPowerLevel
 295              	.LVL21:
1527:.\Generated_Source\PSoC4/BLE_LED_eventHandler.c ****             bleSsPowerLevel.blePwrLevelInDbm = CYBLE_TX_POWER_LEVEL_CONN;
 296              		.loc 1 1527 0
 297 0030 3770     		strb	r7, [r6]
1528:.\Generated_Source\PSoC4/BLE_LED_eventHandler.c ****             bleSsPowerLevel.bleSsChId = CYBLE_LL_CONN_CH_TYPE;
 298              		.loc 1 1528 0
 299 0032 0123     		mov	r3, #1
 300 0034 7370     		strb	r3, [r6, #1]
1529:.\Generated_Source\PSoC4/BLE_LED_eventHandler.c ****             (void) CyBle_SetTxPowerLevel (&bleSsPowerLevel);
 301              		.loc 1 1529 0
 302 0036 301C     		mov	r0, r6
 303 0038 FFF7FEFF 		bl	CyBle_SetTxPowerLevel
 304              	.LVL22:
 305              	.LBE3:
1530:.\Generated_Source\PSoC4/BLE_LED_eventHandler.c ****             
1531:.\Generated_Source\PSoC4/BLE_LED_eventHandler.c ****         }
1532:.\Generated_Source\PSoC4/BLE_LED_eventHandler.c ****         #endif /* CYBLE_MODE_PROFILE */
1533:.\Generated_Source\PSoC4/BLE_LED_eventHandler.c ****         #if (CYBLE_GATT_ROLE_SERVER || CYBLE_GATT_ROLE_CLIENT)
1534:.\Generated_Source\PSoC4/BLE_LED_eventHandler.c ****             /* Set device Address  */
1535:.\Generated_Source\PSoC4/BLE_LED_eventHandler.c ****             if(CyBle_IsDeviceAddressValid(cyBle_sflashDeviceAddress) != 0u)
 306              		.loc 1 1535 0
 307 003c 6E4B     		ldr	r3, .L37+8
 308 003e 1E68     		ldr	r6, [r3]
 309 0040 301C     		mov	r0, r6
 310 0042 FFF7FEFF 		bl	CyBle_IsDeviceAddressValid
 311              	.LVL23:
 312 0046 0028     		cmp	r0, #0
 313 0048 0CD0     		beq	.L29
1536:.\Generated_Source\PSoC4/BLE_LED_eventHandler.c ****             {
1537:.\Generated_Source\PSoC4/BLE_LED_eventHandler.c ****                 (void) CyBle_SetDeviceAddress(cyBle_sflashDeviceAddress);
 314              		.loc 1 1537 0
 315 004a 301C     		mov	r0, r6
 316 004c FFF7FEFF 		bl	CyBle_SetDeviceAddress
 317              	.LVL24:
1538:.\Generated_Source\PSoC4/BLE_LED_eventHandler.c ****                 #if(CYBLE_GAP_ROLE_PERIPHERAL || CYBLE_GAP_ROLE_BROADCASTER)
1539:.\Generated_Source\PSoC4/BLE_LED_eventHandler.c ****                     CyBle_ChangeAdDeviceAddress(cyBle_sflashDeviceAddress, 0u);
 318              		.loc 1 1539 0
 319 0050 694E     		ldr	r6, .L37+8
 320 0052 3068     		ldr	r0, [r6]
 321 0054 0021     		mov	r1, #0
 322 0056 FFF7FEFF 		bl	CyBle_ChangeAdDeviceAddress
 323              	.LVL25:
1540:.\Generated_Source\PSoC4/BLE_LED_eventHandler.c ****                     CyBle_ChangeAdDeviceAddress(cyBle_sflashDeviceAddress, 1u);
 324              		.loc 1 1540 0
 325 005a 3068     		ldr	r0, [r6]
 326 005c 0121     		mov	r1, #1
 327 005e FFF7FEFF 		bl	CyBle_ChangeAdDeviceAddress
ARM GAS  C:\Users\tiantiaf\AppData\Local\Temp\cc2Xz98j.s 			page 34


 328              	.LVL26:
 329 0062 25E0     		b	.L30
 330              	.L29:
 331              	.LBB4:
1541:.\Generated_Source\PSoC4/BLE_LED_eventHandler.c ****                 #endif /* CYBLE_GAP_ROLE_PERIPHERAL || CYBLE_GAP_ROLE_BROADCASTER */    
1542:.\Generated_Source\PSoC4/BLE_LED_eventHandler.c ****             }
1543:.\Generated_Source\PSoC4/BLE_LED_eventHandler.c ****             else
1544:.\Generated_Source\PSoC4/BLE_LED_eventHandler.c ****             {
1545:.\Generated_Source\PSoC4/BLE_LED_eventHandler.c ****             #if (SILICON_GENERATED_DEVICE_ADDRESS != 0u)
1546:.\Generated_Source\PSoC4/BLE_LED_eventHandler.c ****             {
1547:.\Generated_Source\PSoC4/BLE_LED_eventHandler.c ****                 uint32 bdAddrLoc;
1548:.\Generated_Source\PSoC4/BLE_LED_eventHandler.c ****                 bdAddrLoc = (CYBLE_SFLASH_DIE_X_REG & CYBLE_SFLASH_DIE_X_MASK) |
 332              		.loc 1 1548 0
 333 0064 654B     		ldr	r3, .L37+12
 334 0066 1B78     		ldrb	r3, [r3]
1549:.\Generated_Source\PSoC4/BLE_LED_eventHandler.c ****                     ((uint32)(((uint32)CYBLE_SFLASH_DIE_Y_REG) & ((uint32)CYBLE_SFLASH_DIE_Y_MASK))
 335              		.loc 1 1549 0
 336 0068 654A     		ldr	r2, .L37+16
 337 006a 1278     		ldrb	r2, [r2]
 338 006c 3F21     		mov	r1, #63
 339 006e 0A40     		and	r2, r1
 340 0070 9201     		lsl	r2, r2, #6
1548:.\Generated_Source\PSoC4/BLE_LED_eventHandler.c ****                     ((uint32)(((uint32)CYBLE_SFLASH_DIE_Y_REG) & ((uint32)CYBLE_SFLASH_DIE_Y_MASK))
 341              		.loc 1 1548 0
 342 0072 0B40     		and	r3, r1
 343 0074 1343     		orr	r3, r2
1550:.\Generated_Source\PSoC4/BLE_LED_eventHandler.c ****                         CYBLE_SFLASH_DIE_X_BITS) |
1551:.\Generated_Source\PSoC4/BLE_LED_eventHandler.c ****                     ((uint32)(((uint32)CYBLE_SFLASH_DIE_WAFER_REG) & ((uint32)CYBLE_SFLASH_DIE_WAFE
 344              		.loc 1 1551 0
 345 0076 634A     		ldr	r2, .L37+20
 346 0078 1278     		ldrb	r2, [r2]
 347 007a 2039     		sub	r1, r1, #32
 348 007c 0A40     		and	r2, r1
 349 007e 1203     		lsl	r2, r2, #12
1550:.\Generated_Source\PSoC4/BLE_LED_eventHandler.c ****                         CYBLE_SFLASH_DIE_X_BITS) |
 350              		.loc 1 1550 0
 351 0080 1343     		orr	r3, r2
1552:.\Generated_Source\PSoC4/BLE_LED_eventHandler.c ****                         CYBLE_SFLASH_DIE_XY_BITS) |
1553:.\Generated_Source\PSoC4/BLE_LED_eventHandler.c ****                     ((uint32)(((uint32)CYBLE_SFLASH_DIE_LOT_REG) & ((uint32)CYBLE_SFLASH_DIE_LOT_MA
 352              		.loc 1 1553 0
 353 0082 614A     		ldr	r2, .L37+24
 354 0084 1278     		ldrb	r2, [r2]
 355 0086 6031     		add	r1, r1, #96
 356 0088 0A40     		and	r2, r1
 357 008a 5204     		lsl	r2, r2, #17
1548:.\Generated_Source\PSoC4/BLE_LED_eventHandler.c ****                     ((uint32)(((uint32)CYBLE_SFLASH_DIE_Y_REG) & ((uint32)CYBLE_SFLASH_DIE_Y_MASK))
 358              		.loc 1 1548 0
 359 008c 1343     		orr	r3, r2
 360              	.LVL27:
1554:.\Generated_Source\PSoC4/BLE_LED_eventHandler.c ****                         CYBLE_SFLASH_DIE_XYWAFER_BITS);
1555:.\Generated_Source\PSoC4/BLE_LED_eventHandler.c ****                             
1556:.\Generated_Source\PSoC4/BLE_LED_eventHandler.c ****                 cyBle_deviceAddress.bdAddr[0] = (uint8)bdAddrLoc;
 361              		.loc 1 1556 0
 362 008e 5F4E     		ldr	r6, .L37+28
 363 0090 3370     		strb	r3, [r6]
1557:.\Generated_Source\PSoC4/BLE_LED_eventHandler.c ****                 cyBle_deviceAddress.bdAddr[1] = (uint8)(bdAddrLoc >> 8u);
 364              		.loc 1 1557 0
ARM GAS  C:\Users\tiantiaf\AppData\Local\Temp\cc2Xz98j.s 			page 35


 365 0092 1A0A     		lsr	r2, r3, #8
 366 0094 7270     		strb	r2, [r6, #1]
1558:.\Generated_Source\PSoC4/BLE_LED_eventHandler.c ****                 cyBle_deviceAddress.bdAddr[2] = (uint8)(bdAddrLoc >> 16u);
 367              		.loc 1 1558 0
 368 0096 1B0C     		lsr	r3, r3, #16
 369              	.LVL28:
 370 0098 B370     		strb	r3, [r6, #2]
 371              	.LBE4:
1559:.\Generated_Source\PSoC4/BLE_LED_eventHandler.c ****             }
1560:.\Generated_Source\PSoC4/BLE_LED_eventHandler.c ****             #endif /* SILICON_GENERATED_DEVICE_ADDRESS != 0u */
1561:.\Generated_Source\PSoC4/BLE_LED_eventHandler.c ****                 (void) CyBle_SetDeviceAddress(&cyBle_deviceAddress);
 372              		.loc 1 1561 0
 373 009a 301C     		mov	r0, r6
 374 009c FFF7FEFF 		bl	CyBle_SetDeviceAddress
 375              	.LVL29:
1562:.\Generated_Source\PSoC4/BLE_LED_eventHandler.c ****                 #if(CYBLE_GAP_ROLE_PERIPHERAL || CYBLE_GAP_ROLE_BROADCASTER)
1563:.\Generated_Source\PSoC4/BLE_LED_eventHandler.c ****                     CyBle_ChangeAdDeviceAddress(&cyBle_deviceAddress, 0u);
 376              		.loc 1 1563 0
 377 00a0 301C     		mov	r0, r6
 378 00a2 0021     		mov	r1, #0
 379 00a4 FFF7FEFF 		bl	CyBle_ChangeAdDeviceAddress
 380              	.LVL30:
1564:.\Generated_Source\PSoC4/BLE_LED_eventHandler.c ****                     CyBle_ChangeAdDeviceAddress(&cyBle_deviceAddress, 1u);
 381              		.loc 1 1564 0
 382 00a8 301C     		mov	r0, r6
 383 00aa 0121     		mov	r1, #1
 384 00ac FFF7FEFF 		bl	CyBle_ChangeAdDeviceAddress
 385              	.LVL31:
 386              	.L30:
1565:.\Generated_Source\PSoC4/BLE_LED_eventHandler.c ****                 #endif /* CYBLE_GAP_ROLE_PERIPHERAL || CYBLE_GAP_ROLE_BROADCASTER */    
1566:.\Generated_Source\PSoC4/BLE_LED_eventHandler.c ****             }
1567:.\Generated_Source\PSoC4/BLE_LED_eventHandler.c ****             /* Set device IO Capability  */
1568:.\Generated_Source\PSoC4/BLE_LED_eventHandler.c ****             (void) CyBle_GapSetIoCap(CYBLE_IO_CAPABILITY);    
 387              		.loc 1 1568 0
 388 00b0 0320     		mov	r0, #3
 389 00b2 FFF7FEFF 		bl	CyBle_GapSetIoCap
 390              	.LVL32:
 391              	.LBB5:
1569:.\Generated_Source\PSoC4/BLE_LED_eventHandler.c ****             {
1570:.\Generated_Source\PSoC4/BLE_LED_eventHandler.c ****                 /* Enable all 4.1 events and configured 4.2 events */
1571:.\Generated_Source\PSoC4/BLE_LED_eventHandler.c ****                 uint8 leMask[CYBLE_LE_MASK_LENGTH] = {LO8(CYBLE_LE_MASK), HI8(CYBLE_LE_MASK)};
 392              		.loc 1 1571 0
 393 00b6 01A8     		add	r0, sp, #4
 394 00b8 3F23     		mov	r3, #63
 395 00ba 0370     		strb	r3, [r0]
 396 00bc 0023     		mov	r3, #0
 397 00be 4370     		strb	r3, [r0, #1]
1572:.\Generated_Source\PSoC4/BLE_LED_eventHandler.c ****                 (void) CyBle_GapSetLeEventMask(leMask);
 398              		.loc 1 1572 0
 399 00c0 FFF7FEFF 		bl	CyBle_GapSetLeEventMask
 400              	.LVL33:
 401              	.LBE5:
1573:.\Generated_Source\PSoC4/BLE_LED_eventHandler.c ****             }
1574:.\Generated_Source\PSoC4/BLE_LED_eventHandler.c ****         #if(CYBLE_DLE_FEATURE_ENABLED)
1575:.\Generated_Source\PSoC4/BLE_LED_eventHandler.c ****         {
1576:.\Generated_Source\PSoC4/BLE_LED_eventHandler.c ****             /* Set maximum suggested TX payload size */
1577:.\Generated_Source\PSoC4/BLE_LED_eventHandler.c ****             uint16 payloadTime = CYBLE_LL_MAX_TX_TIME;
ARM GAS  C:\Users\tiantiaf\AppData\Local\Temp\cc2Xz98j.s 			page 36


1578:.\Generated_Source\PSoC4/BLE_LED_eventHandler.c ****             (void) CyBle_GapConvertOctetToTime(CYBLE_GAP_PHY_1MBPS, CYBLE_LL_MAX_TX_PAYLOAD_SIZE, &
1579:.\Generated_Source\PSoC4/BLE_LED_eventHandler.c ****             (void) CyBle_GapSetSuggestedDataLength(CYBLE_LL_MAX_TX_PAYLOAD_SIZE, payloadTime); 
1580:.\Generated_Source\PSoC4/BLE_LED_eventHandler.c ****         }
1581:.\Generated_Source\PSoC4/BLE_LED_eventHandler.c ****         #endif /* CYBLE_DLE_FEATURE != 0u */
1582:.\Generated_Source\PSoC4/BLE_LED_eventHandler.c ****         
1583:.\Generated_Source\PSoC4/BLE_LED_eventHandler.c ****         #endif /* CYBLE_GATT_ROLE_SERVER || CYBLE_GATT_ROLE_CLIENT */
1584:.\Generated_Source\PSoC4/BLE_LED_eventHandler.c ****             CyBle_SetState(CYBLE_STATE_DISCONNECTED);
 402              		.loc 1 1584 0
 403 00c4 0422     		mov	r2, #4
 404 00c6 524B     		ldr	r3, .L37+32
 405 00c8 1A70     		strb	r2, [r3]
1585:.\Generated_Source\PSoC4/BLE_LED_eventHandler.c ****             break;
 406              		.loc 1 1585 0
 407 00ca 7FE0     		b	.L16
 408              	.LVL34:
 409              	.L19:
1586:.\Generated_Source\PSoC4/BLE_LED_eventHandler.c ****         case CYBLE_EVT_TIMEOUT:
1587:.\Generated_Source\PSoC4/BLE_LED_eventHandler.c ****             CyBle_TimeOutEventHandler((CYBLE_TO_REASON_CODE_T *)eventParam);
1588:.\Generated_Source\PSoC4/BLE_LED_eventHandler.c ****             break;
1589:.\Generated_Source\PSoC4/BLE_LED_eventHandler.c ****     	case CYBLE_EVT_STACK_BUSY_STATUS:
1590:.\Generated_Source\PSoC4/BLE_LED_eventHandler.c ****             cyBle_busyStatus = *(uint8 *)eventParam;
 410              		.loc 1 1590 0
 411 00cc 2278     		ldrb	r2, [r4]
 412 00ce 514B     		ldr	r3, .L37+36
 413 00d0 1A70     		strb	r2, [r3]
1591:.\Generated_Source\PSoC4/BLE_LED_eventHandler.c ****             break;
 414              		.loc 1 1591 0
 415 00d2 7BE0     		b	.L16
 416              	.L20:
 417              	.LVL35:
 418              	.LBB6:
1592:.\Generated_Source\PSoC4/BLE_LED_eventHandler.c ****     	case CYBLE_EVT_MEMORY_REQUEST:
1593:.\Generated_Source\PSoC4/BLE_LED_eventHandler.c ****         #if(CYBLE_MODE_PROFILE)
1594:.\Generated_Source\PSoC4/BLE_LED_eventHandler.c ****         {
1595:.\Generated_Source\PSoC4/BLE_LED_eventHandler.c ****             CYBLE_MEMORY_REQUEST_T *memReq = (CYBLE_MEMORY_REQUEST_T *)eventParam;
1596:.\Generated_Source\PSoC4/BLE_LED_eventHandler.c ****             if(memReq->request == CYBLE_PREPARED_WRITE_REQUEST)
 419              		.loc 1 1596 0
 420 00d4 2378     		ldrb	r3, [r4]
 421 00d6 002B     		cmp	r3, #0
 422 00d8 78D1     		bne	.L16
1597:.\Generated_Source\PSoC4/BLE_LED_eventHandler.c ****             {  
1598:.\Generated_Source\PSoC4/BLE_LED_eventHandler.c ****             #if(CYBLE_GATT_ENABLE_EXTERNAL_PREP_WRITE_BUFF == 0u)
1599:.\Generated_Source\PSoC4/BLE_LED_eventHandler.c ****                 /* Stack requests to provide memory to process remote request */
1600:.\Generated_Source\PSoC4/BLE_LED_eventHandler.c ****                 if(memReq->allocFree == CYBLE_ALLOC_MEMORY)
 423              		.loc 1 1600 0
 424 00da 6378     		ldrb	r3, [r4, #1]
 425 00dc 002B     		cmp	r3, #0
 426 00de 06D1     		bne	.L31
 427              	.LBB7:
1601:.\Generated_Source\PSoC4/BLE_LED_eventHandler.c ****                 {
1602:.\Generated_Source\PSoC4/BLE_LED_eventHandler.c ****                     static CYBLE_PREPARE_WRITE_REQUEST_MEMORY_T gPrepWriteReqMem;
1603:.\Generated_Source\PSoC4/BLE_LED_eventHandler.c ****                     
1604:.\Generated_Source\PSoC4/BLE_LED_eventHandler.c ****                     /* Configure and return statically allocated buffer at the end of cyBle_stackMe
1605:.\Generated_Source\PSoC4/BLE_LED_eventHandler.c ****                     gPrepWriteReqMem.prepareWriteQueueSize = CYBLE_GATT_MAX_PREPARE_BUFF_COUNT;
 428              		.loc 1 1605 0
 429 00e0 4D4B     		ldr	r3, .L37+40
 430 00e2 0022     		mov	r2, #0
ARM GAS  C:\Users\tiantiaf\AppData\Local\Temp\cc2Xz98j.s 			page 37


 431 00e4 DA80     		strh	r2, [r3, #6]
1606:.\Generated_Source\PSoC4/BLE_LED_eventHandler.c ****                     gPrepWriteReqMem.totalAttrValueLength = CYBLE_GATT_PREPARE_LENGTH_ALIGN;
 432              		.loc 1 1606 0
 433 00e6 9A80     		strh	r2, [r3, #4]
1607:.\Generated_Source\PSoC4/BLE_LED_eventHandler.c ****                     gPrepWriteReqMem.queueBuffer = &cyBle_stackMemoryRam[CYBLE_STACK_RAM_SIZE - 
 434              		.loc 1 1607 0
 435 00e8 4C4A     		ldr	r2, .L37+44
 436 00ea 1A60     		str	r2, [r3]
1608:.\Generated_Source\PSoC4/BLE_LED_eventHandler.c ****                                                                          CYBLE_GATT_PREPARE_WRITE_B
1609:.\Generated_Source\PSoC4/BLE_LED_eventHandler.c ****                     memReq->configMemory = &gPrepWriteReqMem;  
 437              		.loc 1 1609 0
 438 00ec 6360     		str	r3, [r4, #4]
 439              	.L31:
 440              	.LBE7:
1610:.\Generated_Source\PSoC4/BLE_LED_eventHandler.c ****                 }                
1611:.\Generated_Source\PSoC4/BLE_LED_eventHandler.c ****                 /* Clear CYBLE_CALLBACK flag not to provide handled event to application */
1612:.\Generated_Source\PSoC4/BLE_LED_eventHandler.c ****                 cyBle_eventHandlerFlag &= (uint8)~CYBLE_CALLBACK;
 441              		.loc 1 1612 0
 442 00ee 404A     		ldr	r2, .L37
 443 00f0 1378     		ldrb	r3, [r2]
 444 00f2 0121     		mov	r1, #1
 445 00f4 8B43     		bic	r3, r1
 446 00f6 1370     		strb	r3, [r2]
 447 00f8 68E0     		b	.L16
 448              	.LVL36:
 449              	.L21:
 450              	.LBE6:
1613:.\Generated_Source\PSoC4/BLE_LED_eventHandler.c ****             #endif  /* CYBLE_GATT_ENABLE_EXTERNAL_PREP_WRITE_BUFF == 0u */
1614:.\Generated_Source\PSoC4/BLE_LED_eventHandler.c ****             }
1615:.\Generated_Source\PSoC4/BLE_LED_eventHandler.c ****         }
1616:.\Generated_Source\PSoC4/BLE_LED_eventHandler.c ****         #endif /* CYBLE_MODE_PROFILE */
1617:.\Generated_Source\PSoC4/BLE_LED_eventHandler.c ****             break;
1618:.\Generated_Source\PSoC4/BLE_LED_eventHandler.c ****         /**********************************************************
1619:.\Generated_Source\PSoC4/BLE_LED_eventHandler.c ****         * GAP events
1620:.\Generated_Source\PSoC4/BLE_LED_eventHandler.c ****         ************************************************************/
1621:.\Generated_Source\PSoC4/BLE_LED_eventHandler.c ****         case CYBLE_EVT_GAP_AUTH_REQ:
1622:.\Generated_Source\PSoC4/BLE_LED_eventHandler.c ****         #if(CYBLE_MODE_PROFILE)
1623:.\Generated_Source\PSoC4/BLE_LED_eventHandler.c ****             if(0u == (cyBle_eventHandlerFlag & CYBLE_DISABLE_AUTOMATIC_AUTH))
 451              		.loc 1 1623 0
 452 00fa 3D4B     		ldr	r3, .L37
 453 00fc 1B78     		ldrb	r3, [r3]
 454 00fe 9B06     		lsl	r3, r3, #26
 455 0100 64D4     		bmi	.L16
1624:.\Generated_Source\PSoC4/BLE_LED_eventHandler.c ****             {
1625:.\Generated_Source\PSoC4/BLE_LED_eventHandler.c ****                 /* If the responding device does not support pairing then the responding 
1626:.\Generated_Source\PSoC4/BLE_LED_eventHandler.c ****                    device shall respond using the Pairing Failed message with the error 
1627:.\Generated_Source\PSoC4/BLE_LED_eventHandler.c ****                    code "Pairing Not Supported" otherwise it responds with a Pairing 
1628:.\Generated_Source\PSoC4/BLE_LED_eventHandler.c ****                    Response message.
1629:.\Generated_Source\PSoC4/BLE_LED_eventHandler.c ****                 */
1630:.\Generated_Source\PSoC4/BLE_LED_eventHandler.c ****                 if(cyBle_authInfo.security == (CYBLE_GAP_SEC_MODE_1 | CYBLE_GAP_SEC_LEVEL_1))
 456              		.loc 1 1630 0
 457 0102 474B     		ldr	r3, .L37+48
 458 0104 1B78     		ldrb	r3, [r3]
 459 0106 102B     		cmp	r3, #16
 460 0108 02D1     		bne	.L32
1631:.\Generated_Source\PSoC4/BLE_LED_eventHandler.c ****                 {
1632:.\Generated_Source\PSoC4/BLE_LED_eventHandler.c ****                     cyBle_authInfo.authErr = CYBLE_GAP_AUTH_ERROR_PAIRING_NOT_SUPPORTED;
ARM GAS  C:\Users\tiantiaf\AppData\Local\Temp\cc2Xz98j.s 			page 38


 461              		.loc 1 1632 0
 462 010a 0522     		mov	r2, #5
 463 010c 444B     		ldr	r3, .L37+48
 464 010e DA70     		strb	r2, [r3, #3]
 465              	.L32:
1633:.\Generated_Source\PSoC4/BLE_LED_eventHandler.c ****                 }    
1634:.\Generated_Source\PSoC4/BLE_LED_eventHandler.c ****             #if(CYBLE_GAP_ROLE_PERIPHERAL)
1635:.\Generated_Source\PSoC4/BLE_LED_eventHandler.c ****                 (void)CyBle_GappAuthReqReply(cyBle_connHandle.bdHandle, &cyBle_authInfo);
 466              		.loc 1 1635 0
 467 0110 444B     		ldr	r3, .L37+52
 468 0112 1878     		ldrb	r0, [r3]
 469              	.LVL37:
 470 0114 4249     		ldr	r1, .L37+48
 471 0116 FFF7FEFF 		bl	CyBle_GappAuthReqReply
 472              	.LVL38:
1636:.\Generated_Source\PSoC4/BLE_LED_eventHandler.c ****                 /* Setting callback flag again as CyBle_GappAuthReqReply() will generate
1637:.\Generated_Source\PSoC4/BLE_LED_eventHandler.c ****                 * CYBLE_EVT_GAP_SMP_NEGOTIATED_AUTH_INFO event wich will clear the callback
1638:.\Generated_Source\PSoC4/BLE_LED_eventHandler.c ****                 * flag.
1639:.\Generated_Source\PSoC4/BLE_LED_eventHandler.c ****                 */
1640:.\Generated_Source\PSoC4/BLE_LED_eventHandler.c ****                 cyBle_eventHandlerFlag |= CYBLE_CALLBACK;
 473              		.loc 1 1640 0
 474 011a 354A     		ldr	r2, .L37
 475 011c 1178     		ldrb	r1, [r2]
 476 011e 0123     		mov	r3, #1
 477 0120 0B43     		orr	r3, r1
 478 0122 1370     		strb	r3, [r2]
 479 0124 52E0     		b	.L16
 480              	.LVL39:
 481              	.L23:
1641:.\Generated_Source\PSoC4/BLE_LED_eventHandler.c ****             #endif /* CYBLE_GAP_ROLE_PERIPHERAL */
1642:.\Generated_Source\PSoC4/BLE_LED_eventHandler.c ****             #if (CYBLE_GAP_ROLE_CENTRAL)
1643:.\Generated_Source\PSoC4/BLE_LED_eventHandler.c ****                 (void)CyBle_GapAuthReq(cyBle_connHandle.bdHandle, &cyBle_authInfo);
1644:.\Generated_Source\PSoC4/BLE_LED_eventHandler.c ****             #endif /* CYBLE_GAP_ROLE_CENTRAL */
1645:.\Generated_Source\PSoC4/BLE_LED_eventHandler.c ****             }
1646:.\Generated_Source\PSoC4/BLE_LED_eventHandler.c ****         #endif /* CYBLE_MODE_PROFILE */
1647:.\Generated_Source\PSoC4/BLE_LED_eventHandler.c ****             break;
1648:.\Generated_Source\PSoC4/BLE_LED_eventHandler.c ****         
1649:.\Generated_Source\PSoC4/BLE_LED_eventHandler.c ****         case CYBLE_EVT_GAP_AUTH_COMPLETE:
1650:.\Generated_Source\PSoC4/BLE_LED_eventHandler.c ****         #if((CYBLE_GAP_ROLE_PERIPHERAL || CYBLE_GAP_ROLE_CENTRAL) && (CYBLE_BONDING_REQUIREMENT == 
1651:.\Generated_Source\PSoC4/BLE_LED_eventHandler.c ****             cyBle_peerBonding = ((CYBLE_GAP_AUTH_INFO_T *)eventParam)->bonding;
1652:.\Generated_Source\PSoC4/BLE_LED_eventHandler.c ****         #endif  /* CYBLE_BONDING_REQUIREMENT == CYBLE_BONDING_YES */
1653:.\Generated_Source\PSoC4/BLE_LED_eventHandler.c ****             break;
1654:.\Generated_Source\PSoC4/BLE_LED_eventHandler.c ****         
1655:.\Generated_Source\PSoC4/BLE_LED_eventHandler.c ****         case CYBLE_EVT_GAP_CONNECTION_UPDATE_COMPLETE:
1656:.\Generated_Source\PSoC4/BLE_LED_eventHandler.c ****             CyBle_GapConnUpdateCompleteEventHandler((const CYBLE_GAP_CONN_PARAM_UPDATED_IN_CONTROLL
1657:.\Generated_Source\PSoC4/BLE_LED_eventHandler.c ****             break;
1658:.\Generated_Source\PSoC4/BLE_LED_eventHandler.c ****             
1659:.\Generated_Source\PSoC4/BLE_LED_eventHandler.c ****     #if(CYBLE_LL_PRIVACY_FEATURE != 0u)        
1660:.\Generated_Source\PSoC4/BLE_LED_eventHandler.c ****         case CYBLE_EVT_GAP_ENHANCE_CONN_COMPLETE:
1661:.\Generated_Source\PSoC4/BLE_LED_eventHandler.c ****         {
1662:.\Generated_Source\PSoC4/BLE_LED_eventHandler.c ****             CYBLE_GAP_CONN_PARAM_UPDATED_IN_CONTROLLER_T  connCParam;
1663:.\Generated_Source\PSoC4/BLE_LED_eventHandler.c ****             CYBLE_GAP_ENHANCE_CONN_COMPLETE_T *connEnhanceParam;
1664:.\Generated_Source\PSoC4/BLE_LED_eventHandler.c ****             
1665:.\Generated_Source\PSoC4/BLE_LED_eventHandler.c ****             connEnhanceParam = (CYBLE_GAP_ENHANCE_CONN_COMPLETE_T *)eventParam;
1666:.\Generated_Source\PSoC4/BLE_LED_eventHandler.c ****             connCParam.status = connEnhanceParam->status;
1667:.\Generated_Source\PSoC4/BLE_LED_eventHandler.c ****             connCParam.connIntv = connEnhanceParam->connIntv;
1668:.\Generated_Source\PSoC4/BLE_LED_eventHandler.c ****             connCParam.connLatency = connEnhanceParam->connLatency;
ARM GAS  C:\Users\tiantiaf\AppData\Local\Temp\cc2Xz98j.s 			page 39


1669:.\Generated_Source\PSoC4/BLE_LED_eventHandler.c ****             connCParam.supervisionTO = connEnhanceParam->supervisionTo;
1670:.\Generated_Source\PSoC4/BLE_LED_eventHandler.c ****             CyBle_GapConnUpdateCompleteEventHandler((const CYBLE_GAP_CONN_PARAM_UPDATED_IN_CONTROLL
1671:.\Generated_Source\PSoC4/BLE_LED_eventHandler.c ****             
1672:.\Generated_Source\PSoC4/BLE_LED_eventHandler.c ****             #if(CYBLE_GAP_ROLE_CENTRAL)
1673:.\Generated_Source\PSoC4/BLE_LED_eventHandler.c ****                 if(cyBle_connectingTimeout != 0u)
1674:.\Generated_Source\PSoC4/BLE_LED_eventHandler.c ****                 {
1675:.\Generated_Source\PSoC4/BLE_LED_eventHandler.c ****                    (void)CyBle_StopTimer();
1676:.\Generated_Source\PSoC4/BLE_LED_eventHandler.c ****                 }
1677:.\Generated_Source\PSoC4/BLE_LED_eventHandler.c ****             #endif /* CYBLE_GAP_ROLE_CENTRAL */
1678:.\Generated_Source\PSoC4/BLE_LED_eventHandler.c ****             CyBle_SetState(CYBLE_STATE_CONNECTED);
1679:.\Generated_Source\PSoC4/BLE_LED_eventHandler.c ****         }
1680:.\Generated_Source\PSoC4/BLE_LED_eventHandler.c ****             break;
1681:.\Generated_Source\PSoC4/BLE_LED_eventHandler.c ****     #endif /* CYBLE_LL_PRIVACY_FEATURE != 0u */      
1682:.\Generated_Source\PSoC4/BLE_LED_eventHandler.c ****             
1683:.\Generated_Source\PSoC4/BLE_LED_eventHandler.c ****         case CYBLE_EVT_GAP_DEVICE_CONNECTED:
1684:.\Generated_Source\PSoC4/BLE_LED_eventHandler.c ****             CyBle_GapConnUpdateCompleteEventHandler((const CYBLE_GAP_CONN_PARAM_UPDATED_IN_CONTROLL
1685:.\Generated_Source\PSoC4/BLE_LED_eventHandler.c ****             #if(CYBLE_GAP_ROLE_CENTRAL)
1686:.\Generated_Source\PSoC4/BLE_LED_eventHandler.c ****                 if(cyBle_connectingTimeout != 0u)
1687:.\Generated_Source\PSoC4/BLE_LED_eventHandler.c ****                 {
1688:.\Generated_Source\PSoC4/BLE_LED_eventHandler.c ****                    (void)CyBle_StopTimer();
1689:.\Generated_Source\PSoC4/BLE_LED_eventHandler.c ****                 }
1690:.\Generated_Source\PSoC4/BLE_LED_eventHandler.c ****             #endif /* CYBLE_GAP_ROLE_CENTRAL */
1691:.\Generated_Source\PSoC4/BLE_LED_eventHandler.c ****             CyBle_SetState(CYBLE_STATE_CONNECTED);
 482              		.loc 1 1691 0
 483 0126 0222     		mov	r2, #2
 484 0128 394B     		ldr	r3, .L37+32
 485 012a 1A70     		strb	r2, [r3]
1692:.\Generated_Source\PSoC4/BLE_LED_eventHandler.c ****             break;
 486              		.loc 1 1692 0
 487 012c 4EE0     		b	.L16
 488              	.L24:
1693:.\Generated_Source\PSoC4/BLE_LED_eventHandler.c **** 
1694:.\Generated_Source\PSoC4/BLE_LED_eventHandler.c ****         case CYBLE_EVT_GAP_DEVICE_DISCONNECTED:
1695:.\Generated_Source\PSoC4/BLE_LED_eventHandler.c ****             CyBle_SetState(CYBLE_STATE_DISCONNECTED);
 489              		.loc 1 1695 0
 490 012e 0422     		mov	r2, #4
 491 0130 374B     		ldr	r3, .L37+32
 492 0132 1A70     		strb	r2, [r3]
1696:.\Generated_Source\PSoC4/BLE_LED_eventHandler.c ****             break;
 493              		.loc 1 1696 0
 494 0134 4AE0     		b	.L16
 495              	.L22:
1697:.\Generated_Source\PSoC4/BLE_LED_eventHandler.c ****         #if(CYBLE_GAP_ROLE_PERIPHERAL || CYBLE_GAP_ROLE_BROADCASTER)
1698:.\Generated_Source\PSoC4/BLE_LED_eventHandler.c ****             
1699:.\Generated_Source\PSoC4/BLE_LED_eventHandler.c ****         case CYBLE_EVT_GAPP_ADVERTISEMENT_START_STOP:
1700:.\Generated_Source\PSoC4/BLE_LED_eventHandler.c ****             #ifdef CYBLE_CPS_SERVER
1701:.\Generated_Source\PSoC4/BLE_LED_eventHandler.c ****                 #if(CYBLE_GAP_ROLE_BROADCASTER)
1702:.\Generated_Source\PSoC4/BLE_LED_eventHandler.c ****                     CyBle_CpssAdvertisementStartStopEventHandler();
1703:.\Generated_Source\PSoC4/BLE_LED_eventHandler.c ****                 #endif /* CYBLE_GAP_ROLE_BROADCASTER */
1704:.\Generated_Source\PSoC4/BLE_LED_eventHandler.c ****             #endif /* CYBLE_CPS_SERVER */
1705:.\Generated_Source\PSoC4/BLE_LED_eventHandler.c ****             
1706:.\Generated_Source\PSoC4/BLE_LED_eventHandler.c ****             if((CYBLE_STATE_CONNECTED != CyBle_GetState()) && ((cyBle_eventHandlerFlag & CYBLE_CALL
 496              		.loc 1 1706 0
 497 0136 364B     		ldr	r3, .L37+32
 498 0138 1B78     		ldrb	r3, [r3]
 499 013a 022B     		cmp	r3, #2
 500 013c 46D0     		beq	.L16
ARM GAS  C:\Users\tiantiaf\AppData\Local\Temp\cc2Xz98j.s 			page 40


 501              		.loc 1 1706 0 is_stmt 0 discriminator 1
 502 013e 2C4A     		ldr	r2, .L37
 503 0140 1278     		ldrb	r2, [r2]
 504 0142 D207     		lsl	r2, r2, #31
 505 0144 42D5     		bpl	.L16
1707:.\Generated_Source\PSoC4/BLE_LED_eventHandler.c ****             {
1708:.\Generated_Source\PSoC4/BLE_LED_eventHandler.c ****                 /* After CyBle_GappStartAdvertisement first event indicates that advertising has be
1709:.\Generated_Source\PSoC4/BLE_LED_eventHandler.c ****                 if(0u != (cyBle_eventHandlerFlag & CYBLE_START_FLAG))
 506              		.loc 1 1709 0 is_stmt 1
 507 0146 2A4A     		ldr	r2, .L37
 508 0148 1278     		ldrb	r2, [r2]
 509 014a 5207     		lsl	r2, r2, #29
 510 014c 08D5     		bpl	.L33
1710:.\Generated_Source\PSoC4/BLE_LED_eventHandler.c ****                 {
1711:.\Generated_Source\PSoC4/BLE_LED_eventHandler.c ****                     CyBle_SetState(CYBLE_STATE_ADVERTISING);
 511              		.loc 1 1711 0
 512 014e 0322     		mov	r2, #3
 513 0150 2F4B     		ldr	r3, .L37+32
 514 0152 1A70     		strb	r2, [r3]
1712:.\Generated_Source\PSoC4/BLE_LED_eventHandler.c ****                     cyBle_eventHandlerFlag &= (uint8)~CYBLE_START_FLAG;
 515              		.loc 1 1712 0
 516 0154 264A     		ldr	r2, .L37
 517 0156 1378     		ldrb	r3, [r2]
 518 0158 0421     		mov	r1, #4
 519 015a 8B43     		bic	r3, r1
 520 015c 1370     		strb	r3, [r2]
 521 015e 35E0     		b	.L16
 522              	.L33:
1713:.\Generated_Source\PSoC4/BLE_LED_eventHandler.c ****                 }
1714:.\Generated_Source\PSoC4/BLE_LED_eventHandler.c ****                 /* When application initiated stop advertisement */
1715:.\Generated_Source\PSoC4/BLE_LED_eventHandler.c ****                 else if(0u != (cyBle_eventHandlerFlag & CYBLE_STOP_FLAG))
 523              		.loc 1 1715 0
 524 0160 234A     		ldr	r2, .L37
 525 0162 1278     		ldrb	r2, [r2]
 526 0164 1207     		lsl	r2, r2, #28
 527 0166 08D5     		bpl	.L34
1716:.\Generated_Source\PSoC4/BLE_LED_eventHandler.c ****                 {
1717:.\Generated_Source\PSoC4/BLE_LED_eventHandler.c ****                     CyBle_SetState(CYBLE_STATE_DISCONNECTED);  
 528              		.loc 1 1717 0
 529 0168 0422     		mov	r2, #4
 530 016a 294B     		ldr	r3, .L37+32
 531 016c 1A70     		strb	r2, [r3]
1718:.\Generated_Source\PSoC4/BLE_LED_eventHandler.c ****                     cyBle_eventHandlerFlag &= (uint8)~CYBLE_STOP_FLAG;
 532              		.loc 1 1718 0
 533 016e 204A     		ldr	r2, .L37
 534 0170 1378     		ldrb	r3, [r2]
 535 0172 0821     		mov	r1, #8
 536 0174 8B43     		bic	r3, r1
 537 0176 1370     		strb	r3, [r2]
 538 0178 28E0     		b	.L16
 539              	.L34:
1719:.\Generated_Source\PSoC4/BLE_LED_eventHandler.c ****                 }
1720:.\Generated_Source\PSoC4/BLE_LED_eventHandler.c ****                 else /* Following event indicates that advertising has been stopped */
1721:.\Generated_Source\PSoC4/BLE_LED_eventHandler.c ****                 {
1722:.\Generated_Source\PSoC4/BLE_LED_eventHandler.c ****                     if(CYBLE_STATE_ADVERTISING == CyBle_GetState())
 540              		.loc 1 1722 0
 541 017a 032B     		cmp	r3, #3
ARM GAS  C:\Users\tiantiaf\AppData\Local\Temp\cc2Xz98j.s 			page 41


 542 017c 26D1     		bne	.L16
1723:.\Generated_Source\PSoC4/BLE_LED_eventHandler.c ****                     {
1724:.\Generated_Source\PSoC4/BLE_LED_eventHandler.c ****                         CyBle_SetState(CYBLE_STATE_DISCONNECTED);
 543              		.loc 1 1724 0
 544 017e 0422     		mov	r2, #4
 545 0180 234B     		ldr	r3, .L37+32
 546 0182 1A70     		strb	r2, [r3]
1725:.\Generated_Source\PSoC4/BLE_LED_eventHandler.c ****                     #if ((CYBLE_SLOW_ADV_ENABLED != 0u) && (CYBLE_FAST_ADV_TIMEOUT != 0u))
1726:.\Generated_Source\PSoC4/BLE_LED_eventHandler.c ****                         if(cyBle_advertisingIntervalType == CYBLE_ADVERTISING_FAST)
 547              		.loc 1 1726 0
 548 0184 284B     		ldr	r3, .L37+56
 549 0186 1B78     		ldrb	r3, [r3]
 550 0188 002B     		cmp	r3, #0
 551 018a 1FD1     		bne	.L16
1727:.\Generated_Source\PSoC4/BLE_LED_eventHandler.c ****                         {
1728:.\Generated_Source\PSoC4/BLE_LED_eventHandler.c ****                             /* When fast advertising time out occur: Start slow advertising */
1729:.\Generated_Source\PSoC4/BLE_LED_eventHandler.c ****                             if(CYBLE_ERROR_OK == CyBle_GappStartAdvertisement(CYBLE_ADVERTISING_SLO
 552              		.loc 1 1729 0
 553 018c 0120     		mov	r0, #1
 554              	.LVL40:
 555 018e FFF7FEFF 		bl	CyBle_GappStartAdvertisement
 556              	.LVL41:
 557 0192 0028     		cmp	r0, #0
 558 0194 1AD1     		bne	.L16
1730:.\Generated_Source\PSoC4/BLE_LED_eventHandler.c ****                             {
1731:.\Generated_Source\PSoC4/BLE_LED_eventHandler.c ****                                 CyBle_SetState(CYBLE_STATE_ADVERTISING);
 559              		.loc 1 1731 0
 560 0196 0322     		mov	r2, #3
 561 0198 1D4B     		ldr	r3, .L37+32
 562 019a 1A70     		strb	r2, [r3]
 563 019c 16E0     		b	.L16
 564              	.LVL42:
 565              	.L25:
1732:.\Generated_Source\PSoC4/BLE_LED_eventHandler.c ****                             }
1733:.\Generated_Source\PSoC4/BLE_LED_eventHandler.c ****                         }
1734:.\Generated_Source\PSoC4/BLE_LED_eventHandler.c ****                     #endif /* CYBLE_SLOW_ADV_ENABLED */
1735:.\Generated_Source\PSoC4/BLE_LED_eventHandler.c ****                     }
1736:.\Generated_Source\PSoC4/BLE_LED_eventHandler.c ****                 }
1737:.\Generated_Source\PSoC4/BLE_LED_eventHandler.c ****             }
1738:.\Generated_Source\PSoC4/BLE_LED_eventHandler.c ****             break;
1739:.\Generated_Source\PSoC4/BLE_LED_eventHandler.c ****         #endif /* CYBLE_GAP_ROLE_PERIPHERAL || CYBLE_GAP_ROLE_BROADCASTER */
1740:.\Generated_Source\PSoC4/BLE_LED_eventHandler.c ****         
1741:.\Generated_Source\PSoC4/BLE_LED_eventHandler.c ****         #if(CYBLE_GAP_ROLE_CENTRAL || CYBLE_GAP_ROLE_OBSERVER)    
1742:.\Generated_Source\PSoC4/BLE_LED_eventHandler.c ****         case CYBLE_EVT_GAPC_SCAN_START_STOP:
1743:.\Generated_Source\PSoC4/BLE_LED_eventHandler.c ****             #ifdef CYBLE_CPS_CLIENT
1744:.\Generated_Source\PSoC4/BLE_LED_eventHandler.c ****                 CyBle_CpscScanStartStopEventHandler();
1745:.\Generated_Source\PSoC4/BLE_LED_eventHandler.c ****             #endif /* CYBLE_CPS_CLIENT */
1746:.\Generated_Source\PSoC4/BLE_LED_eventHandler.c ****             
1747:.\Generated_Source\PSoC4/BLE_LED_eventHandler.c ****             if((CYBLE_STATE_CONNECTED != CyBle_GetState()) && ((cyBle_eventHandlerFlag & CYBLE_CALL
1748:.\Generated_Source\PSoC4/BLE_LED_eventHandler.c ****             {
1749:.\Generated_Source\PSoC4/BLE_LED_eventHandler.c ****                 /* After CyBle_GapcStartScan first event indicates that scanning has been started *
1750:.\Generated_Source\PSoC4/BLE_LED_eventHandler.c ****                 if(0u != (cyBle_eventHandlerFlag & CYBLE_START_FLAG))
1751:.\Generated_Source\PSoC4/BLE_LED_eventHandler.c ****                 {
1752:.\Generated_Source\PSoC4/BLE_LED_eventHandler.c ****                     CyBle_SetState(CYBLE_STATE_SCANNING);
1753:.\Generated_Source\PSoC4/BLE_LED_eventHandler.c ****                     cyBle_eventHandlerFlag &= (uint8)~CYBLE_START_FLAG;
1754:.\Generated_Source\PSoC4/BLE_LED_eventHandler.c ****                 }
1755:.\Generated_Source\PSoC4/BLE_LED_eventHandler.c ****                 /* When application initiated stop scanning */
ARM GAS  C:\Users\tiantiaf\AppData\Local\Temp\cc2Xz98j.s 			page 42


1756:.\Generated_Source\PSoC4/BLE_LED_eventHandler.c ****                 else if(0u != (cyBle_eventHandlerFlag & CYBLE_STOP_FLAG))
1757:.\Generated_Source\PSoC4/BLE_LED_eventHandler.c ****                 {
1758:.\Generated_Source\PSoC4/BLE_LED_eventHandler.c ****                     CyBle_SetState(CYBLE_STATE_DISCONNECTED);  
1759:.\Generated_Source\PSoC4/BLE_LED_eventHandler.c ****                     cyBle_eventHandlerFlag &= (uint8)~CYBLE_STOP_FLAG;
1760:.\Generated_Source\PSoC4/BLE_LED_eventHandler.c ****                 }
1761:.\Generated_Source\PSoC4/BLE_LED_eventHandler.c ****                 else /* Following event indicates that scanning has been stopped by stack */
1762:.\Generated_Source\PSoC4/BLE_LED_eventHandler.c ****                 {
1763:.\Generated_Source\PSoC4/BLE_LED_eventHandler.c ****                     if(CYBLE_STATE_SCANNING == CyBle_GetState())
1764:.\Generated_Source\PSoC4/BLE_LED_eventHandler.c ****                     {
1765:.\Generated_Source\PSoC4/BLE_LED_eventHandler.c ****                         CyBle_SetState(CYBLE_STATE_DISCONNECTED);  
1766:.\Generated_Source\PSoC4/BLE_LED_eventHandler.c ****                     #if ((CYBLE_SLOW_SCAN_ENABLED != 0u) && (CYBLE_FAST_SCAN_TIMEOUT != 0u))
1767:.\Generated_Source\PSoC4/BLE_LED_eventHandler.c ****                         if(cyBle_scanningIntervalType == CYBLE_SCANNING_FAST)
1768:.\Generated_Source\PSoC4/BLE_LED_eventHandler.c ****                         {
1769:.\Generated_Source\PSoC4/BLE_LED_eventHandler.c ****                             /* When fast scanning time out occur: Start slow scanning */
1770:.\Generated_Source\PSoC4/BLE_LED_eventHandler.c ****                             if(CYBLE_ERROR_OK == CyBle_GapcStartScan(CYBLE_SCANNING_SLOW))
1771:.\Generated_Source\PSoC4/BLE_LED_eventHandler.c ****                             {
1772:.\Generated_Source\PSoC4/BLE_LED_eventHandler.c ****                                 CyBle_SetState(CYBLE_STATE_SCANNING);
1773:.\Generated_Source\PSoC4/BLE_LED_eventHandler.c ****                             }
1774:.\Generated_Source\PSoC4/BLE_LED_eventHandler.c ****                         }
1775:.\Generated_Source\PSoC4/BLE_LED_eventHandler.c ****                     #endif /* CYBLE_SLOW_SCAN_ENABLED */
1776:.\Generated_Source\PSoC4/BLE_LED_eventHandler.c ****                     }
1777:.\Generated_Source\PSoC4/BLE_LED_eventHandler.c ****                 }
1778:.\Generated_Source\PSoC4/BLE_LED_eventHandler.c ****             }
1779:.\Generated_Source\PSoC4/BLE_LED_eventHandler.c ****             break;
1780:.\Generated_Source\PSoC4/BLE_LED_eventHandler.c ****         #endif /* CYBLE_GAP_ROLE_CENTRAL || CYBLE_GAP_ROLE_OBSERVER */
1781:.\Generated_Source\PSoC4/BLE_LED_eventHandler.c **** 
1782:.\Generated_Source\PSoC4/BLE_LED_eventHandler.c ****         /**********************************************************
1783:.\Generated_Source\PSoC4/BLE_LED_eventHandler.c ****         * L2AP events 
1784:.\Generated_Source\PSoC4/BLE_LED_eventHandler.c ****         ************************************************************/
1785:.\Generated_Source\PSoC4/BLE_LED_eventHandler.c ****         case CYBLE_EVT_L2CAP_CONN_PARAM_UPDATE_RSP:
1786:.\Generated_Source\PSoC4/BLE_LED_eventHandler.c ****             CyBle_L2Cap_ConnParamUpdateRspEventHandler(*(uint16 *)eventParam);
1787:.\Generated_Source\PSoC4/BLE_LED_eventHandler.c ****             break;
1788:.\Generated_Source\PSoC4/BLE_LED_eventHandler.c ****         
1789:.\Generated_Source\PSoC4/BLE_LED_eventHandler.c ****         /**********************************************************
1790:.\Generated_Source\PSoC4/BLE_LED_eventHandler.c ****         * GATT events
1791:.\Generated_Source\PSoC4/BLE_LED_eventHandler.c ****         ************************************************************/        
1792:.\Generated_Source\PSoC4/BLE_LED_eventHandler.c ****         case CYBLE_EVT_GATT_CONNECT_IND:
1793:.\Generated_Source\PSoC4/BLE_LED_eventHandler.c ****             cyBle_connHandle = *(CYBLE_CONN_HANDLE_T *)eventParam;
 566              		.loc 1 1793 0
 567 019e 2148     		ldr	r0, .L37+52
 568              	.LVL43:
 569 01a0 211C     		mov	r1, r4
 570 01a2 0222     		mov	r2, #2
 571 01a4 FFF7FEFF 		bl	memcpy
 572              	.LVL44:
1794:.\Generated_Source\PSoC4/BLE_LED_eventHandler.c ****             cyBle_busyStatus = CYBLE_STACK_STATE_FREE;
 573              		.loc 1 1794 0
 574 01a8 0022     		mov	r2, #0
 575 01aa 1A4B     		ldr	r3, .L37+36
 576 01ac 1A70     		strb	r2, [r3]
1795:.\Generated_Source\PSoC4/BLE_LED_eventHandler.c ****             
1796:.\Generated_Source\PSoC4/BLE_LED_eventHandler.c ****         #if((CYBLE_GATT_ROLE_SERVER) && (CYBLE_GATT_DB_CCCD_COUNT != 0u) && \
1797:.\Generated_Source\PSoC4/BLE_LED_eventHandler.c ****             (CYBLE_BONDING_REQUIREMENT == CYBLE_BONDING_YES))
1798:.\Generated_Source\PSoC4/BLE_LED_eventHandler.c ****             /* Init CCCD values in RAM when bonding is enabled */
1799:.\Generated_Source\PSoC4/BLE_LED_eventHandler.c ****         	(void) memcpy (cyBle_attValuesCCCD, cyBle_flashStorage.attValuesCCCDFlashMemory[cyBle_conn
1800:.\Generated_Source\PSoC4/BLE_LED_eventHandler.c ****                             CYBLE_GATT_DB_CCCD_COUNT);
1801:.\Generated_Source\PSoC4/BLE_LED_eventHandler.c ****         #endif /* CYBLE_GATT_ROLE_SERVER && (CYBLE_BONDING_REQUIREMENT == CYBLE_BONDING_YES) */
ARM GAS  C:\Users\tiantiaf\AppData\Local\Temp\cc2Xz98j.s 			page 43


1802:.\Generated_Source\PSoC4/BLE_LED_eventHandler.c ****         
1803:.\Generated_Source\PSoC4/BLE_LED_eventHandler.c ****         #if (CYBLE_GATT_ROLE_CLIENT)
1804:.\Generated_Source\PSoC4/BLE_LED_eventHandler.c ****             CyBle_SetClientState(CYBLE_CLIENT_STATE_CONNECTED);
1805:.\Generated_Source\PSoC4/BLE_LED_eventHandler.c ****         #endif /* CYBLE_GATT_ROLE_CLIENT */
1806:.\Generated_Source\PSoC4/BLE_LED_eventHandler.c ****         
1807:.\Generated_Source\PSoC4/BLE_LED_eventHandler.c ****             CyBle_GattConnectReqHandler();
1808:.\Generated_Source\PSoC4/BLE_LED_eventHandler.c ****             break;
 577              		.loc 1 1808 0
 578 01ae 0DE0     		b	.L16
 579              	.LVL45:
 580              	.L26:
1809:.\Generated_Source\PSoC4/BLE_LED_eventHandler.c **** 
1810:.\Generated_Source\PSoC4/BLE_LED_eventHandler.c ****         case CYBLE_EVT_GATT_DISCONNECT_IND:
1811:.\Generated_Source\PSoC4/BLE_LED_eventHandler.c ****             CyBle_GattDisconnectEventHandler();
 581              		.loc 1 1811 0
 582 01b0 FFF7FEFF 		bl	CyBle_GattDisconnectEventHandler
 583              	.LVL46:
1812:.\Generated_Source\PSoC4/BLE_LED_eventHandler.c ****             break;
 584              		.loc 1 1812 0
 585 01b4 0AE0     		b	.L16
 586              	.LVL47:
 587              	.L27:
 588              	.LBB8:
1813:.\Generated_Source\PSoC4/BLE_LED_eventHandler.c **** 
1814:.\Generated_Source\PSoC4/BLE_LED_eventHandler.c ****     #if((CYBLE_GATT_ROLE_SERVER) || (CYBLE_GATT_ROLE_CLIENT))
1815:.\Generated_Source\PSoC4/BLE_LED_eventHandler.c ****         case CYBLE_EVT_GATTS_XCNHG_MTU_REQ:
1816:.\Generated_Source\PSoC4/BLE_LED_eventHandler.c ****             {
1817:.\Generated_Source\PSoC4/BLE_LED_eventHandler.c ****                 uint16 cyBle_mtuSize;
1818:.\Generated_Source\PSoC4/BLE_LED_eventHandler.c ****                 if(CYBLE_GATT_MTU > ((CYBLE_GATT_XCHG_MTU_PARAM_T *)eventParam)->mtu)
 589              		.loc 1 1818 0
 590 01b6 6188     		ldrh	r1, [r4, #2]
 591 01b8 1629     		cmp	r1, #22
 592 01ba 00D9     		bls	.L35
1819:.\Generated_Source\PSoC4/BLE_LED_eventHandler.c ****                 {
1820:.\Generated_Source\PSoC4/BLE_LED_eventHandler.c ****                     cyBle_mtuSize = ((CYBLE_GATT_XCHG_MTU_PARAM_T *)eventParam)->mtu;
1821:.\Generated_Source\PSoC4/BLE_LED_eventHandler.c ****                 }
1822:.\Generated_Source\PSoC4/BLE_LED_eventHandler.c ****                 else
1823:.\Generated_Source\PSoC4/BLE_LED_eventHandler.c ****                 {
1824:.\Generated_Source\PSoC4/BLE_LED_eventHandler.c ****                     cyBle_mtuSize = CYBLE_GATT_MTU;
 593              		.loc 1 1824 0
 594 01bc 1721     		mov	r1, #23
 595              	.L35:
 596              	.LVL48:
1825:.\Generated_Source\PSoC4/BLE_LED_eventHandler.c ****                 }
1826:.\Generated_Source\PSoC4/BLE_LED_eventHandler.c ****                 (void)CyBle_GattsExchangeMtuRsp(((CYBLE_GATT_XCHG_MTU_PARAM_T *)eventParam)->connHa
 597              		.loc 1 1826 0
 598 01be 2088     		ldrh	r0, [r4]
 599              	.LVL49:
 600 01c0 FFF7FEFF 		bl	CyBle_GattsExchangeMtuRsp
 601              	.LVL50:
 602              	.LBE8:
1827:.\Generated_Source\PSoC4/BLE_LED_eventHandler.c ****             }
1828:.\Generated_Source\PSoC4/BLE_LED_eventHandler.c ****             break;
 603              		.loc 1 1828 0
 604 01c4 02E0     		b	.L16
 605              	.LVL51:
 606              	.L28:
ARM GAS  C:\Users\tiantiaf\AppData\Local\Temp\cc2Xz98j.s 			page 44


1829:.\Generated_Source\PSoC4/BLE_LED_eventHandler.c ****     #endif /* CYBLE_GATT_ROLE_SERVER || CYBLE_GATT_ROLE_CLIENT */
1830:.\Generated_Source\PSoC4/BLE_LED_eventHandler.c ****     
1831:.\Generated_Source\PSoC4/BLE_LED_eventHandler.c ****     #if (CYBLE_GATT_ROLE_CLIENT)
1832:.\Generated_Source\PSoC4/BLE_LED_eventHandler.c ****         case CYBLE_EVT_GAPC_SCAN_PROGRESS_RESULT:
1833:.\Generated_Source\PSoC4/BLE_LED_eventHandler.c ****         #ifdef CYBLE_CPS_CLIENT
1834:.\Generated_Source\PSoC4/BLE_LED_eventHandler.c ****             CyBle_CpscScanProcessEventHandler((CYBLE_GAPC_ADV_REPORT_T *)eventParam);
1835:.\Generated_Source\PSoC4/BLE_LED_eventHandler.c ****         #endif /* CYBLE_CPS_CLIENT */
1836:.\Generated_Source\PSoC4/BLE_LED_eventHandler.c ****             break;
1837:.\Generated_Source\PSoC4/BLE_LED_eventHandler.c ****     #endif /* CYBLE_GATT_ROLE_CLIENT */
1838:.\Generated_Source\PSoC4/BLE_LED_eventHandler.c **** 
1839:.\Generated_Source\PSoC4/BLE_LED_eventHandler.c ****     #if(CYBLE_GATT_ROLE_SERVER)
1840:.\Generated_Source\PSoC4/BLE_LED_eventHandler.c ****         case CYBLE_EVT_GATTS_WRITE_REQ:
1841:.\Generated_Source\PSoC4/BLE_LED_eventHandler.c ****             CyBle_WriteReqHandler((CYBLE_GATTS_WRITE_REQ_PARAM_T *)eventParam);
 607              		.loc 1 1841 0
 608 01c6 201C     		mov	r0, r4
 609              	.LVL52:
 610 01c8 FFF7FEFF 		bl	CyBle_WriteReqHandler
 611              	.LVL53:
 612              	.L16:
1842:.\Generated_Source\PSoC4/BLE_LED_eventHandler.c ****             break;
1843:.\Generated_Source\PSoC4/BLE_LED_eventHandler.c **** 
1844:.\Generated_Source\PSoC4/BLE_LED_eventHandler.c ****         case CYBLE_EVT_GATTS_WRITE_CMD_REQ:
1845:.\Generated_Source\PSoC4/BLE_LED_eventHandler.c ****         #ifdef CYBLE_IAS_SERVER
1846:.\Generated_Source\PSoC4/BLE_LED_eventHandler.c ****             if((cyBle_eventHandlerFlag & CYBLE_CALLBACK) != 0u)
1847:.\Generated_Source\PSoC4/BLE_LED_eventHandler.c ****             {
1848:.\Generated_Source\PSoC4/BLE_LED_eventHandler.c ****                 (void)CyBle_IassWriteCmdEventHandler((CYBLE_GATTS_WRITE_REQ_PARAM_T *)eventParam);
1849:.\Generated_Source\PSoC4/BLE_LED_eventHandler.c ****             }
1850:.\Generated_Source\PSoC4/BLE_LED_eventHandler.c ****         #endif /* CYBLE_IAS_SERVER */
1851:.\Generated_Source\PSoC4/BLE_LED_eventHandler.c ****         #ifdef CYBLE_IPS_SERVER
1852:.\Generated_Source\PSoC4/BLE_LED_eventHandler.c ****             if((cyBle_eventHandlerFlag & CYBLE_CALLBACK) != 0u)
1853:.\Generated_Source\PSoC4/BLE_LED_eventHandler.c ****             {
1854:.\Generated_Source\PSoC4/BLE_LED_eventHandler.c ****                 (void)CyBle_IpssWriteCmdEventHandler((CYBLE_GATTS_WRITE_REQ_PARAM_T *)eventParam);
1855:.\Generated_Source\PSoC4/BLE_LED_eventHandler.c ****             }
1856:.\Generated_Source\PSoC4/BLE_LED_eventHandler.c ****         #endif /* CYBLE_IPS_SERVER */
1857:.\Generated_Source\PSoC4/BLE_LED_eventHandler.c ****         #ifdef CYBLE_HIDS_SERVER
1858:.\Generated_Source\PSoC4/BLE_LED_eventHandler.c ****             if((cyBle_eventHandlerFlag & CYBLE_CALLBACK) != 0u)
1859:.\Generated_Source\PSoC4/BLE_LED_eventHandler.c ****             {
1860:.\Generated_Source\PSoC4/BLE_LED_eventHandler.c ****                 (void)CyBle_HidssWriteEventHandler((CYBLE_GATTS_WRITE_REQ_PARAM_T *)eventParam);
1861:.\Generated_Source\PSoC4/BLE_LED_eventHandler.c ****             }
1862:.\Generated_Source\PSoC4/BLE_LED_eventHandler.c ****         #endif /* CYBLE_HIDS_SERVER */
1863:.\Generated_Source\PSoC4/BLE_LED_eventHandler.c ****         #ifdef CYBLE_PASS_SERVER
1864:.\Generated_Source\PSoC4/BLE_LED_eventHandler.c ****             if((cyBle_eventHandlerFlag & CYBLE_CALLBACK) != 0u)
1865:.\Generated_Source\PSoC4/BLE_LED_eventHandler.c ****             {
1866:.\Generated_Source\PSoC4/BLE_LED_eventHandler.c ****                 (void)CyBle_PasssWriteCmdEventHandler((CYBLE_GATTS_WRITE_REQ_PARAM_T *)eventParam);
1867:.\Generated_Source\PSoC4/BLE_LED_eventHandler.c ****             }
1868:.\Generated_Source\PSoC4/BLE_LED_eventHandler.c ****         #endif /* CYBLE_PASS_SERVER */
1869:.\Generated_Source\PSoC4/BLE_LED_eventHandler.c ****         #ifdef CYBLE_RTUS_SERVER
1870:.\Generated_Source\PSoC4/BLE_LED_eventHandler.c ****             if((cyBle_eventHandlerFlag & CYBLE_CALLBACK) != 0u)
1871:.\Generated_Source\PSoC4/BLE_LED_eventHandler.c ****             {
1872:.\Generated_Source\PSoC4/BLE_LED_eventHandler.c ****                 (void)CyBle_RtussWriteCmdEventHandler((CYBLE_GATTS_WRITE_REQ_PARAM_T *)eventParam);
1873:.\Generated_Source\PSoC4/BLE_LED_eventHandler.c ****             }
1874:.\Generated_Source\PSoC4/BLE_LED_eventHandler.c ****         #endif /* CYBLE_RTUS_SERVER */
1875:.\Generated_Source\PSoC4/BLE_LED_eventHandler.c ****         #ifdef CYBLE_SCPS_SERVER
1876:.\Generated_Source\PSoC4/BLE_LED_eventHandler.c ****             if((cyBle_eventHandlerFlag & CYBLE_CALLBACK) != 0u)
1877:.\Generated_Source\PSoC4/BLE_LED_eventHandler.c ****             {
1878:.\Generated_Source\PSoC4/BLE_LED_eventHandler.c ****                 (void)CyBle_ScpssWriteEventHandler((CYBLE_GATTS_WRITE_REQ_PARAM_T *)eventParam);
1879:.\Generated_Source\PSoC4/BLE_LED_eventHandler.c ****             }
ARM GAS  C:\Users\tiantiaf\AppData\Local\Temp\cc2Xz98j.s 			page 45


1880:.\Generated_Source\PSoC4/BLE_LED_eventHandler.c ****         #endif /* CYBLE_SCPS_SERVER */
1881:.\Generated_Source\PSoC4/BLE_LED_eventHandler.c ****             break;
1882:.\Generated_Source\PSoC4/BLE_LED_eventHandler.c ****         
1883:.\Generated_Source\PSoC4/BLE_LED_eventHandler.c ****         case CYBLE_EVT_GATTS_PREP_WRITE_REQ:
1884:.\Generated_Source\PSoC4/BLE_LED_eventHandler.c ****         #ifdef CYBLE_BMS_SERVER
1885:.\Generated_Source\PSoC4/BLE_LED_eventHandler.c ****             CyBle_BmssPrepareWriteRequestEventHandler((CYBLE_GATTS_PREP_WRITE_REQ_PARAM_T *)eventPa
1886:.\Generated_Source\PSoC4/BLE_LED_eventHandler.c ****         #endif /* CYBLE_BMS_SERVER */
1887:.\Generated_Source\PSoC4/BLE_LED_eventHandler.c ****         #ifdef CYBLE_BTS_SERVER
1888:.\Generated_Source\PSoC4/BLE_LED_eventHandler.c ****             if((cyBle_eventHandlerFlag & CYBLE_CALLBACK) != 0u)
1889:.\Generated_Source\PSoC4/BLE_LED_eventHandler.c ****             {
1890:.\Generated_Source\PSoC4/BLE_LED_eventHandler.c ****                 CyBle_BtssPrepareWriteRequestEventHandler((CYBLE_GATTS_PREP_WRITE_REQ_PARAM_T *)eve
1891:.\Generated_Source\PSoC4/BLE_LED_eventHandler.c ****             }
1892:.\Generated_Source\PSoC4/BLE_LED_eventHandler.c ****         #endif /* CYBLE_BTS_SERVER */
1893:.\Generated_Source\PSoC4/BLE_LED_eventHandler.c ****         #ifdef CYBLE_ESS_SERVER
1894:.\Generated_Source\PSoC4/BLE_LED_eventHandler.c ****             if((cyBle_eventHandlerFlag & CYBLE_CALLBACK) != 0u)
1895:.\Generated_Source\PSoC4/BLE_LED_eventHandler.c ****             {
1896:.\Generated_Source\PSoC4/BLE_LED_eventHandler.c ****                 CyBle_EsssPrepareWriteRequestEventHandler((CYBLE_GATTS_PREP_WRITE_REQ_PARAM_T *)eve
1897:.\Generated_Source\PSoC4/BLE_LED_eventHandler.c ****             }
1898:.\Generated_Source\PSoC4/BLE_LED_eventHandler.c ****         #endif /* CYBLE_ESS_SERVER */
1899:.\Generated_Source\PSoC4/BLE_LED_eventHandler.c ****         #ifdef CYBLE_HPS_SERVER
1900:.\Generated_Source\PSoC4/BLE_LED_eventHandler.c ****             if((cyBle_eventHandlerFlag & CYBLE_CALLBACK) != 0u)
1901:.\Generated_Source\PSoC4/BLE_LED_eventHandler.c ****             {
1902:.\Generated_Source\PSoC4/BLE_LED_eventHandler.c ****                 CyBle_HpssPrepareWriteRequestEventHandler((CYBLE_GATTS_PREP_WRITE_REQ_PARAM_T *)eve
1903:.\Generated_Source\PSoC4/BLE_LED_eventHandler.c ****             }
1904:.\Generated_Source\PSoC4/BLE_LED_eventHandler.c ****         #endif /* CYBLE_HPS_SERVER */
1905:.\Generated_Source\PSoC4/BLE_LED_eventHandler.c ****         #ifdef CYBLE_IPS_SERVER
1906:.\Generated_Source\PSoC4/BLE_LED_eventHandler.c ****             if((cyBle_eventHandlerFlag & CYBLE_CALLBACK) != 0u)
1907:.\Generated_Source\PSoC4/BLE_LED_eventHandler.c ****             {
1908:.\Generated_Source\PSoC4/BLE_LED_eventHandler.c ****                 CyBle_IpssPrepareWriteRequestEventHandler((CYBLE_GATTS_PREP_WRITE_REQ_PARAM_T *)eve
1909:.\Generated_Source\PSoC4/BLE_LED_eventHandler.c ****             }
1910:.\Generated_Source\PSoC4/BLE_LED_eventHandler.c ****         #endif /* CYBLE_IPS_SERVER */
1911:.\Generated_Source\PSoC4/BLE_LED_eventHandler.c ****         #ifdef CYBLE_UDS_SERVER
1912:.\Generated_Source\PSoC4/BLE_LED_eventHandler.c ****             if((cyBle_eventHandlerFlag & CYBLE_CALLBACK) != 0u)
1913:.\Generated_Source\PSoC4/BLE_LED_eventHandler.c ****             {
1914:.\Generated_Source\PSoC4/BLE_LED_eventHandler.c ****                 CyBle_UdssPrepareWriteRequestEventHandler((CYBLE_GATTS_PREP_WRITE_REQ_PARAM_T *)eve
1915:.\Generated_Source\PSoC4/BLE_LED_eventHandler.c ****             }
1916:.\Generated_Source\PSoC4/BLE_LED_eventHandler.c ****         #endif /* CYBLE_UDS_SERVER */
1917:.\Generated_Source\PSoC4/BLE_LED_eventHandler.c ****             break;
1918:.\Generated_Source\PSoC4/BLE_LED_eventHandler.c **** 
1919:.\Generated_Source\PSoC4/BLE_LED_eventHandler.c ****         case CYBLE_EVT_GATTS_EXEC_WRITE_REQ:
1920:.\Generated_Source\PSoC4/BLE_LED_eventHandler.c ****         #ifdef CYBLE_BMS_SERVER
1921:.\Generated_Source\PSoC4/BLE_LED_eventHandler.c ****             CyBle_BmssExecuteWriteRequestEventHandler((CYBLE_GATTS_EXEC_WRITE_REQ_T *)eventParam);
1922:.\Generated_Source\PSoC4/BLE_LED_eventHandler.c ****         #endif /* CYBLE_BMS_SERVER */
1923:.\Generated_Source\PSoC4/BLE_LED_eventHandler.c ****         #ifdef CYBLE_BTS_SERVER
1924:.\Generated_Source\PSoC4/BLE_LED_eventHandler.c ****             CyBle_BtssExecuteWriteRequestEventHandler((CYBLE_GATTS_EXEC_WRITE_REQ_T *)eventParam);
1925:.\Generated_Source\PSoC4/BLE_LED_eventHandler.c ****         #endif /* CYBLE_BTS_SERVER */
1926:.\Generated_Source\PSoC4/BLE_LED_eventHandler.c ****         #ifdef CYBLE_ESS_SERVER
1927:.\Generated_Source\PSoC4/BLE_LED_eventHandler.c ****             CyBle_EsssExecuteWriteRequestEventHandler((CYBLE_GATTS_EXEC_WRITE_REQ_T *)eventParam);
1928:.\Generated_Source\PSoC4/BLE_LED_eventHandler.c ****         #endif /* CYBLE_ESS_SERVER */
1929:.\Generated_Source\PSoC4/BLE_LED_eventHandler.c ****         #ifdef CYBLE_HPS_SERVER
1930:.\Generated_Source\PSoC4/BLE_LED_eventHandler.c ****             CyBle_HpssExecuteWriteRequestEventHandler((CYBLE_GATTS_EXEC_WRITE_REQ_T *)eventParam);
1931:.\Generated_Source\PSoC4/BLE_LED_eventHandler.c ****         #endif /* CYBLE_HPS_SERVER */
1932:.\Generated_Source\PSoC4/BLE_LED_eventHandler.c ****         #ifdef CYBLE_IPS_SERVER
1933:.\Generated_Source\PSoC4/BLE_LED_eventHandler.c ****             CyBle_IpssExecuteWriteRequestEventHandler((CYBLE_GATTS_EXEC_WRITE_REQ_T *)eventParam);
1934:.\Generated_Source\PSoC4/BLE_LED_eventHandler.c ****         #endif /* CYBLE_IPS_SERVER */
1935:.\Generated_Source\PSoC4/BLE_LED_eventHandler.c **** 		#ifdef CYBLE_UDS_SERVER
1936:.\Generated_Source\PSoC4/BLE_LED_eventHandler.c ****             CyBle_UdssExecuteWriteRequestEventHandler((CYBLE_GATTS_EXEC_WRITE_REQ_T *)eventParam);
ARM GAS  C:\Users\tiantiaf\AppData\Local\Temp\cc2Xz98j.s 			page 46


1937:.\Generated_Source\PSoC4/BLE_LED_eventHandler.c ****         #endif /* CYBLE_UDS_SERVER */
1938:.\Generated_Source\PSoC4/BLE_LED_eventHandler.c ****             break;
1939:.\Generated_Source\PSoC4/BLE_LED_eventHandler.c ****         
1940:.\Generated_Source\PSoC4/BLE_LED_eventHandler.c ****         case CYBLE_EVT_GATTS_HANDLE_VALUE_CNF:
1941:.\Generated_Source\PSoC4/BLE_LED_eventHandler.c ****             CyBle_ValueConfirmation((CYBLE_CONN_HANDLE_T *)eventParam);
1942:.\Generated_Source\PSoC4/BLE_LED_eventHandler.c ****             break;
1943:.\Generated_Source\PSoC4/BLE_LED_eventHandler.c ****             
1944:.\Generated_Source\PSoC4/BLE_LED_eventHandler.c ****         case CYBLE_EVT_GATTS_READ_CHAR_VAL_ACCESS_REQ:
1945:.\Generated_Source\PSoC4/BLE_LED_eventHandler.c ****         #ifdef CYBLE_UDS_SERVER
1946:.\Generated_Source\PSoC4/BLE_LED_eventHandler.c ****             CyBle_UdssReadRequestEventHandler((CYBLE_GATTS_CHAR_VAL_READ_REQ_T *)eventParam);
1947:.\Generated_Source\PSoC4/BLE_LED_eventHandler.c ****         #endif /* CYBLE_UDS_SERVER */
1948:.\Generated_Source\PSoC4/BLE_LED_eventHandler.c ****             break;
1949:.\Generated_Source\PSoC4/BLE_LED_eventHandler.c ****             
1950:.\Generated_Source\PSoC4/BLE_LED_eventHandler.c ****     #endif /* CYBLE_GATT_ROLE_SERVER */
1951:.\Generated_Source\PSoC4/BLE_LED_eventHandler.c **** 
1952:.\Generated_Source\PSoC4/BLE_LED_eventHandler.c ****     #if (CYBLE_GATT_ROLE_CLIENT)
1953:.\Generated_Source\PSoC4/BLE_LED_eventHandler.c ****         
1954:.\Generated_Source\PSoC4/BLE_LED_eventHandler.c ****         case CYBLE_EVT_GATTC_READ_BY_GROUP_TYPE_RSP:
1955:.\Generated_Source\PSoC4/BLE_LED_eventHandler.c ****             CyBle_ReadByGroupEventHandler((CYBLE_GATTC_READ_BY_GRP_RSP_PARAM_T *)eventParam);
1956:.\Generated_Source\PSoC4/BLE_LED_eventHandler.c ****             break;
1957:.\Generated_Source\PSoC4/BLE_LED_eventHandler.c **** 
1958:.\Generated_Source\PSoC4/BLE_LED_eventHandler.c ****         case CYBLE_EVT_GATTC_READ_BY_TYPE_RSP:
1959:.\Generated_Source\PSoC4/BLE_LED_eventHandler.c ****             CyBle_ReadByTypeEventHandler((CYBLE_GATTC_READ_BY_TYPE_RSP_PARAM_T *)eventParam);
1960:.\Generated_Source\PSoC4/BLE_LED_eventHandler.c ****             break;
1961:.\Generated_Source\PSoC4/BLE_LED_eventHandler.c **** 
1962:.\Generated_Source\PSoC4/BLE_LED_eventHandler.c ****         case CYBLE_EVT_GATTC_READ_BLOB_RSP:
1963:.\Generated_Source\PSoC4/BLE_LED_eventHandler.c ****         #ifdef CYBLE_ESS_CLIENT
1964:.\Generated_Source\PSoC4/BLE_LED_eventHandler.c ****             CyBle_EsscReadLongRespEventHandler((CYBLE_GATTC_READ_RSP_PARAM_T *)eventParam);
1965:.\Generated_Source\PSoC4/BLE_LED_eventHandler.c ****         #endif /* CYBLE_ESS_CLIENT */
1966:.\Generated_Source\PSoC4/BLE_LED_eventHandler.c ****         #ifdef CYBLE_HPS_CLIENT
1967:.\Generated_Source\PSoC4/BLE_LED_eventHandler.c ****             CyBle_HpscReadLongRespEventHandler((CYBLE_GATTC_READ_RSP_PARAM_T *)eventParam);
1968:.\Generated_Source\PSoC4/BLE_LED_eventHandler.c ****         #endif /* CYBLE_HPS_CLIENT */
1969:.\Generated_Source\PSoC4/BLE_LED_eventHandler.c **** 		#ifdef CYBLE_IPS_CLIENT
1970:.\Generated_Source\PSoC4/BLE_LED_eventHandler.c ****             CyBle_IpscReadLongRespEventHandler((CYBLE_GATTC_READ_RSP_PARAM_T *)eventParam);
1971:.\Generated_Source\PSoC4/BLE_LED_eventHandler.c ****         #endif /* CYBLE_IPS_CLIENT */
1972:.\Generated_Source\PSoC4/BLE_LED_eventHandler.c ****         #ifdef CYBLE_UDS_CLIENT
1973:.\Generated_Source\PSoC4/BLE_LED_eventHandler.c ****             if((cyBle_eventHandlerFlag & CYBLE_CALLBACK) != 0u)
1974:.\Generated_Source\PSoC4/BLE_LED_eventHandler.c ****             {
1975:.\Generated_Source\PSoC4/BLE_LED_eventHandler.c ****                 CyBle_UdscReadLongRespEventHandler((CYBLE_GATTC_READ_RSP_PARAM_T *)eventParam);
1976:.\Generated_Source\PSoC4/BLE_LED_eventHandler.c ****             }
1977:.\Generated_Source\PSoC4/BLE_LED_eventHandler.c ****         #endif /* CYBLE_UDS_CLIENT */
1978:.\Generated_Source\PSoC4/BLE_LED_eventHandler.c ****             break;
1979:.\Generated_Source\PSoC4/BLE_LED_eventHandler.c ****         
1980:.\Generated_Source\PSoC4/BLE_LED_eventHandler.c ****         case CYBLE_EVT_GATTC_LONG_PROCEDURE_END:
1981:.\Generated_Source\PSoC4/BLE_LED_eventHandler.c ****             CyBle_LongProcedureEndEventHandler();
1982:.\Generated_Source\PSoC4/BLE_LED_eventHandler.c ****             break;
1983:.\Generated_Source\PSoC4/BLE_LED_eventHandler.c ****         
1984:.\Generated_Source\PSoC4/BLE_LED_eventHandler.c ****         case CYBLE_EVT_GATTC_FIND_INFO_RSP:
1985:.\Generated_Source\PSoC4/BLE_LED_eventHandler.c ****             CyBle_FindInfoEventHandler((CYBLE_GATTC_FIND_INFO_RSP_PARAM_T *)eventParam);
1986:.\Generated_Source\PSoC4/BLE_LED_eventHandler.c ****             break;
1987:.\Generated_Source\PSoC4/BLE_LED_eventHandler.c **** 
1988:.\Generated_Source\PSoC4/BLE_LED_eventHandler.c ****         case CYBLE_EVT_GATTC_ERROR_RSP:
1989:.\Generated_Source\PSoC4/BLE_LED_eventHandler.c ****             CyBle_ErrorResponseEventHandler((CYBLE_GATTC_ERR_RSP_PARAM_T *)eventParam);
1990:.\Generated_Source\PSoC4/BLE_LED_eventHandler.c ****             break;
1991:.\Generated_Source\PSoC4/BLE_LED_eventHandler.c **** 
1992:.\Generated_Source\PSoC4/BLE_LED_eventHandler.c ****         case CYBLE_EVT_GATTC_HANDLE_VALUE_NTF:
1993:.\Generated_Source\PSoC4/BLE_LED_eventHandler.c ****             CyBle_NotificationEventHandler((CYBLE_GATTC_HANDLE_VALUE_NTF_PARAM_T *)eventParam);
ARM GAS  C:\Users\tiantiaf\AppData\Local\Temp\cc2Xz98j.s 			page 47


1994:.\Generated_Source\PSoC4/BLE_LED_eventHandler.c ****             break;
1995:.\Generated_Source\PSoC4/BLE_LED_eventHandler.c **** 
1996:.\Generated_Source\PSoC4/BLE_LED_eventHandler.c ****         case CYBLE_EVT_GATTC_HANDLE_VALUE_IND:
1997:.\Generated_Source\PSoC4/BLE_LED_eventHandler.c ****             CyBle_GattcIndicationEventHandler((CYBLE_GATTC_HANDLE_VALUE_IND_PARAM_T *)eventParam);
1998:.\Generated_Source\PSoC4/BLE_LED_eventHandler.c ****             CyBle_IndicationEventHandler((CYBLE_GATTC_HANDLE_VALUE_IND_PARAM_T *)eventParam);
1999:.\Generated_Source\PSoC4/BLE_LED_eventHandler.c ****         
2000:.\Generated_Source\PSoC4/BLE_LED_eventHandler.c ****             /* Respond with a Handle Value Confirmation when request handled */
2001:.\Generated_Source\PSoC4/BLE_LED_eventHandler.c ****             if((cyBle_eventHandlerFlag & CYBLE_CALLBACK) == 0u)
2002:.\Generated_Source\PSoC4/BLE_LED_eventHandler.c ****             {
2003:.\Generated_Source\PSoC4/BLE_LED_eventHandler.c ****                 (void)CyBle_GattcConfirmation(((CYBLE_GATTC_HANDLE_VALUE_IND_PARAM_T *)eventParam)-
2004:.\Generated_Source\PSoC4/BLE_LED_eventHandler.c ****             }
2005:.\Generated_Source\PSoC4/BLE_LED_eventHandler.c ****             break;
2006:.\Generated_Source\PSoC4/BLE_LED_eventHandler.c ****         
2007:.\Generated_Source\PSoC4/BLE_LED_eventHandler.c ****         case CYBLE_EVT_GATTC_READ_RSP:
2008:.\Generated_Source\PSoC4/BLE_LED_eventHandler.c ****             CyBle_ReadResponseEventHandler((CYBLE_GATTC_READ_RSP_PARAM_T *)eventParam);
2009:.\Generated_Source\PSoC4/BLE_LED_eventHandler.c ****             break;
2010:.\Generated_Source\PSoC4/BLE_LED_eventHandler.c ****         
2011:.\Generated_Source\PSoC4/BLE_LED_eventHandler.c ****         case CYBLE_EVT_GATTC_READ_MULTI_RSP:
2012:.\Generated_Source\PSoC4/BLE_LED_eventHandler.c ****             CyBle_ReadMultipleResponseEventHandler((CYBLE_GATTC_READ_RSP_PARAM_T *)eventParam);
2013:.\Generated_Source\PSoC4/BLE_LED_eventHandler.c ****             break;
2014:.\Generated_Source\PSoC4/BLE_LED_eventHandler.c ****             
2015:.\Generated_Source\PSoC4/BLE_LED_eventHandler.c ****         case CYBLE_EVT_GATTC_WRITE_RSP:
2016:.\Generated_Source\PSoC4/BLE_LED_eventHandler.c ****             CyBle_GattcWriteResponseEventHandler((CYBLE_CONN_HANDLE_T *)eventParam);
2017:.\Generated_Source\PSoC4/BLE_LED_eventHandler.c ****             break;
2018:.\Generated_Source\PSoC4/BLE_LED_eventHandler.c ****             
2019:.\Generated_Source\PSoC4/BLE_LED_eventHandler.c ****         case CYBLE_EVT_GATTC_EXEC_WRITE_RSP:
2020:.\Generated_Source\PSoC4/BLE_LED_eventHandler.c ****         #ifdef CYBLE_BMS_CLIENT
2021:.\Generated_Source\PSoC4/BLE_LED_eventHandler.c ****             CyBle_BmscExecuteWriteResponseEventHandler((CYBLE_GATTC_EXEC_WRITE_RSP_T *)eventParam);
2022:.\Generated_Source\PSoC4/BLE_LED_eventHandler.c ****         #endif /* CYBLE_BMS_CLIENT */
2023:.\Generated_Source\PSoC4/BLE_LED_eventHandler.c ****         #ifdef CYBLE_ESS_CLIENT
2024:.\Generated_Source\PSoC4/BLE_LED_eventHandler.c ****             if((cyBle_eventHandlerFlag & CYBLE_CALLBACK) != 0u)
2025:.\Generated_Source\PSoC4/BLE_LED_eventHandler.c ****             {
2026:.\Generated_Source\PSoC4/BLE_LED_eventHandler.c ****                 CyBle_EsscExecuteWriteResponseEventHandler((CYBLE_GATTC_EXEC_WRITE_RSP_T *)eventPar
2027:.\Generated_Source\PSoC4/BLE_LED_eventHandler.c ****             }
2028:.\Generated_Source\PSoC4/BLE_LED_eventHandler.c ****         #endif /* CYBLE_ESS_CLIENT */
2029:.\Generated_Source\PSoC4/BLE_LED_eventHandler.c ****         #ifdef CYBLE_HPS_CLIENT
2030:.\Generated_Source\PSoC4/BLE_LED_eventHandler.c ****             if((cyBle_eventHandlerFlag & CYBLE_CALLBACK) != 0u)
2031:.\Generated_Source\PSoC4/BLE_LED_eventHandler.c ****             {
2032:.\Generated_Source\PSoC4/BLE_LED_eventHandler.c ****                 CyBle_HpscExecuteWriteResponseEventHandler((CYBLE_GATTC_EXEC_WRITE_RSP_T *)eventPar
2033:.\Generated_Source\PSoC4/BLE_LED_eventHandler.c ****             }
2034:.\Generated_Source\PSoC4/BLE_LED_eventHandler.c ****         #endif /* CYBLE_HPS_CLIENT */
2035:.\Generated_Source\PSoC4/BLE_LED_eventHandler.c ****         #ifdef CYBLE_IPS_CLIENT
2036:.\Generated_Source\PSoC4/BLE_LED_eventHandler.c ****             if((cyBle_eventHandlerFlag & CYBLE_CALLBACK) != 0u)
2037:.\Generated_Source\PSoC4/BLE_LED_eventHandler.c ****             {
2038:.\Generated_Source\PSoC4/BLE_LED_eventHandler.c ****                 CyBle_IpscExecuteWriteResponseEventHandler((CYBLE_GATTC_EXEC_WRITE_RSP_T *)eventPar
2039:.\Generated_Source\PSoC4/BLE_LED_eventHandler.c ****             }
2040:.\Generated_Source\PSoC4/BLE_LED_eventHandler.c ****         #endif /* CYBLE_IPS_CLIENT */
2041:.\Generated_Source\PSoC4/BLE_LED_eventHandler.c ****         #ifdef CYBLE_UDS_CLIENT
2042:.\Generated_Source\PSoC4/BLE_LED_eventHandler.c ****             if((cyBle_eventHandlerFlag & CYBLE_CALLBACK) != 0u)
2043:.\Generated_Source\PSoC4/BLE_LED_eventHandler.c ****             {
2044:.\Generated_Source\PSoC4/BLE_LED_eventHandler.c ****                 CyBle_UdscExecuteWriteResponseEventHandler((CYBLE_GATTC_EXEC_WRITE_RSP_T *)eventPar
2045:.\Generated_Source\PSoC4/BLE_LED_eventHandler.c ****             }
2046:.\Generated_Source\PSoC4/BLE_LED_eventHandler.c ****         #endif /* CYBLE_UDS_CLIENT */
2047:.\Generated_Source\PSoC4/BLE_LED_eventHandler.c ****             break;
2048:.\Generated_Source\PSoC4/BLE_LED_eventHandler.c ****             
2049:.\Generated_Source\PSoC4/BLE_LED_eventHandler.c ****     #endif /* CYBLE_GATT_ROLE_CLIENT */
2050:.\Generated_Source\PSoC4/BLE_LED_eventHandler.c **** 
ARM GAS  C:\Users\tiantiaf\AppData\Local\Temp\cc2Xz98j.s 			page 48


2051:.\Generated_Source\PSoC4/BLE_LED_eventHandler.c ****     #if((CYBLE_GAP_ROLE_PERIPHERAL || CYBLE_GAP_ROLE_CENTRAL) && (CYBLE_BONDING_REQUIREMENT == CYBL
2052:.\Generated_Source\PSoC4/BLE_LED_eventHandler.c **** 
2053:.\Generated_Source\PSoC4/BLE_LED_eventHandler.c ****         case CYBLE_EVT_PENDING_FLASH_WRITE:
2054:.\Generated_Source\PSoC4/BLE_LED_eventHandler.c ****             cyBle_pendingFlashWrite |= CYBLE_PENDING_STACK_FLASH_WRITE_BIT;
2055:.\Generated_Source\PSoC4/BLE_LED_eventHandler.c ****             break;
2056:.\Generated_Source\PSoC4/BLE_LED_eventHandler.c ****         
2057:.\Generated_Source\PSoC4/BLE_LED_eventHandler.c ****     #endif  /* (CYBLE_BONDING_REQUIREMENT == CYBLE_BONDING_YES) */
2058:.\Generated_Source\PSoC4/BLE_LED_eventHandler.c ****     
2059:.\Generated_Source\PSoC4/BLE_LED_eventHandler.c ****         default:
2060:.\Generated_Source\PSoC4/BLE_LED_eventHandler.c ****             break;
2061:.\Generated_Source\PSoC4/BLE_LED_eventHandler.c ****     }
2062:.\Generated_Source\PSoC4/BLE_LED_eventHandler.c **** 
2063:.\Generated_Source\PSoC4/BLE_LED_eventHandler.c ****     if(0u != (cyBle_eventHandlerFlag & (CYBLE_CALLBACK | CYBLE_ENABLE_ALL_EVENTS))) 
 613              		.loc 1 2063 0
 614 01cc 084B     		ldr	r3, .L37
 615 01ce 1A78     		ldrb	r2, [r3]
 616 01d0 1123     		mov	r3, #17
 617 01d2 1A42     		tst	r2, r3
 618 01d4 09D0     		beq	.L15
2064:.\Generated_Source\PSoC4/BLE_LED_eventHandler.c ****     {
2065:.\Generated_Source\PSoC4/BLE_LED_eventHandler.c ****         cyBle_eventHandlerFlag &= (uint8)~CYBLE_CALLBACK;
 619              		.loc 1 2065 0
 620 01d6 064A     		ldr	r2, .L37
 621 01d8 1378     		ldrb	r3, [r2]
 622 01da 0121     		mov	r1, #1
 623 01dc 8B43     		bic	r3, r1
 624 01de 1370     		strb	r3, [r2]
2066:.\Generated_Source\PSoC4/BLE_LED_eventHandler.c ****         CyBle_ApplCallback((uint32)eventCode, eventParam);
 625              		.loc 1 2066 0
 626 01e0 124B     		ldr	r3, .L37+60
 627 01e2 1B68     		ldr	r3, [r3]
 628 01e4 281C     		mov	r0, r5
 629 01e6 211C     		mov	r1, r4
 630 01e8 9847     		blx	r3
 631              	.LVL54:
 632              	.L15:
2067:.\Generated_Source\PSoC4/BLE_LED_eventHandler.c ****     }
2068:.\Generated_Source\PSoC4/BLE_LED_eventHandler.c **** }
 633              		.loc 1 2068 0
 634 01ea 03B0     		add	sp, sp, #12
 635              		@ sp needed
 636              	.LVL55:
 637 01ec F0BD     		pop	{r4, r5, r6, r7, pc}
 638              	.L38:
 639 01ee C046     		.align	2
 640              	.L37:
 641 01f0 00000000 		.word	cyBle_eventHandlerFlag
 642 01f4 00000000 		.word	.L18
 643 01f8 00000000 		.word	cyBle_sflashDeviceAddress
 644 01fc 7CF1FF0F 		.word	268431740
 645 0200 7DF1FF0F 		.word	268431741
 646 0204 7BF1FF0F 		.word	268431739
 647 0208 78F1FF0F 		.word	268431736
 648 020c 00000000 		.word	cyBle_deviceAddress
 649 0210 00000000 		.word	cyBle_state
 650 0214 00000000 		.word	cyBle_busyStatus
 651 0218 00000000 		.word	.LANCHOR0
ARM GAS  C:\Users\tiantiaf\AppData\Local\Temp\cc2Xz98j.s 			page 49


 652 021c E00A0000 		.word	cyBle_stackMemoryRam+2784
 653 0220 00000000 		.word	.LANCHOR1
 654 0224 00000000 		.word	cyBle_connHandle
 655 0228 00000000 		.word	cyBle_advertisingIntervalType
 656 022c 00000000 		.word	CyBle_ApplCallback
 657              		.cfi_endproc
 658              	.LFE10:
 659              		.size	CyBle_EventHandler, .-CyBle_EventHandler
 660              		.global	cyBle_authInfo
 661              		.comm	cyBle_advertisingIntervalType,1,1
 662              		.comm	cyBle_busyStatus,1,1
 663              		.comm	cyBle_eventHandlerFlag,1,1
 664              		.comm	cyBle_connHandle,2,4
 665              		.data
 666              		.align	2
 667              		.set	.LANCHOR1,. + 0
 668              		.type	cyBle_authInfo, %object
 669              		.size	cyBle_authInfo, 5
 670              	cyBle_authInfo:
 671 0000 10       		.byte	16
 672 0001 00       		.byte	0
 673 0002 10       		.byte	16
 674 0003 00       		.byte	0
 675 0004 00       		.byte	0
 676 0005 000000   		.bss
 677              		.align	2
 678              		.set	.LANCHOR0,. + 0
 679              		.type	gPrepWriteReqMem.6333, %object
 680              		.size	gPrepWriteReqMem.6333, 8
 681              	gPrepWriteReqMem.6333:
 682 0000 00000000 		.space	8
 682      00000000 
 683              		.text
 684              	.Letext0:
 685              		.file 2 ".\\Generated_Source\\PSoC4\\cytypes.h"
 686              		.file 3 ".\\Generated_Source\\PSoC4\\BLE_LED_Stack.h"
 687              		.file 4 ".\\Generated_Source\\PSoC4\\BLE_LED_StackHostMain.h"
 688              		.file 5 ".\\Generated_Source\\PSoC4\\BLE_LED_StackGap.h"
 689              		.file 6 ".\\Generated_Source\\PSoC4\\BLE_LED_StackGatt.h"
 690              		.file 7 ".\\Generated_Source\\PSoC4\\BLE_LED_StackGattServer.h"
 691              		.file 8 ".\\Generated_Source\\PSoC4\\BLE_LED.h"
 692              		.file 9 ".\\Generated_Source\\PSoC4\\BLE_LED_eventHandler.h"
 693              		.file 10 ".\\Generated_Source\\PSoC4\\BLE_LED_gatt.h"
 694              		.section	.debug_info,"",%progbits
 695              	.Ldebug_info0:
 696 0000 F10E0000 		.4byte	0xef1
 697 0004 0400     		.2byte	0x4
 698 0006 00000000 		.4byte	.Ldebug_abbrev0
 699 000a 04       		.byte	0x4
 700 000b 01       		.uleb128 0x1
 701 000c 0A100000 		.4byte	.LASF316
 702 0010 01       		.byte	0x1
 703 0011 191F0000 		.4byte	.LASF317
 704 0015 93140000 		.4byte	.LASF318
 705 0019 00000000 		.4byte	.Ldebug_ranges0+0
 706 001d 00000000 		.4byte	0
 707 0021 00000000 		.4byte	.Ldebug_line0
ARM GAS  C:\Users\tiantiaf\AppData\Local\Temp\cc2Xz98j.s 			page 50


 708 0025 02       		.uleb128 0x2
 709 0026 01       		.byte	0x1
 710 0027 06       		.byte	0x6
 711 0028 40070000 		.4byte	.LASF0
 712 002c 02       		.uleb128 0x2
 713 002d 01       		.byte	0x1
 714 002e 08       		.byte	0x8
 715 002f 92080000 		.4byte	.LASF1
 716 0033 02       		.uleb128 0x2
 717 0034 02       		.byte	0x2
 718 0035 05       		.byte	0x5
 719 0036 5E1C0000 		.4byte	.LASF2
 720 003a 02       		.uleb128 0x2
 721 003b 02       		.byte	0x2
 722 003c 07       		.byte	0x7
 723 003d BC200000 		.4byte	.LASF3
 724 0041 02       		.uleb128 0x2
 725 0042 04       		.byte	0x4
 726 0043 05       		.byte	0x5
 727 0044 39050000 		.4byte	.LASF4
 728 0048 02       		.uleb128 0x2
 729 0049 04       		.byte	0x4
 730 004a 07       		.byte	0x7
 731 004b D90E0000 		.4byte	.LASF5
 732 004f 02       		.uleb128 0x2
 733 0050 08       		.byte	0x8
 734 0051 05       		.byte	0x5
 735 0052 96120000 		.4byte	.LASF6
 736 0056 02       		.uleb128 0x2
 737 0057 08       		.byte	0x8
 738 0058 07       		.byte	0x7
 739 0059 45190000 		.4byte	.LASF7
 740 005d 03       		.uleb128 0x3
 741 005e 04       		.byte	0x4
 742 005f 05       		.byte	0x5
 743 0060 696E7400 		.ascii	"int\000"
 744 0064 02       		.uleb128 0x2
 745 0065 04       		.byte	0x4
 746 0066 07       		.byte	0x7
 747 0067 28150000 		.4byte	.LASF8
 748 006b 04       		.uleb128 0x4
 749 006c 101C0000 		.4byte	.LASF9
 750 0070 02       		.byte	0x2
 751 0071 9801     		.2byte	0x198
 752 0073 2C000000 		.4byte	0x2c
 753 0077 04       		.uleb128 0x4
 754 0078 34220000 		.4byte	.LASF10
 755 007c 02       		.byte	0x2
 756 007d 9901     		.2byte	0x199
 757 007f 3A000000 		.4byte	0x3a
 758 0083 04       		.uleb128 0x4
 759 0084 34010000 		.4byte	.LASF11
 760 0088 02       		.byte	0x2
 761 0089 9A01     		.2byte	0x19a
 762 008b 48000000 		.4byte	0x48
 763 008f 02       		.uleb128 0x2
 764 0090 04       		.byte	0x4
ARM GAS  C:\Users\tiantiaf\AppData\Local\Temp\cc2Xz98j.s 			page 51


 765 0091 04       		.byte	0x4
 766 0092 68140000 		.4byte	.LASF12
 767 0096 02       		.uleb128 0x2
 768 0097 08       		.byte	0x8
 769 0098 04       		.byte	0x4
 770 0099 50130000 		.4byte	.LASF13
 771 009d 02       		.uleb128 0x2
 772 009e 01       		.byte	0x1
 773 009f 08       		.byte	0x8
 774 00a0 E9090000 		.4byte	.LASF14
 775 00a4 05       		.uleb128 0x5
 776 00a5 6B000000 		.4byte	0x6b
 777 00a9 02       		.uleb128 0x2
 778 00aa 04       		.byte	0x4
 779 00ab 07       		.byte	0x7
 780 00ac 1B000000 		.4byte	.LASF15
 781 00b0 06       		.uleb128 0x6
 782 00b1 04       		.byte	0x4
 783 00b2 07       		.uleb128 0x7
 784 00b3 01       		.byte	0x1
 785 00b4 03       		.byte	0x3
 786 00b5 4201     		.2byte	0x142
 787 00b7 6F020000 		.4byte	0x26f
 788 00bb 08       		.uleb128 0x8
 789 00bc 710A0000 		.4byte	.LASF16
 790 00c0 00       		.sleb128 0
 791 00c1 08       		.uleb128 0x8
 792 00c2 BC050000 		.4byte	.LASF17
 793 00c6 01       		.sleb128 1
 794 00c7 08       		.uleb128 0x8
 795 00c8 7A190000 		.4byte	.LASF18
 796 00cc 02       		.sleb128 2
 797 00cd 08       		.uleb128 0x8
 798 00ce 81070000 		.4byte	.LASF19
 799 00d2 03       		.sleb128 3
 800 00d3 08       		.uleb128 0x8
 801 00d4 57210000 		.4byte	.LASF20
 802 00d8 04       		.sleb128 4
 803 00d9 08       		.uleb128 0x8
 804 00da 6A1F0000 		.4byte	.LASF21
 805 00de 05       		.sleb128 5
 806 00df 08       		.uleb128 0x8
 807 00e0 3C180000 		.4byte	.LASF22
 808 00e4 06       		.sleb128 6
 809 00e5 08       		.uleb128 0x8
 810 00e6 6F1D0000 		.4byte	.LASF23
 811 00ea 20       		.sleb128 32
 812 00eb 08       		.uleb128 0x8
 813 00ec 6E030000 		.4byte	.LASF24
 814 00f0 21       		.sleb128 33
 815 00f1 08       		.uleb128 0x8
 816 00f2 CF110000 		.4byte	.LASF25
 817 00f6 22       		.sleb128 34
 818 00f7 08       		.uleb128 0x8
 819 00f8 FD160000 		.4byte	.LASF26
 820 00fc 23       		.sleb128 35
 821 00fd 08       		.uleb128 0x8
ARM GAS  C:\Users\tiantiaf\AppData\Local\Temp\cc2Xz98j.s 			page 52


 822 00fe 1D0E0000 		.4byte	.LASF27
 823 0102 24       		.sleb128 36
 824 0103 08       		.uleb128 0x8
 825 0104 390E0000 		.4byte	.LASF28
 826 0108 25       		.sleb128 37
 827 0109 08       		.uleb128 0x8
 828 010a E81B0000 		.4byte	.LASF29
 829 010e 26       		.sleb128 38
 830 010f 08       		.uleb128 0x8
 831 0110 C4000000 		.4byte	.LASF30
 832 0114 27       		.sleb128 39
 833 0115 08       		.uleb128 0x8
 834 0116 F1210000 		.4byte	.LASF31
 835 011a 28       		.sleb128 40
 836 011b 08       		.uleb128 0x8
 837 011c 6F180000 		.4byte	.LASF32
 838 0120 29       		.sleb128 41
 839 0121 08       		.uleb128 0x8
 840 0122 E1100000 		.4byte	.LASF33
 841 0126 2A       		.sleb128 42
 842 0127 08       		.uleb128 0x8
 843 0128 8A160000 		.4byte	.LASF34
 844 012c 2B       		.sleb128 43
 845 012d 08       		.uleb128 0x8
 846 012e DF1F0000 		.4byte	.LASF35
 847 0132 2C       		.sleb128 44
 848 0133 08       		.uleb128 0x8
 849 0134 60000000 		.4byte	.LASF36
 850 0138 2D       		.sleb128 45
 851 0139 08       		.uleb128 0x8
 852 013a 251C0000 		.4byte	.LASF37
 853 013e 2E       		.sleb128 46
 854 013f 08       		.uleb128 0x8
 855 0140 16040000 		.4byte	.LASF38
 856 0144 2F       		.sleb128 47
 857 0145 08       		.uleb128 0x8
 858 0146 C8090000 		.4byte	.LASF39
 859 014a 30       		.sleb128 48
 860 014b 08       		.uleb128 0x8
 861 014c 02140000 		.4byte	.LASF40
 862 0150 31       		.sleb128 49
 863 0151 08       		.uleb128 0x8
 864 0152 C10A0000 		.4byte	.LASF41
 865 0156 32       		.sleb128 50
 866 0157 08       		.uleb128 0x8
 867 0158 DA080000 		.4byte	.LASF42
 868 015c 33       		.sleb128 51
 869 015d 08       		.uleb128 0x8
 870 015e E91C0000 		.4byte	.LASF43
 871 0162 C000     		.sleb128 64
 872 0164 08       		.uleb128 0x8
 873 0165 04010000 		.4byte	.LASF44
 874 0169 C100     		.sleb128 65
 875 016b 08       		.uleb128 0x8
 876 016c 6C210000 		.4byte	.LASF45
 877 0170 C200     		.sleb128 66
 878 0172 08       		.uleb128 0x8
ARM GAS  C:\Users\tiantiaf\AppData\Local\Temp\cc2Xz98j.s 			page 53


 879 0173 98180000 		.4byte	.LASF46
 880 0177 C300     		.sleb128 67
 881 0179 08       		.uleb128 0x8
 882 017a A0080000 		.4byte	.LASF47
 883 017e C400     		.sleb128 68
 884 0180 08       		.uleb128 0x8
 885 0181 02080000 		.4byte	.LASF48
 886 0185 C500     		.sleb128 69
 887 0187 08       		.uleb128 0x8
 888 0188 4E1B0000 		.4byte	.LASF49
 889 018c C600     		.sleb128 70
 890 018e 08       		.uleb128 0x8
 891 018f 301B0000 		.4byte	.LASF50
 892 0193 C700     		.sleb128 71
 893 0195 08       		.uleb128 0x8
 894 0196 A1090000 		.4byte	.LASF51
 895 019a C800     		.sleb128 72
 896 019c 08       		.uleb128 0x8
 897 019d 72170000 		.4byte	.LASF52
 898 01a1 C900     		.sleb128 73
 899 01a3 08       		.uleb128 0x8
 900 01a4 180B0000 		.4byte	.LASF53
 901 01a8 CA00     		.sleb128 74
 902 01aa 08       		.uleb128 0x8
 903 01ab 1E0A0000 		.4byte	.LASF54
 904 01af CB00     		.sleb128 75
 905 01b1 08       		.uleb128 0x8
 906 01b2 E3160000 		.4byte	.LASF55
 907 01b6 CC00     		.sleb128 76
 908 01b8 08       		.uleb128 0x8
 909 01b9 AE1B0000 		.4byte	.LASF56
 910 01bd CD00     		.sleb128 77
 911 01bf 08       		.uleb128 0x8
 912 01c0 1B050000 		.4byte	.LASF57
 913 01c4 CE00     		.sleb128 78
 914 01c6 08       		.uleb128 0x8
 915 01c7 35150000 		.4byte	.LASF58
 916 01cb CF00     		.sleb128 79
 917 01cd 08       		.uleb128 0x8
 918 01ce 501D0000 		.4byte	.LASF59
 919 01d2 D000     		.sleb128 80
 920 01d4 08       		.uleb128 0x8
 921 01d5 5B0B0000 		.4byte	.LASF60
 922 01d9 D100     		.sleb128 81
 923 01db 08       		.uleb128 0x8
 924 01dc 4D030000 		.4byte	.LASF61
 925 01e0 D200     		.sleb128 82
 926 01e2 08       		.uleb128 0x8
 927 01e3 F81E0000 		.4byte	.LASF62
 928 01e7 D300     		.sleb128 83
 929 01e9 08       		.uleb128 0x8
 930 01ea 13220000 		.4byte	.LASF63
 931 01ee D400     		.sleb128 84
 932 01f0 08       		.uleb128 0x8
 933 01f1 32020000 		.4byte	.LASF64
 934 01f5 D500     		.sleb128 85
 935 01f7 08       		.uleb128 0x8
ARM GAS  C:\Users\tiantiaf\AppData\Local\Temp\cc2Xz98j.s 			page 54


 936 01f8 EB0B0000 		.4byte	.LASF65
 937 01fc D600     		.sleb128 86
 938 01fe 08       		.uleb128 0x8
 939 01ff A6110000 		.4byte	.LASF66
 940 0203 D700     		.sleb128 87
 941 0205 08       		.uleb128 0x8
 942 0206 CE210000 		.4byte	.LASF67
 943 020a D800     		.sleb128 88
 944 020c 08       		.uleb128 0x8
 945 020d 4D200000 		.4byte	.LASF68
 946 0211 F000     		.sleb128 112
 947 0213 08       		.uleb128 0x8
 948 0214 A20D0000 		.4byte	.LASF69
 949 0218 F100     		.sleb128 113
 950 021a 08       		.uleb128 0x8
 951 021b BE060000 		.4byte	.LASF70
 952 021f F200     		.sleb128 114
 953 0221 08       		.uleb128 0x8
 954 0222 321D0000 		.4byte	.LASF71
 955 0226 F300     		.sleb128 115
 956 0228 08       		.uleb128 0x8
 957 0229 C5170000 		.4byte	.LASF72
 958 022d F400     		.sleb128 116
 959 022f 08       		.uleb128 0x8
 960 0230 85110000 		.4byte	.LASF73
 961 0234 F500     		.sleb128 117
 962 0236 08       		.uleb128 0x8
 963 0237 80090000 		.4byte	.LASF74
 964 023b F600     		.sleb128 118
 965 023d 08       		.uleb128 0x8
 966 023e ED190000 		.4byte	.LASF75
 967 0242 F700     		.sleb128 119
 968 0244 08       		.uleb128 0x8
 969 0245 56020000 		.4byte	.LASF76
 970 0249 F800     		.sleb128 120
 971 024b 08       		.uleb128 0x8
 972 024c 01090000 		.4byte	.LASF77
 973 0250 F900     		.sleb128 121
 974 0252 08       		.uleb128 0x8
 975 0253 AA210000 		.4byte	.LASF78
 976 0257 FA00     		.sleb128 122
 977 0259 08       		.uleb128 0x8
 978 025a 79130000 		.4byte	.LASF79
 979 025e FA01     		.sleb128 250
 980 0260 08       		.uleb128 0x8
 981 0261 C61E0000 		.4byte	.LASF80
 982 0265 FB01     		.sleb128 251
 983 0267 08       		.uleb128 0x8
 984 0268 7C160000 		.4byte	.LASF81
 985 026c FF01     		.sleb128 255
 986 026e 00       		.byte	0
 987 026f 07       		.uleb128 0x7
 988 0270 02       		.byte	0x2
 989 0271 03       		.byte	0x3
 990 0272 FF02     		.2byte	0x2ff
 991 0274 3F030000 		.4byte	0x33f
 992 0278 08       		.uleb128 0x8
ARM GAS  C:\Users\tiantiaf\AppData\Local\Temp\cc2Xz98j.s 			page 55


 993 0279 AD070000 		.4byte	.LASF82
 994 027d 00       		.sleb128 0
 995 027e 08       		.uleb128 0x8
 996 027f 710C0000 		.4byte	.LASF83
 997 0283 01       		.sleb128 1
 998 0284 08       		.uleb128 0x8
 999 0285 39210000 		.4byte	.LASF84
 1000 0289 02       		.sleb128 2
 1001 028a 08       		.uleb128 0x8
 1002 028b BF0C0000 		.4byte	.LASF85
 1003 028f 03       		.sleb128 3
 1004 0290 08       		.uleb128 0x8
 1005 0291 7A0E0000 		.4byte	.LASF86
 1006 0295 04       		.sleb128 4
 1007 0296 08       		.uleb128 0x8
 1008 0297 32130000 		.4byte	.LASF87
 1009 029b 05       		.sleb128 5
 1010 029c 08       		.uleb128 0x8
 1011 029d 791E0000 		.4byte	.LASF88
 1012 02a1 06       		.sleb128 6
 1013 02a2 08       		.uleb128 0x8
 1014 02a3 FB0A0000 		.4byte	.LASF89
 1015 02a7 07       		.sleb128 7
 1016 02a8 08       		.uleb128 0x8
 1017 02a9 4A140000 		.4byte	.LASF90
 1018 02ad 08       		.sleb128 8
 1019 02ae 08       		.uleb128 0x8
 1020 02af CF1D0000 		.4byte	.LASF91
 1021 02b3 09       		.sleb128 9
 1022 02b4 08       		.uleb128 0x8
 1023 02b5 3B220000 		.4byte	.LASF92
 1024 02b9 0A       		.sleb128 10
 1025 02ba 08       		.uleb128 0x8
 1026 02bb 99030000 		.4byte	.LASF93
 1027 02bf 0B       		.sleb128 11
 1028 02c0 08       		.uleb128 0x8
 1029 02c1 531F0000 		.4byte	.LASF94
 1030 02c5 0C       		.sleb128 12
 1031 02c6 08       		.uleb128 0x8
 1032 02c7 06160000 		.4byte	.LASF95
 1033 02cb 0D       		.sleb128 13
 1034 02cc 08       		.uleb128 0x8
 1035 02cd E10F0000 		.4byte	.LASF96
 1036 02d1 0E       		.sleb128 14
 1037 02d2 08       		.uleb128 0x8
 1038 02d3 0D130000 		.4byte	.LASF97
 1039 02d7 0F       		.sleb128 15
 1040 02d8 08       		.uleb128 0x8
 1041 02d9 E8010000 		.4byte	.LASF98
 1042 02dd 10       		.sleb128 16
 1043 02de 08       		.uleb128 0x8
 1044 02df 26140000 		.4byte	.LASF99
 1045 02e3 11       		.sleb128 17
 1046 02e4 08       		.uleb128 0x8
 1047 02e5 CF050000 		.4byte	.LASF100
 1048 02e9 12       		.sleb128 18
 1049 02ea 08       		.uleb128 0x8
ARM GAS  C:\Users\tiantiaf\AppData\Local\Temp\cc2Xz98j.s 			page 56


 1050 02eb 18070000 		.4byte	.LASF101
 1051 02ef 13       		.sleb128 19
 1052 02f0 08       		.uleb128 0x8
 1053 02f1 57130000 		.4byte	.LASF102
 1054 02f5 27       		.sleb128 39
 1055 02f6 08       		.uleb128 0x8
 1056 02f7 6E140000 		.4byte	.LASF103
 1057 02fb 28       		.sleb128 40
 1058 02fc 08       		.uleb128 0x8
 1059 02fd 16020000 		.4byte	.LASF104
 1060 0301 29       		.sleb128 41
 1061 0302 08       		.uleb128 0x8
 1062 0303 701C0000 		.4byte	.LASF105
 1063 0307 2A       		.sleb128 42
 1064 0308 08       		.uleb128 0x8
 1065 0309 210F0000 		.4byte	.LASF106
 1066 030d 2B       		.sleb128 43
 1067 030e 08       		.uleb128 0x8
 1068 030f 4E1A0000 		.4byte	.LASF107
 1069 0313 2C       		.sleb128 44
 1070 0314 08       		.uleb128 0x8
 1071 0315 550C0000 		.4byte	.LASF108
 1072 0319 FE01     		.sleb128 254
 1073 031b 08       		.uleb128 0x8
 1074 031c 920D0000 		.4byte	.LASF109
 1075 0320 FF01     		.sleb128 255
 1076 0322 08       		.uleb128 0x8
 1077 0323 3C170000 		.4byte	.LASF110
 1078 0327 8002     		.sleb128 256
 1079 0329 08       		.uleb128 0x8
 1080 032a 23170000 		.4byte	.LASF111
 1081 032e 8102     		.sleb128 257
 1082 0330 08       		.uleb128 0x8
 1083 0331 72060000 		.4byte	.LASF112
 1084 0335 8202     		.sleb128 258
 1085 0337 08       		.uleb128 0x8
 1086 0338 A7190000 		.4byte	.LASF113
 1087 033c 8302     		.sleb128 259
 1088 033e 00       		.byte	0
 1089 033f 04       		.uleb128 0x4
 1090 0340 E51E0000 		.4byte	.LASF114
 1091 0344 03       		.byte	0x3
 1092 0345 6B03     		.2byte	0x36b
 1093 0347 6F020000 		.4byte	0x26f
 1094 034b 07       		.uleb128 0x7
 1095 034c 01       		.byte	0x1
 1096 034d 03       		.byte	0x3
 1097 034e 9C03     		.2byte	0x39c
 1098 0350 8B030000 		.4byte	0x38b
 1099 0354 08       		.uleb128 0x8
 1100 0355 4C070000 		.4byte	.LASF115
 1101 0359 01       		.sleb128 1
 1102 035a 08       		.uleb128 0x8
 1103 035b E6040000 		.4byte	.LASF116
 1104 035f 02       		.sleb128 2
 1105 0360 08       		.uleb128 0x8
 1106 0361 21180000 		.4byte	.LASF117
ARM GAS  C:\Users\tiantiaf\AppData\Local\Temp\cc2Xz98j.s 			page 57


 1107 0365 03       		.sleb128 3
 1108 0366 08       		.uleb128 0x8
 1109 0367 D6030000 		.4byte	.LASF118
 1110 036b 04       		.sleb128 4
 1111 036c 08       		.uleb128 0x8
 1112 036d EE090000 		.4byte	.LASF119
 1113 0371 05       		.sleb128 5
 1114 0372 08       		.uleb128 0x8
 1115 0373 060F0000 		.4byte	.LASF120
 1116 0377 06       		.sleb128 6
 1117 0378 08       		.uleb128 0x8
 1118 0379 931E0000 		.4byte	.LASF121
 1119 037d 07       		.sleb128 7
 1120 037e 08       		.uleb128 0x8
 1121 037f C20E0000 		.4byte	.LASF122
 1122 0383 08       		.sleb128 8
 1123 0384 08       		.uleb128 0x8
 1124 0385 C0130000 		.4byte	.LASF123
 1125 0389 09       		.sleb128 9
 1126 038a 00       		.byte	0
 1127 038b 04       		.uleb128 0x4
 1128 038c 1B120000 		.4byte	.LASF124
 1129 0390 03       		.byte	0x3
 1130 0391 B303     		.2byte	0x3b3
 1131 0393 4B030000 		.4byte	0x34b
 1132 0397 07       		.uleb128 0x7
 1133 0398 01       		.byte	0x1
 1134 0399 03       		.byte	0x3
 1135 039a B703     		.2byte	0x3b7
 1136 039c B3030000 		.4byte	0x3b3
 1137 03a0 08       		.uleb128 0x8
 1138 03a1 B11E0000 		.4byte	.LASF125
 1139 03a5 00       		.sleb128 0
 1140 03a6 08       		.uleb128 0x8
 1141 03a7 9B150000 		.4byte	.LASF126
 1142 03ab 01       		.sleb128 1
 1143 03ac 08       		.uleb128 0x8
 1144 03ad 38200000 		.4byte	.LASF127
 1145 03b1 02       		.sleb128 2
 1146 03b2 00       		.byte	0
 1147 03b3 04       		.uleb128 0x4
 1148 03b4 BC070000 		.4byte	.LASF128
 1149 03b8 03       		.byte	0x3
 1150 03b9 BE03     		.2byte	0x3be
 1151 03bb 97030000 		.4byte	0x397
 1152 03bf 09       		.uleb128 0x9
 1153 03c0 02       		.byte	0x2
 1154 03c1 03       		.byte	0x3
 1155 03c2 C103     		.2byte	0x3c1
 1156 03c4 E3030000 		.4byte	0x3e3
 1157 03c8 0A       		.uleb128 0xa
 1158 03c9 4D010000 		.4byte	.LASF129
 1159 03cd 03       		.byte	0x3
 1160 03ce C403     		.2byte	0x3c4
 1161 03d0 8B030000 		.4byte	0x38b
 1162 03d4 00       		.byte	0
 1163 03d5 0A       		.uleb128 0xa
ARM GAS  C:\Users\tiantiaf\AppData\Local\Temp\cc2Xz98j.s 			page 58


 1164 03d6 B4060000 		.4byte	.LASF130
 1165 03da 03       		.byte	0x3
 1166 03db C603     		.2byte	0x3c6
 1167 03dd B3030000 		.4byte	0x3b3
 1168 03e1 01       		.byte	0x1
 1169 03e2 00       		.byte	0
 1170 03e3 04       		.uleb128 0x4
 1171 03e4 20200000 		.4byte	.LASF131
 1172 03e8 03       		.byte	0x3
 1173 03e9 C703     		.2byte	0x3c7
 1174 03eb BF030000 		.4byte	0x3bf
 1175 03ef 07       		.uleb128 0x7
 1176 03f0 01       		.byte	0x1
 1177 03f1 03       		.byte	0x3
 1178 03f2 E803     		.2byte	0x3e8
 1179 03f4 05040000 		.4byte	0x405
 1180 03f8 08       		.uleb128 0x8
 1181 03f9 FB180000 		.4byte	.LASF132
 1182 03fd 00       		.sleb128 0
 1183 03fe 08       		.uleb128 0x8
 1184 03ff 540F0000 		.4byte	.LASF133
 1185 0403 01       		.sleb128 1
 1186 0404 00       		.byte	0
 1187 0405 04       		.uleb128 0x4
 1188 0406 73200000 		.4byte	.LASF134
 1189 040a 03       		.byte	0x3
 1190 040b EF03     		.2byte	0x3ef
 1191 040d EF030000 		.4byte	0x3ef
 1192 0411 09       		.uleb128 0x9
 1193 0412 08       		.byte	0x8
 1194 0413 03       		.byte	0x3
 1195 0414 F203     		.2byte	0x3f2
 1196 0416 42040000 		.4byte	0x442
 1197 041a 0A       		.uleb128 0xa
 1198 041b B1000000 		.4byte	.LASF135
 1199 041f 03       		.byte	0x3
 1200 0420 F503     		.2byte	0x3f5
 1201 0422 05040000 		.4byte	0x405
 1202 0426 00       		.byte	0
 1203 0427 0A       		.uleb128 0xa
 1204 0428 530E0000 		.4byte	.LASF136
 1205 042c 03       		.byte	0x3
 1206 042d FA03     		.2byte	0x3fa
 1207 042f 6B000000 		.4byte	0x6b
 1208 0433 01       		.byte	0x1
 1209 0434 0A       		.uleb128 0xa
 1210 0435 73090000 		.4byte	.LASF137
 1211 0439 03       		.byte	0x3
 1212 043a 0204     		.2byte	0x402
 1213 043c B0000000 		.4byte	0xb0
 1214 0440 04       		.byte	0x4
 1215 0441 00       		.byte	0
 1216 0442 04       		.uleb128 0x4
 1217 0443 C5120000 		.4byte	.LASF138
 1218 0447 03       		.byte	0x3
 1219 0448 0404     		.2byte	0x404
 1220 044a 11040000 		.4byte	0x411
ARM GAS  C:\Users\tiantiaf\AppData\Local\Temp\cc2Xz98j.s 			page 59


 1221 044e 09       		.uleb128 0x9
 1222 044f 07       		.byte	0x7
 1223 0450 03       		.byte	0x3
 1224 0451 2804     		.2byte	0x428
 1225 0453 72040000 		.4byte	0x472
 1226 0457 0A       		.uleb128 0xa
 1227 0458 171E0000 		.4byte	.LASF139
 1228 045c 03       		.byte	0x3
 1229 045d 2B04     		.2byte	0x42b
 1230 045f 72040000 		.4byte	0x472
 1231 0463 00       		.byte	0
 1232 0464 0A       		.uleb128 0xa
 1233 0465 B0020000 		.4byte	.LASF140
 1234 0469 03       		.byte	0x3
 1235 046a 2D04     		.2byte	0x42d
 1236 046c 6B000000 		.4byte	0x6b
 1237 0470 06       		.byte	0x6
 1238 0471 00       		.byte	0
 1239 0472 0B       		.uleb128 0xb
 1240 0473 6B000000 		.4byte	0x6b
 1241 0477 82040000 		.4byte	0x482
 1242 047b 0C       		.uleb128 0xc
 1243 047c A9000000 		.4byte	0xa9
 1244 0480 05       		.byte	0x5
 1245 0481 00       		.byte	0
 1246 0482 04       		.uleb128 0x4
 1247 0483 981A0000 		.4byte	.LASF141
 1248 0487 03       		.byte	0x3
 1249 0488 2E04     		.2byte	0x42e
 1250 048a 4E040000 		.4byte	0x44e
 1251 048e 0D       		.uleb128 0xd
 1252 048f 01       		.byte	0x1
 1253 0490 04       		.byte	0x4
 1254 0491 2C       		.byte	0x2c
 1255 0492 AF040000 		.4byte	0x4af
 1256 0496 08       		.uleb128 0x8
 1257 0497 C51A0000 		.4byte	.LASF142
 1258 049b 01       		.sleb128 1
 1259 049c 08       		.uleb128 0x8
 1260 049d 661A0000 		.4byte	.LASF143
 1261 04a1 02       		.sleb128 2
 1262 04a2 08       		.uleb128 0x8
 1263 04a3 98210000 		.4byte	.LASF144
 1264 04a7 03       		.sleb128 3
 1265 04a8 08       		.uleb128 0x8
 1266 04a9 1F1B0000 		.4byte	.LASF145
 1267 04ad 04       		.sleb128 4
 1268 04ae 00       		.byte	0
 1269 04af 0E       		.uleb128 0xe
 1270 04b0 B5020000 		.4byte	.LASF146
 1271 04b4 04       		.byte	0x4
 1272 04b5 39       		.byte	0x39
 1273 04b6 8E040000 		.4byte	0x48e
 1274 04ba 0D       		.uleb128 0xd
 1275 04bb 01       		.byte	0x1
 1276 04bc 05       		.byte	0x5
 1277 04bd F8       		.byte	0xf8
ARM GAS  C:\Users\tiantiaf\AppData\Local\Temp\cc2Xz98j.s 			page 60


 1278 04be E1040000 		.4byte	0x4e1
 1279 04c2 08       		.uleb128 0x8
 1280 04c3 42050000 		.4byte	.LASF147
 1281 04c7 00       		.sleb128 0
 1282 04c8 08       		.uleb128 0x8
 1283 04c9 58050000 		.4byte	.LASF148
 1284 04cd 01       		.sleb128 1
 1285 04ce 08       		.uleb128 0x8
 1286 04cf 6E050000 		.4byte	.LASF149
 1287 04d3 02       		.sleb128 2
 1288 04d4 08       		.uleb128 0x8
 1289 04d5 84050000 		.4byte	.LASF150
 1290 04d9 03       		.sleb128 3
 1291 04da 08       		.uleb128 0x8
 1292 04db D20B0000 		.4byte	.LASF151
 1293 04df 0F       		.sleb128 15
 1294 04e0 00       		.byte	0
 1295 04e1 07       		.uleb128 0x7
 1296 04e2 01       		.byte	0x1
 1297 04e3 05       		.byte	0x5
 1298 04e4 1701     		.2byte	0x117
 1299 04e6 09050000 		.4byte	0x509
 1300 04ea 08       		.uleb128 0x8
 1301 04eb B9030000 		.4byte	.LASF152
 1302 04ef 00       		.sleb128 0
 1303 04f0 08       		.uleb128 0x8
 1304 04f1 C11F0000 		.4byte	.LASF153
 1305 04f5 01       		.sleb128 1
 1306 04f6 08       		.uleb128 0x8
 1307 04f7 530A0000 		.4byte	.LASF154
 1308 04fb 02       		.sleb128 2
 1309 04fc 08       		.uleb128 0x8
 1310 04fd E3000000 		.4byte	.LASF155
 1311 0501 03       		.sleb128 3
 1312 0502 08       		.uleb128 0x8
 1313 0503 031D0000 		.4byte	.LASF156
 1314 0507 04       		.sleb128 4
 1315 0508 00       		.byte	0
 1316 0509 04       		.uleb128 0x4
 1317 050a 3B010000 		.4byte	.LASF157
 1318 050e 05       		.byte	0x5
 1319 050f 2901     		.2byte	0x129
 1320 0511 E1040000 		.4byte	0x4e1
 1321 0515 07       		.uleb128 0x7
 1322 0516 01       		.byte	0x1
 1323 0517 05       		.byte	0x5
 1324 0518 2D01     		.2byte	0x12d
 1325 051a 85050000 		.4byte	0x585
 1326 051e 08       		.uleb128 0x8
 1327 051f 55180000 		.4byte	.LASF158
 1328 0523 00       		.sleb128 0
 1329 0524 08       		.uleb128 0x8
 1330 0525 82040000 		.4byte	.LASF159
 1331 0529 01       		.sleb128 1
 1332 052a 08       		.uleb128 0x8
 1333 052b CF180000 		.4byte	.LASF160
 1334 052f 02       		.sleb128 2
ARM GAS  C:\Users\tiantiaf\AppData\Local\Temp\cc2Xz98j.s 			page 61


 1335 0530 08       		.uleb128 0x8
 1336 0531 950F0000 		.4byte	.LASF161
 1337 0535 03       		.sleb128 3
 1338 0536 08       		.uleb128 0x8
 1339 0537 45060000 		.4byte	.LASF162
 1340 053b 04       		.sleb128 4
 1341 053c 08       		.uleb128 0x8
 1342 053d F41A0000 		.4byte	.LASF163
 1343 0541 05       		.sleb128 5
 1344 0542 08       		.uleb128 0x8
 1345 0543 48120000 		.4byte	.LASF164
 1346 0547 06       		.sleb128 6
 1347 0548 08       		.uleb128 0x8
 1348 0549 6A0F0000 		.4byte	.LASF165
 1349 054d 07       		.sleb128 7
 1350 054e 08       		.uleb128 0x8
 1351 054f F8020000 		.4byte	.LASF166
 1352 0553 08       		.sleb128 8
 1353 0554 08       		.uleb128 0x8
 1354 0555 5E110000 		.4byte	.LASF167
 1355 0559 09       		.sleb128 9
 1356 055a 08       		.uleb128 0x8
 1357 055b 4B090000 		.4byte	.LASF168
 1358 055f 0A       		.sleb128 10
 1359 0560 08       		.uleb128 0x8
 1360 0561 F3110000 		.4byte	.LASF169
 1361 0565 0B       		.sleb128 11
 1362 0566 08       		.uleb128 0x8
 1363 0567 921F0000 		.4byte	.LASF170
 1364 056b 0C       		.sleb128 12
 1365 056c 08       		.uleb128 0x8
 1366 056d 8F0C0000 		.4byte	.LASF171
 1367 0571 0D       		.sleb128 13
 1368 0572 08       		.uleb128 0x8
 1369 0573 29080000 		.4byte	.LASF172
 1370 0577 0E       		.sleb128 14
 1371 0578 08       		.uleb128 0x8
 1372 0579 CC020000 		.4byte	.LASF173
 1373 057d 15       		.sleb128 21
 1374 057e 08       		.uleb128 0x8
 1375 057f C80D0000 		.4byte	.LASF174
 1376 0583 18       		.sleb128 24
 1377 0584 00       		.byte	0
 1378 0585 04       		.uleb128 0x4
 1379 0586 C4160000 		.4byte	.LASF175
 1380 058a 05       		.byte	0x5
 1381 058b 6C01     		.2byte	0x16c
 1382 058d 15050000 		.4byte	0x515
 1383 0591 09       		.uleb128 0x9
 1384 0592 05       		.byte	0x5
 1385 0593 05       		.byte	0x5
 1386 0594 B901     		.2byte	0x1b9
 1387 0596 DC050000 		.4byte	0x5dc
 1388 059a 0A       		.uleb128 0xa
 1389 059b DC120000 		.4byte	.LASF176
 1390 059f 05       		.byte	0x5
 1391 05a0 C301     		.2byte	0x1c3
ARM GAS  C:\Users\tiantiaf\AppData\Local\Temp\cc2Xz98j.s 			page 62


 1392 05a2 6B000000 		.4byte	0x6b
 1393 05a6 00       		.byte	0
 1394 05a7 0A       		.uleb128 0xa
 1395 05a8 02150000 		.4byte	.LASF177
 1396 05ac 05       		.byte	0x5
 1397 05ad C901     		.2byte	0x1c9
 1398 05af 6B000000 		.4byte	0x6b
 1399 05b3 01       		.byte	0x1
 1400 05b4 0A       		.uleb128 0xa
 1401 05b5 24000000 		.4byte	.LASF178
 1402 05b9 05       		.byte	0x5
 1403 05ba D001     		.2byte	0x1d0
 1404 05bc 6B000000 		.4byte	0x6b
 1405 05c0 02       		.byte	0x2
 1406 05c1 0A       		.uleb128 0xa
 1407 05c2 681C0000 		.4byte	.LASF179
 1408 05c6 05       		.byte	0x5
 1409 05c7 D401     		.2byte	0x1d4
 1410 05c9 85050000 		.4byte	0x585
 1411 05cd 03       		.byte	0x3
 1412 05ce 0A       		.uleb128 0xa
 1413 05cf 9C1B0000 		.4byte	.LASF180
 1414 05d3 05       		.byte	0x5
 1415 05d4 DE01     		.2byte	0x1de
 1416 05d6 6B000000 		.4byte	0x6b
 1417 05da 04       		.byte	0x4
 1418 05db 00       		.byte	0
 1419 05dc 04       		.uleb128 0x4
 1420 05dd 3D0A0000 		.4byte	.LASF181
 1421 05e1 05       		.byte	0x5
 1422 05e2 E001     		.2byte	0x1e0
 1423 05e4 91050000 		.4byte	0x591
 1424 05e8 0F       		.uleb128 0xf
 1425 05e9 04       		.byte	0x4
 1426 05ea 6B000000 		.4byte	0x6b
 1427 05ee 09       		.uleb128 0x9
 1428 05ef 08       		.byte	0x8
 1429 05f0 05       		.byte	0x5
 1430 05f1 5A03     		.2byte	0x35a
 1431 05f3 2C060000 		.4byte	0x62c
 1432 05f7 0A       		.uleb128 0xa
 1433 05f8 FF0E0000 		.4byte	.LASF182
 1434 05fc 05       		.byte	0x5
 1435 05fd 5E03     		.2byte	0x35e
 1436 05ff 6B000000 		.4byte	0x6b
 1437 0603 00       		.byte	0
 1438 0604 0A       		.uleb128 0xa
 1439 0605 B3200000 		.4byte	.LASF183
 1440 0609 05       		.byte	0x5
 1441 060a 6403     		.2byte	0x364
 1442 060c 77000000 		.4byte	0x77
 1443 0610 02       		.byte	0x2
 1444 0611 0A       		.uleb128 0xa
 1445 0612 861F0000 		.4byte	.LASF184
 1446 0616 05       		.byte	0x5
 1447 0617 6903     		.2byte	0x369
 1448 0619 77000000 		.4byte	0x77
ARM GAS  C:\Users\tiantiaf\AppData\Local\Temp\cc2Xz98j.s 			page 63


 1449 061d 04       		.byte	0x4
 1450 061e 0A       		.uleb128 0xa
 1451 061f 8A210000 		.4byte	.LASF185
 1452 0623 05       		.byte	0x5
 1453 0624 6F03     		.2byte	0x36f
 1454 0626 77000000 		.4byte	0x77
 1455 062a 06       		.byte	0x6
 1456 062b 00       		.byte	0
 1457 062c 04       		.uleb128 0x4
 1458 062d 18190000 		.4byte	.LASF186
 1459 0631 05       		.byte	0x5
 1460 0632 7103     		.2byte	0x371
 1461 0634 EE050000 		.4byte	0x5ee
 1462 0638 0D       		.uleb128 0xd
 1463 0639 01       		.byte	0x1
 1464 063a 06       		.byte	0x6
 1465 063b 4F       		.byte	0x4f
 1466 063c F2060000 		.4byte	0x6f2
 1467 0640 08       		.uleb128 0x8
 1468 0641 400C0000 		.4byte	.LASF187
 1469 0645 01       		.sleb128 1
 1470 0646 08       		.uleb128 0x8
 1471 0647 E20A0000 		.4byte	.LASF188
 1472 064b 02       		.sleb128 2
 1473 064c 08       		.uleb128 0x8
 1474 064d 02050000 		.4byte	.LASF189
 1475 0651 03       		.sleb128 3
 1476 0652 08       		.uleb128 0x8
 1477 0653 68070000 		.4byte	.LASF190
 1478 0657 04       		.sleb128 4
 1479 0658 08       		.uleb128 0x8
 1480 0659 B6180000 		.4byte	.LASF191
 1481 065d 05       		.sleb128 5
 1482 065e 08       		.uleb128 0x8
 1483 065f FF170000 		.4byte	.LASF192
 1484 0663 06       		.sleb128 6
 1485 0664 08       		.uleb128 0x8
 1486 0665 9A050000 		.4byte	.LASF193
 1487 0669 07       		.sleb128 7
 1488 066a 08       		.uleb128 0x8
 1489 066b A9170000 		.4byte	.LASF194
 1490 066f 08       		.sleb128 8
 1491 0670 08       		.uleb128 0x8
 1492 0671 20030000 		.4byte	.LASF195
 1493 0675 09       		.sleb128 9
 1494 0676 08       		.uleb128 0x8
 1495 0677 EB0E0000 		.4byte	.LASF196
 1496 067b 0A       		.sleb128 10
 1497 067c 08       		.uleb128 0x8
 1498 067d 5B1E0000 		.4byte	.LASF197
 1499 0681 0B       		.sleb128 11
 1500 0682 08       		.uleb128 0x8
 1501 0683 AC1A0000 		.4byte	.LASF198
 1502 0687 0C       		.sleb128 12
 1503 0688 08       		.uleb128 0x8
 1504 0689 DA060000 		.4byte	.LASF199
 1505 068d 0D       		.sleb128 13
ARM GAS  C:\Users\tiantiaf\AppData\Local\Temp\cc2Xz98j.s 			page 64


 1506 068e 08       		.uleb128 0x8
 1507 068f 55170000 		.4byte	.LASF200
 1508 0693 0E       		.sleb128 14
 1509 0694 08       		.uleb128 0x8
 1510 0695 93020000 		.4byte	.LASF201
 1511 0699 0F       		.sleb128 15
 1512 069a 08       		.uleb128 0x8
 1513 069b 16210000 		.4byte	.LASF202
 1514 069f 10       		.sleb128 16
 1515 06a0 08       		.uleb128 0x8
 1516 06a1 5D0E0000 		.4byte	.LASF203
 1517 06a5 11       		.sleb128 17
 1518 06a6 08       		.uleb128 0x8
 1519 06a7 491C0000 		.4byte	.LASF204
 1520 06ab 12       		.sleb128 18
 1521 06ac 08       		.uleb128 0x8
 1522 06ad 090A0000 		.4byte	.LASF205
 1523 06b1 13       		.sleb128 19
 1524 06b2 08       		.uleb128 0x8
 1525 06b3 1F010000 		.4byte	.LASF206
 1526 06b7 D200     		.sleb128 82
 1527 06b9 08       		.uleb128 0x8
 1528 06ba A5010000 		.4byte	.LASF207
 1529 06be 16       		.sleb128 22
 1530 06bf 08       		.uleb128 0x8
 1531 06c0 2B160000 		.4byte	.LASF208
 1532 06c4 17       		.sleb128 23
 1533 06c5 08       		.uleb128 0x8
 1534 06c6 03200000 		.4byte	.LASF209
 1535 06ca 18       		.sleb128 24
 1536 06cb 08       		.uleb128 0x8
 1537 06cc 750D0000 		.4byte	.LASF210
 1538 06d0 19       		.sleb128 25
 1539 06d1 08       		.uleb128 0x8
 1540 06d2 C50F0000 		.4byte	.LASF211
 1541 06d6 1B       		.sleb128 27
 1542 06d7 08       		.uleb128 0x8
 1543 06d8 BE080000 		.4byte	.LASF212
 1544 06dc 1D       		.sleb128 29
 1545 06dd 08       		.uleb128 0x8
 1546 06de 2D000000 		.4byte	.LASF213
 1547 06e2 1E       		.sleb128 30
 1548 06e3 08       		.uleb128 0x8
 1549 06e4 140D0000 		.4byte	.LASF214
 1550 06e8 D201     		.sleb128 210
 1551 06ea 08       		.uleb128 0x8
 1552 06eb 8C190000 		.4byte	.LASF215
 1553 06ef FF01     		.sleb128 255
 1554 06f1 00       		.byte	0
 1555 06f2 0D       		.uleb128 0xd
 1556 06f3 01       		.byte	0x1
 1557 06f4 06       		.byte	0x6
 1558 06f5 AB       		.byte	0xab
 1559 06f6 F3070000 		.4byte	0x7f3
 1560 06fa 08       		.uleb128 0x8
 1561 06fb 0C1A0000 		.4byte	.LASF216
 1562 06ff 00       		.sleb128 0
ARM GAS  C:\Users\tiantiaf\AppData\Local\Temp\cc2Xz98j.s 			page 65


 1563 0700 08       		.uleb128 0x8
 1564 0701 5C190000 		.4byte	.LASF217
 1565 0705 01       		.sleb128 1
 1566 0706 08       		.uleb128 0x8
 1567 0707 5E010000 		.4byte	.LASF218
 1568 070b 02       		.sleb128 2
 1569 070c 08       		.uleb128 0x8
 1570 070d 90200000 		.4byte	.LASF219
 1571 0711 03       		.sleb128 3
 1572 0712 08       		.uleb128 0x8
 1573 0713 2A060000 		.4byte	.LASF220
 1574 0717 04       		.sleb128 4
 1575 0718 08       		.uleb128 0x8
 1576 0719 54150000 		.4byte	.LASF221
 1577 071d 05       		.sleb128 5
 1578 071e 08       		.uleb128 0x8
 1579 071f C41C0000 		.4byte	.LASF222
 1580 0723 06       		.sleb128 6
 1581 0724 08       		.uleb128 0x8
 1582 0725 8B170000 		.4byte	.LASF223
 1583 0729 07       		.sleb128 7
 1584 072a 08       		.uleb128 0x8
 1585 072b CD140000 		.4byte	.LASF224
 1586 072f 08       		.sleb128 8
 1587 0730 08       		.uleb128 0x8
 1588 0731 E5120000 		.4byte	.LASF225
 1589 0735 09       		.sleb128 9
 1590 0736 08       		.uleb128 0x8
 1591 0737 59160000 		.4byte	.LASF226
 1592 073b 0A       		.sleb128 10
 1593 073c 08       		.uleb128 0x8
 1594 073d B00B0000 		.4byte	.LASF227
 1595 0741 0B       		.sleb128 11
 1596 0742 08       		.uleb128 0x8
 1597 0743 97130000 		.4byte	.LASF228
 1598 0747 0C       		.sleb128 12
 1599 0748 08       		.uleb128 0x8
 1600 0749 F3060000 		.4byte	.LASF229
 1601 074d 0D       		.sleb128 13
 1602 074e 08       		.uleb128 0x8
 1603 074f A30A0000 		.4byte	.LASF230
 1604 0753 0E       		.sleb128 14
 1605 0754 08       		.uleb128 0x8
 1606 0755 CF200000 		.4byte	.LASF231
 1607 0759 0F       		.sleb128 15
 1608 075a 08       		.uleb128 0x8
 1609 075b C2010000 		.4byte	.LASF232
 1610 075f 10       		.sleb128 16
 1611 0760 08       		.uleb128 0x8
 1612 0761 80010000 		.4byte	.LASF233
 1613 0765 11       		.sleb128 17
 1614 0766 08       		.uleb128 0x8
 1615 0767 7A0B0000 		.4byte	.LASF234
 1616 076b 8001     		.sleb128 128
 1617 076d 08       		.uleb128 0x8
 1618 076e EF0D0000 		.4byte	.LASF235
 1619 0772 8001     		.sleb128 128
ARM GAS  C:\Users\tiantiaf\AppData\Local\Temp\cc2Xz98j.s 			page 66


 1620 0774 08       		.uleb128 0x8
 1621 0775 8D1C0000 		.4byte	.LASF236
 1622 0779 8001     		.sleb128 128
 1623 077b 08       		.uleb128 0x8
 1624 077c 781A0000 		.4byte	.LASF237
 1625 0780 8001     		.sleb128 128
 1626 0782 08       		.uleb128 0x8
 1627 0783 CE150000 		.4byte	.LASF238
 1628 0787 8001     		.sleb128 128
 1629 0789 08       		.uleb128 0x8
 1630 078a 9D0E0000 		.4byte	.LASF239
 1631 078e 8001     		.sleb128 128
 1632 0790 08       		.uleb128 0x8
 1633 0791 880A0000 		.4byte	.LASF240
 1634 0795 8001     		.sleb128 128
 1635 0797 08       		.uleb128 0x8
 1636 0798 300D0000 		.4byte	.LASF241
 1637 079c 8101     		.sleb128 129
 1638 079e 08       		.uleb128 0x8
 1639 079f 6F1B0000 		.4byte	.LASF242
 1640 07a3 8101     		.sleb128 129
 1641 07a5 08       		.uleb128 0x8
 1642 07a6 00000000 		.4byte	.LASF243
 1643 07aa 8101     		.sleb128 129
 1644 07ac 08       		.uleb128 0x8
 1645 07ad 06060000 		.4byte	.LASF244
 1646 07b1 8101     		.sleb128 129
 1647 07b3 08       		.uleb128 0x8
 1648 07b4 5C040000 		.4byte	.LASF245
 1649 07b8 8201     		.sleb128 130
 1650 07ba 08       		.uleb128 0x8
 1651 07bb 1E1E0000 		.4byte	.LASF246
 1652 07bf A001     		.sleb128 160
 1653 07c1 08       		.uleb128 0x8
 1654 07c2 98100000 		.4byte	.LASF247
 1655 07c6 A001     		.sleb128 160
 1656 07c8 08       		.uleb128 0x8
 1657 07c9 AC040000 		.4byte	.LASF248
 1658 07cd A101     		.sleb128 161
 1659 07cf 08       		.uleb128 0x8
 1660 07d0 A91D0000 		.4byte	.LASF249
 1661 07d4 A201     		.sleb128 162
 1662 07d6 08       		.uleb128 0x8
 1663 07d7 0D0C0000 		.4byte	.LASF250
 1664 07db A301     		.sleb128 163
 1665 07dd 08       		.uleb128 0x8
 1666 07de D8070000 		.4byte	.LASF251
 1667 07e2 FD01     		.sleb128 253
 1668 07e4 08       		.uleb128 0x8
 1669 07e5 D5130000 		.4byte	.LASF252
 1670 07e9 FE01     		.sleb128 254
 1671 07eb 08       		.uleb128 0x8
 1672 07ec E3170000 		.4byte	.LASF253
 1673 07f0 FF01     		.sleb128 255
 1674 07f2 00       		.byte	0
 1675 07f3 04       		.uleb128 0x4
 1676 07f4 931D0000 		.4byte	.LASF254
ARM GAS  C:\Users\tiantiaf\AppData\Local\Temp\cc2Xz98j.s 			page 67


 1677 07f8 06       		.byte	0x6
 1678 07f9 6201     		.2byte	0x162
 1679 07fb F2060000 		.4byte	0x6f2
 1680 07ff 04       		.uleb128 0x4
 1681 0800 C1190000 		.4byte	.LASF255
 1682 0804 06       		.byte	0x6
 1683 0805 9201     		.2byte	0x192
 1684 0807 77000000 		.4byte	0x77
 1685 080b 09       		.uleb128 0x9
 1686 080c 02       		.byte	0x2
 1687 080d 06       		.byte	0x6
 1688 080e 9C01     		.2byte	0x19c
 1689 0810 2F080000 		.4byte	0x82f
 1690 0814 0A       		.uleb128 0xa
 1691 0815 53040000 		.4byte	.LASF256
 1692 0819 06       		.byte	0x6
 1693 081a A301     		.2byte	0x1a3
 1694 081c 6B000000 		.4byte	0x6b
 1695 0820 00       		.byte	0
 1696 0821 0A       		.uleb128 0xa
 1697 0822 33210000 		.4byte	.LASF257
 1698 0826 06       		.byte	0x6
 1699 0827 A901     		.2byte	0x1a9
 1700 0829 6B000000 		.4byte	0x6b
 1701 082d 01       		.byte	0x1
 1702 082e 00       		.byte	0
 1703 082f 04       		.uleb128 0x4
 1704 0830 85030000 		.4byte	.LASF258
 1705 0834 06       		.byte	0x6
 1706 0835 AB01     		.2byte	0x1ab
 1707 0837 0B080000 		.4byte	0x80b
 1708 083b 09       		.uleb128 0x9
 1709 083c 08       		.byte	0x8
 1710 083d 06       		.byte	0x6
 1711 083e C701     		.2byte	0x1c7
 1712 0840 6C080000 		.4byte	0x86c
 1713 0844 10       		.uleb128 0x10
 1714 0845 76616C00 		.ascii	"val\000"
 1715 0849 06       		.byte	0x6
 1716 084a CA01     		.2byte	0x1ca
 1717 084c E8050000 		.4byte	0x5e8
 1718 0850 00       		.byte	0
 1719 0851 10       		.uleb128 0x10
 1720 0852 6C656E00 		.ascii	"len\000"
 1721 0856 06       		.byte	0x6
 1722 0857 CD01     		.2byte	0x1cd
 1723 0859 77000000 		.4byte	0x77
 1724 085d 04       		.byte	0x4
 1725 085e 0A       		.uleb128 0xa
 1726 085f 0C210000 		.4byte	.LASF259
 1727 0863 06       		.byte	0x6
 1728 0864 D401     		.2byte	0x1d4
 1729 0866 77000000 		.4byte	0x77
 1730 086a 06       		.byte	0x6
 1731 086b 00       		.byte	0
 1732 086c 04       		.uleb128 0x4
 1733 086d 79020000 		.4byte	.LASF260
ARM GAS  C:\Users\tiantiaf\AppData\Local\Temp\cc2Xz98j.s 			page 68


 1734 0871 06       		.byte	0x6
 1735 0872 D601     		.2byte	0x1d6
 1736 0874 3B080000 		.4byte	0x83b
 1737 0878 09       		.uleb128 0x9
 1738 0879 0C       		.byte	0xc
 1739 087a 06       		.byte	0x6
 1740 087b D901     		.2byte	0x1d9
 1741 087d 9C080000 		.4byte	0x89c
 1742 0881 0A       		.uleb128 0xa
 1743 0882 201A0000 		.4byte	.LASF261
 1744 0886 06       		.byte	0x6
 1745 0887 DC01     		.2byte	0x1dc
 1746 0889 6C080000 		.4byte	0x86c
 1747 088d 00       		.byte	0
 1748 088e 0A       		.uleb128 0xa
 1749 088f F7140000 		.4byte	.LASF262
 1750 0893 06       		.byte	0x6
 1751 0894 DF01     		.2byte	0x1df
 1752 0896 FF070000 		.4byte	0x7ff
 1753 089a 08       		.byte	0x8
 1754 089b 00       		.byte	0
 1755 089c 04       		.uleb128 0x4
 1756 089d 95060000 		.4byte	.LASF263
 1757 08a1 06       		.byte	0x6
 1758 08a2 E101     		.2byte	0x1e1
 1759 08a4 78080000 		.4byte	0x878
 1760 08a8 09       		.uleb128 0x9
 1761 08a9 04       		.byte	0x4
 1762 08aa 06       		.byte	0x6
 1763 08ab EF01     		.2byte	0x1ef
 1764 08ad CC080000 		.4byte	0x8cc
 1765 08b1 0A       		.uleb128 0xa
 1766 08b2 E91A0000 		.4byte	.LASF264
 1767 08b6 06       		.byte	0x6
 1768 08b7 F201     		.2byte	0x1f2
 1769 08b9 2F080000 		.4byte	0x82f
 1770 08bd 00       		.byte	0
 1771 08be 10       		.uleb128 0x10
 1772 08bf 6D747500 		.ascii	"mtu\000"
 1773 08c3 06       		.byte	0x6
 1774 08c4 F501     		.2byte	0x1f5
 1775 08c6 77000000 		.4byte	0x77
 1776 08ca 02       		.byte	0x2
 1777 08cb 00       		.byte	0
 1778 08cc 04       		.uleb128 0x4
 1779 08cd 7F150000 		.4byte	.LASF265
 1780 08d1 06       		.byte	0x6
 1781 08d2 F701     		.2byte	0x1f7
 1782 08d4 A8080000 		.4byte	0x8a8
 1783 08d8 09       		.uleb128 0x9
 1784 08d9 08       		.byte	0x8
 1785 08da 06       		.byte	0x6
 1786 08db 0502     		.2byte	0x205
 1787 08dd 09090000 		.4byte	0x909
 1788 08e1 0A       		.uleb128 0xa
 1789 08e2 8C180000 		.4byte	.LASF266
 1790 08e6 06       		.byte	0x6
ARM GAS  C:\Users\tiantiaf\AppData\Local\Temp\cc2Xz98j.s 			page 69


 1791 08e7 0A02     		.2byte	0x20a
 1792 08e9 E8050000 		.4byte	0x5e8
 1793 08ed 00       		.byte	0
 1794 08ee 0A       		.uleb128 0xa
 1795 08ef 261A0000 		.4byte	.LASF267
 1796 08f3 06       		.byte	0x6
 1797 08f4 0F02     		.2byte	0x20f
 1798 08f6 77000000 		.4byte	0x77
 1799 08fa 04       		.byte	0x4
 1800 08fb 0A       		.uleb128 0xa
 1801 08fc E40C0000 		.4byte	.LASF268
 1802 0900 06       		.byte	0x6
 1803 0901 1602     		.2byte	0x216
 1804 0903 77000000 		.4byte	0x77
 1805 0907 06       		.byte	0x6
 1806 0908 00       		.byte	0
 1807 0909 04       		.uleb128 0x4
 1808 090a BC100000 		.4byte	.LASF269
 1809 090e 06       		.byte	0x6
 1810 090f 1802     		.2byte	0x218
 1811 0911 D8080000 		.4byte	0x8d8
 1812 0915 11       		.uleb128 0x11
 1813 0916 04       		.byte	0x4
 1814 0917 07       		.byte	0x7
 1815 0918 3A       		.byte	0x3a
 1816 0919 42090000 		.4byte	0x942
 1817 091d 12       		.uleb128 0x12
 1818 091e F7140000 		.4byte	.LASF262
 1819 0922 07       		.byte	0x7
 1820 0923 3D       		.byte	0x3d
 1821 0924 FF070000 		.4byte	0x7ff
 1822 0928 00       		.byte	0
 1823 0929 12       		.uleb128 0x12
 1824 092a C6140000 		.4byte	.LASF270
 1825 092e 07       		.byte	0x7
 1826 092f 43       		.byte	0x43
 1827 0930 6B000000 		.4byte	0x6b
 1828 0934 02       		.byte	0x2
 1829 0935 12       		.uleb128 0x12
 1830 0936 41090000 		.4byte	.LASF271
 1831 093a 07       		.byte	0x7
 1832 093b 46       		.byte	0x46
 1833 093c F3070000 		.4byte	0x7f3
 1834 0940 03       		.byte	0x3
 1835 0941 00       		.byte	0
 1836 0942 0E       		.uleb128 0xe
 1837 0943 7A080000 		.4byte	.LASF272
 1838 0947 07       		.byte	0x7
 1839 0948 48       		.byte	0x48
 1840 0949 15090000 		.4byte	0x915
 1841 094d 11       		.uleb128 0x11
 1842 094e 10       		.byte	0x10
 1843 094f 07       		.byte	0x7
 1844 0950 8A       		.byte	0x8a
 1845 0951 6E090000 		.4byte	0x96e
 1846 0955 12       		.uleb128 0x12
 1847 0956 E91A0000 		.4byte	.LASF264
ARM GAS  C:\Users\tiantiaf\AppData\Local\Temp\cc2Xz98j.s 			page 70


 1848 095a 07       		.byte	0x7
 1849 095b 8D       		.byte	0x8d
 1850 095c 2F080000 		.4byte	0x82f
 1851 0960 00       		.byte	0
 1852 0961 12       		.uleb128 0x12
 1853 0962 DB1A0000 		.4byte	.LASF273
 1854 0966 07       		.byte	0x7
 1855 0967 90       		.byte	0x90
 1856 0968 9C080000 		.4byte	0x89c
 1857 096c 04       		.byte	0x4
 1858 096d 00       		.byte	0
 1859 096e 0E       		.uleb128 0xe
 1860 096f 0A150000 		.4byte	.LASF274
 1861 0973 07       		.byte	0x7
 1862 0974 92       		.byte	0x92
 1863 0975 4D090000 		.4byte	0x94d
 1864 0979 04       		.uleb128 0x4
 1865 097a 3C030000 		.4byte	.LASF275
 1866 097e 08       		.byte	0x8
 1867 097f E701     		.2byte	0x1e7
 1868 0981 85090000 		.4byte	0x985
 1869 0985 0F       		.uleb128 0xf
 1870 0986 04       		.byte	0x4
 1871 0987 8B090000 		.4byte	0x98b
 1872 098b 13       		.uleb128 0x13
 1873 098c 9B090000 		.4byte	0x99b
 1874 0990 14       		.uleb128 0x14
 1875 0991 83000000 		.4byte	0x83
 1876 0995 14       		.uleb128 0x14
 1877 0996 B0000000 		.4byte	0xb0
 1878 099a 00       		.byte	0
 1879 099b 07       		.uleb128 0x7
 1880 099c 01       		.byte	0x1
 1881 099d 09       		.byte	0x9
 1882 099e BF07     		.2byte	0x7bf
 1883 09a0 C3090000 		.4byte	0x9c3
 1884 09a4 08       		.uleb128 0x8
 1885 09a5 66080000 		.4byte	.LASF276
 1886 09a9 00       		.sleb128 0
 1887 09aa 08       		.uleb128 0x8
 1888 09ab 37110000 		.4byte	.LASF277
 1889 09af 01       		.sleb128 1
 1890 09b0 08       		.uleb128 0x8
 1891 09b1 F6200000 		.4byte	.LASF278
 1892 09b5 02       		.sleb128 2
 1893 09b6 08       		.uleb128 0x8
 1894 09b7 FE030000 		.4byte	.LASF279
 1895 09bb 03       		.sleb128 3
 1896 09bc 08       		.uleb128 0x8
 1897 09bd C81B0000 		.4byte	.LASF280
 1898 09c1 04       		.sleb128 4
 1899 09c2 00       		.byte	0
 1900 09c3 04       		.uleb128 0x4
 1901 09c4 241D0000 		.4byte	.LASF281
 1902 09c8 09       		.byte	0x9
 1903 09c9 CD07     		.2byte	0x7cd
 1904 09cb 9B090000 		.4byte	0x99b
ARM GAS  C:\Users\tiantiaf\AppData\Local\Temp\cc2Xz98j.s 			page 71


 1905 09cf 15       		.uleb128 0x15
 1906 09d0 A4120000 		.4byte	.LASF319
 1907 09d4 01       		.byte	0x1
 1908 09d5 F004     		.2byte	0x4f0
 1909 09d7 00000000 		.4byte	.LFB4
 1910 09db 10000000 		.4byte	.LFE4-.LFB4
 1911 09df 01       		.uleb128 0x1
 1912 09e0 9C       		.byte	0x9c
 1913 09e1 16       		.uleb128 0x16
 1914 09e2 9B000000 		.4byte	.LASF320
 1915 09e6 01       		.byte	0x1
 1916 09e7 E8       		.byte	0xe8
 1917 09e8 00000000 		.4byte	.LFB2
 1918 09ec 38000000 		.4byte	.LFE2-.LFB2
 1919 09f0 01       		.uleb128 0x1
 1920 09f1 9C       		.byte	0x9c
 1921 09f2 5F0A0000 		.4byte	0xa5f
 1922 09f6 17       		.uleb128 0x17
 1923 09f7 B9000000 		.4byte	.LASF284
 1924 09fb 01       		.byte	0x1
 1925 09fc E8       		.byte	0xe8
 1926 09fd 5F0A0000 		.4byte	0xa5f
 1927 0a01 00000000 		.4byte	.LLST0
 1928 0a05 18       		.uleb128 0x18
 1929 0a06 88200000 		.4byte	.LASF282
 1930 0a0a 01       		.byte	0x1
 1931 0a0b EA       		.byte	0xea
 1932 0a0c F3070000 		.4byte	0x7f3
 1933 0a10 2C000000 		.4byte	.LLST1
 1934 0a14 19       		.uleb128 0x19
 1935 0a15 16000000 		.4byte	.LBB2
 1936 0a19 12000000 		.4byte	.LBE2-.LBB2
 1937 0a1d 410A0000 		.4byte	0xa41
 1938 0a21 1A       		.uleb128 0x1a
 1939 0a22 FC150000 		.4byte	.LASF283
 1940 0a26 01       		.byte	0x1
 1941 0a27 9801     		.2byte	0x198
 1942 0a29 42090000 		.4byte	0x942
 1943 0a2d 02       		.uleb128 0x2
 1944 0a2e 91       		.byte	0x91
 1945 0a2f 74       		.sleb128 -12
 1946 0a30 1B       		.uleb128 0x1b
 1947 0a31 28000000 		.4byte	.LVL3
 1948 0a35 BD0D0000 		.4byte	0xdbd
 1949 0a39 1C       		.uleb128 0x1c
 1950 0a3a 01       		.uleb128 0x1
 1951 0a3b 51       		.byte	0x51
 1952 0a3c 02       		.uleb128 0x2
 1953 0a3d 91       		.byte	0x91
 1954 0a3e 74       		.sleb128 -12
 1955 0a3f 00       		.byte	0
 1956 0a40 00       		.byte	0
 1957 0a41 1D       		.uleb128 0x1d
 1958 0a42 0A000000 		.4byte	.LVL1
 1959 0a46 DE0D0000 		.4byte	0xdde
 1960 0a4a 550A0000 		.4byte	0xa55
 1961 0a4e 1C       		.uleb128 0x1c
ARM GAS  C:\Users\tiantiaf\AppData\Local\Temp\cc2Xz98j.s 			page 72


 1962 0a4f 01       		.uleb128 0x1
 1963 0a50 50       		.byte	0x50
 1964 0a51 02       		.uleb128 0x2
 1965 0a52 74       		.byte	0x74
 1966 0a53 00       		.sleb128 0
 1967 0a54 00       		.byte	0
 1968 0a55 1E       		.uleb128 0x1e
 1969 0a56 30000000 		.4byte	.LVL6
 1970 0a5a F30D0000 		.4byte	0xdf3
 1971 0a5e 00       		.byte	0
 1972 0a5f 0F       		.uleb128 0xf
 1973 0a60 04       		.byte	0x4
 1974 0a61 6E090000 		.4byte	0x96e
 1975 0a65 1F       		.uleb128 0x1f
 1976 0a66 A9160000 		.4byte	.LASF321
 1977 0a6a 01       		.byte	0x1
 1978 0a6b 8C05     		.2byte	0x58c
 1979 0a6d 6B000000 		.4byte	0x6b
 1980 0a71 00000000 		.4byte	.LFB7
 1981 0a75 24000000 		.4byte	.LFE7-.LFB7
 1982 0a79 01       		.uleb128 0x1
 1983 0a7a 9C       		.byte	0x9c
 1984 0a7b AE0A0000 		.4byte	0xaae
 1985 0a7f 20       		.uleb128 0x20
 1986 0a80 360B0000 		.4byte	.LASF285
 1987 0a84 01       		.byte	0x1
 1988 0a85 8C05     		.2byte	0x58c
 1989 0a87 AE0A0000 		.4byte	0xaae
 1990 0a8b 56000000 		.4byte	.LLST2
 1991 0a8f 21       		.uleb128 0x21
 1992 0a90 6900     		.ascii	"i\000"
 1993 0a92 01       		.byte	0x1
 1994 0a93 8E05     		.2byte	0x58e
 1995 0a95 6B000000 		.4byte	0x6b
 1996 0a99 A9000000 		.4byte	.LLST3
 1997 0a9d 22       		.uleb128 0x22
 1998 0a9e F1030000 		.4byte	.LASF286
 1999 0aa2 01       		.byte	0x1
 2000 0aa3 8F05     		.2byte	0x58f
 2001 0aa5 6B000000 		.4byte	0x6b
 2002 0aa9 D2000000 		.4byte	.LLST4
 2003 0aad 00       		.byte	0
 2004 0aae 0F       		.uleb128 0xf
 2005 0aaf 04       		.byte	0x4
 2006 0ab0 B40A0000 		.4byte	0xab4
 2007 0ab4 23       		.uleb128 0x23
 2008 0ab5 82040000 		.4byte	0x482
 2009 0ab9 24       		.uleb128 0x24
 2010 0aba 9A070000 		.4byte	.LASF322
 2011 0abe 01       		.byte	0x1
 2012 0abf E405     		.2byte	0x5e4
 2013 0ac1 00000000 		.4byte	.LFB10
 2014 0ac5 30020000 		.4byte	.LFE10-.LFB10
 2015 0ac9 01       		.uleb128 0x1
 2016 0aca 9C       		.byte	0x9c
 2017 0acb FF0C0000 		.4byte	0xcff
 2018 0acf 20       		.uleb128 0x20
ARM GAS  C:\Users\tiantiaf\AppData\Local\Temp\cc2Xz98j.s 			page 73


 2019 0ad0 491F0000 		.4byte	.LASF287
 2020 0ad4 01       		.byte	0x1
 2021 0ad5 E405     		.2byte	0x5e4
 2022 0ad7 6B000000 		.4byte	0x6b
 2023 0adb F1000000 		.4byte	.LLST5
 2024 0adf 20       		.uleb128 0x20
 2025 0ae0 B9000000 		.4byte	.LASF284
 2026 0ae4 01       		.byte	0x1
 2027 0ae5 E405     		.2byte	0x5e4
 2028 0ae7 B0000000 		.4byte	0xb0
 2029 0aeb A8010000 		.4byte	.LLST6
 2030 0aef 19       		.uleb128 0x19
 2031 0af0 20000000 		.4byte	.LBB3
 2032 0af4 1C000000 		.4byte	.LBE3-.LBB3
 2033 0af8 300B0000 		.4byte	0xb30
 2034 0afc 1A       		.uleb128 0x1a
 2035 0afd DD190000 		.4byte	.LASF288
 2036 0b01 01       		.byte	0x1
 2037 0b02 F105     		.2byte	0x5f1
 2038 0b04 E3030000 		.4byte	0x3e3
 2039 0b08 02       		.uleb128 0x2
 2040 0b09 91       		.byte	0x91
 2041 0b0a 64       		.sleb128 -28
 2042 0b0b 1D       		.uleb128 0x1d
 2043 0b0c 30000000 		.4byte	.LVL21
 2044 0b10 090E0000 		.4byte	0xe09
 2045 0b14 1F0B0000 		.4byte	0xb1f
 2046 0b18 1C       		.uleb128 0x1c
 2047 0b19 01       		.uleb128 0x1
 2048 0b1a 50       		.byte	0x50
 2049 0b1b 02       		.uleb128 0x2
 2050 0b1c 76       		.byte	0x76
 2051 0b1d 00       		.sleb128 0
 2052 0b1e 00       		.byte	0
 2053 0b1f 1B       		.uleb128 0x1b
 2054 0b20 3C000000 		.4byte	.LVL22
 2055 0b24 090E0000 		.4byte	0xe09
 2056 0b28 1C       		.uleb128 0x1c
 2057 0b29 01       		.uleb128 0x1
 2058 0b2a 50       		.byte	0x50
 2059 0b2b 02       		.uleb128 0x2
 2060 0b2c 76       		.byte	0x76
 2061 0b2d 00       		.sleb128 0
 2062 0b2e 00       		.byte	0
 2063 0b2f 00       		.byte	0
 2064 0b30 19       		.uleb128 0x19
 2065 0b31 64000000 		.4byte	.LBB4
 2066 0b35 36000000 		.4byte	.LBE4-.LBB4
 2067 0b39 4E0B0000 		.4byte	0xb4e
 2068 0b3d 22       		.uleb128 0x22
 2069 0b3e 6F1E0000 		.4byte	.LASF289
 2070 0b42 01       		.byte	0x1
 2071 0b43 0B06     		.2byte	0x60b
 2072 0b45 83000000 		.4byte	0x83
 2073 0b49 D4010000 		.4byte	.LLST7
 2074 0b4d 00       		.byte	0
 2075 0b4e 19       		.uleb128 0x19
ARM GAS  C:\Users\tiantiaf\AppData\Local\Temp\cc2Xz98j.s 			page 74


 2076 0b4f B6000000 		.4byte	.LBB5
 2077 0b53 0E000000 		.4byte	.LBE5-.LBB5
 2078 0b57 7B0B0000 		.4byte	0xb7b
 2079 0b5b 1A       		.uleb128 0x1a
 2080 0b5c E11B0000 		.4byte	.LASF290
 2081 0b60 01       		.byte	0x1
 2082 0b61 2306     		.2byte	0x623
 2083 0b63 FF0C0000 		.4byte	0xcff
 2084 0b67 02       		.uleb128 0x2
 2085 0b68 91       		.byte	0x91
 2086 0b69 64       		.sleb128 -28
 2087 0b6a 1B       		.uleb128 0x1b
 2088 0b6b C4000000 		.4byte	.LVL33
 2089 0b6f 250E0000 		.4byte	0xe25
 2090 0b73 1C       		.uleb128 0x1c
 2091 0b74 01       		.uleb128 0x1
 2092 0b75 50       		.byte	0x50
 2093 0b76 02       		.uleb128 0x2
 2094 0b77 91       		.byte	0x91
 2095 0b78 64       		.sleb128 -28
 2096 0b79 00       		.byte	0
 2097 0b7a 00       		.byte	0
 2098 0b7b 19       		.uleb128 0x19
 2099 0b7c D4000000 		.4byte	.LBB6
 2100 0b80 26000000 		.4byte	.LBE6-.LBB6
 2101 0b84 B50B0000 		.4byte	0xbb5
 2102 0b88 22       		.uleb128 0x22
 2103 0b89 8C020000 		.4byte	.LASF291
 2104 0b8d 01       		.byte	0x1
 2105 0b8e 3B06     		.2byte	0x63b
 2106 0b90 0F0D0000 		.4byte	0xd0f
 2107 0b94 E7010000 		.4byte	.LLST8
 2108 0b98 25       		.uleb128 0x25
 2109 0b99 E0000000 		.4byte	.LBB7
 2110 0b9d 0E000000 		.4byte	.LBE7-.LBB7
 2111 0ba1 1A       		.uleb128 0x1a
 2112 0ba2 48160000 		.4byte	.LASF292
 2113 0ba6 01       		.byte	0x1
 2114 0ba7 4206     		.2byte	0x642
 2115 0ba9 09090000 		.4byte	0x909
 2116 0bad 05       		.uleb128 0x5
 2117 0bae 03       		.byte	0x3
 2118 0baf 00000000 		.4byte	gPrepWriteReqMem.6333
 2119 0bb3 00       		.byte	0
 2120 0bb4 00       		.byte	0
 2121 0bb5 19       		.uleb128 0x19
 2122 0bb6 B6010000 		.4byte	.LBB8
 2123 0bba 0E000000 		.4byte	.LBE8-.LBB8
 2124 0bbe DC0B0000 		.4byte	0xbdc
 2125 0bc2 22       		.uleb128 0x22
 2126 0bc3 50110000 		.4byte	.LASF293
 2127 0bc7 01       		.byte	0x1
 2128 0bc8 1907     		.2byte	0x719
 2129 0bca 77000000 		.4byte	0x77
 2130 0bce FA010000 		.4byte	.LLST9
 2131 0bd2 1E       		.uleb128 0x1e
 2132 0bd3 C4010000 		.4byte	.LVL50
ARM GAS  C:\Users\tiantiaf\AppData\Local\Temp\cc2Xz98j.s 			page 75


 2133 0bd7 3B0E0000 		.4byte	0xe3b
 2134 0bdb 00       		.byte	0
 2135 0bdc 1D       		.uleb128 0x1d
 2136 0bdd 46000000 		.4byte	.LVL23
 2137 0be1 650A0000 		.4byte	0xa65
 2138 0be5 F00B0000 		.4byte	0xbf0
 2139 0be9 1C       		.uleb128 0x1c
 2140 0bea 01       		.uleb128 0x1
 2141 0beb 50       		.byte	0x50
 2142 0bec 02       		.uleb128 0x2
 2143 0bed 76       		.byte	0x76
 2144 0bee 00       		.sleb128 0
 2145 0bef 00       		.byte	0
 2146 0bf0 1D       		.uleb128 0x1d
 2147 0bf1 50000000 		.4byte	.LVL24
 2148 0bf5 560E0000 		.4byte	0xe56
 2149 0bf9 040C0000 		.4byte	0xc04
 2150 0bfd 1C       		.uleb128 0x1c
 2151 0bfe 01       		.uleb128 0x1
 2152 0bff 50       		.byte	0x50
 2153 0c00 02       		.uleb128 0x2
 2154 0c01 76       		.byte	0x76
 2155 0c02 00       		.sleb128 0
 2156 0c03 00       		.byte	0
 2157 0c04 1D       		.uleb128 0x1d
 2158 0c05 5A000000 		.4byte	.LVL25
 2159 0c09 6C0E0000 		.4byte	0xe6c
 2160 0c0d 170C0000 		.4byte	0xc17
 2161 0c11 1C       		.uleb128 0x1c
 2162 0c12 01       		.uleb128 0x1
 2163 0c13 51       		.byte	0x51
 2164 0c14 01       		.uleb128 0x1
 2165 0c15 30       		.byte	0x30
 2166 0c16 00       		.byte	0
 2167 0c17 1D       		.uleb128 0x1d
 2168 0c18 62000000 		.4byte	.LVL26
 2169 0c1c 6C0E0000 		.4byte	0xe6c
 2170 0c20 2A0C0000 		.4byte	0xc2a
 2171 0c24 1C       		.uleb128 0x1c
 2172 0c25 01       		.uleb128 0x1
 2173 0c26 51       		.byte	0x51
 2174 0c27 01       		.uleb128 0x1
 2175 0c28 31       		.byte	0x31
 2176 0c29 00       		.byte	0
 2177 0c2a 1D       		.uleb128 0x1d
 2178 0c2b A0000000 		.4byte	.LVL29
 2179 0c2f 560E0000 		.4byte	0xe56
 2180 0c33 3E0C0000 		.4byte	0xc3e
 2181 0c37 1C       		.uleb128 0x1c
 2182 0c38 01       		.uleb128 0x1
 2183 0c39 50       		.byte	0x50
 2184 0c3a 02       		.uleb128 0x2
 2185 0c3b 76       		.byte	0x76
 2186 0c3c 00       		.sleb128 0
 2187 0c3d 00       		.byte	0
 2188 0c3e 1D       		.uleb128 0x1d
 2189 0c3f A8000000 		.4byte	.LVL30
ARM GAS  C:\Users\tiantiaf\AppData\Local\Temp\cc2Xz98j.s 			page 76


 2190 0c43 6C0E0000 		.4byte	0xe6c
 2191 0c47 570C0000 		.4byte	0xc57
 2192 0c4b 1C       		.uleb128 0x1c
 2193 0c4c 01       		.uleb128 0x1
 2194 0c4d 51       		.byte	0x51
 2195 0c4e 01       		.uleb128 0x1
 2196 0c4f 30       		.byte	0x30
 2197 0c50 1C       		.uleb128 0x1c
 2198 0c51 01       		.uleb128 0x1
 2199 0c52 50       		.byte	0x50
 2200 0c53 02       		.uleb128 0x2
 2201 0c54 76       		.byte	0x76
 2202 0c55 00       		.sleb128 0
 2203 0c56 00       		.byte	0
 2204 0c57 1D       		.uleb128 0x1d
 2205 0c58 B0000000 		.4byte	.LVL31
 2206 0c5c 6C0E0000 		.4byte	0xe6c
 2207 0c60 700C0000 		.4byte	0xc70
 2208 0c64 1C       		.uleb128 0x1c
 2209 0c65 01       		.uleb128 0x1
 2210 0c66 51       		.byte	0x51
 2211 0c67 01       		.uleb128 0x1
 2212 0c68 31       		.byte	0x31
 2213 0c69 1C       		.uleb128 0x1c
 2214 0c6a 01       		.uleb128 0x1
 2215 0c6b 50       		.byte	0x50
 2216 0c6c 02       		.uleb128 0x2
 2217 0c6d 76       		.byte	0x76
 2218 0c6e 00       		.sleb128 0
 2219 0c6f 00       		.byte	0
 2220 0c70 1D       		.uleb128 0x1d
 2221 0c71 B6000000 		.4byte	.LVL32
 2222 0c75 830E0000 		.4byte	0xe83
 2223 0c79 830C0000 		.4byte	0xc83
 2224 0c7d 1C       		.uleb128 0x1c
 2225 0c7e 01       		.uleb128 0x1
 2226 0c7f 50       		.byte	0x50
 2227 0c80 01       		.uleb128 0x1
 2228 0c81 33       		.byte	0x33
 2229 0c82 00       		.byte	0
 2230 0c83 1D       		.uleb128 0x1d
 2231 0c84 1A010000 		.4byte	.LVL38
 2232 0c88 990E0000 		.4byte	0xe99
 2233 0c8c 9A0C0000 		.4byte	0xc9a
 2234 0c90 1C       		.uleb128 0x1c
 2235 0c91 01       		.uleb128 0x1
 2236 0c92 51       		.byte	0x51
 2237 0c93 05       		.uleb128 0x5
 2238 0c94 03       		.byte	0x3
 2239 0c95 00000000 		.4byte	.LANCHOR1
 2240 0c99 00       		.byte	0
 2241 0c9a 1D       		.uleb128 0x1d
 2242 0c9b 92010000 		.4byte	.LVL41
 2243 0c9f BA0E0000 		.4byte	0xeba
 2244 0ca3 AD0C0000 		.4byte	0xcad
 2245 0ca7 1C       		.uleb128 0x1c
 2246 0ca8 01       		.uleb128 0x1
ARM GAS  C:\Users\tiantiaf\AppData\Local\Temp\cc2Xz98j.s 			page 77


 2247 0ca9 50       		.byte	0x50
 2248 0caa 01       		.uleb128 0x1
 2249 0cab 31       		.byte	0x31
 2250 0cac 00       		.byte	0
 2251 0cad 1D       		.uleb128 0x1d
 2252 0cae A8010000 		.4byte	.LVL44
 2253 0cb2 D00E0000 		.4byte	0xed0
 2254 0cb6 CF0C0000 		.4byte	0xccf
 2255 0cba 1C       		.uleb128 0x1c
 2256 0cbb 01       		.uleb128 0x1
 2257 0cbc 52       		.byte	0x52
 2258 0cbd 01       		.uleb128 0x1
 2259 0cbe 32       		.byte	0x32
 2260 0cbf 1C       		.uleb128 0x1c
 2261 0cc0 01       		.uleb128 0x1
 2262 0cc1 51       		.byte	0x51
 2263 0cc2 02       		.uleb128 0x2
 2264 0cc3 74       		.byte	0x74
 2265 0cc4 00       		.sleb128 0
 2266 0cc5 1C       		.uleb128 0x1c
 2267 0cc6 01       		.uleb128 0x1
 2268 0cc7 50       		.byte	0x50
 2269 0cc8 05       		.uleb128 0x5
 2270 0cc9 03       		.byte	0x3
 2271 0cca 00000000 		.4byte	cyBle_connHandle
 2272 0cce 00       		.byte	0
 2273 0ccf 1E       		.uleb128 0x1e
 2274 0cd0 B4010000 		.4byte	.LVL46
 2275 0cd4 CF090000 		.4byte	0x9cf
 2276 0cd8 1D       		.uleb128 0x1d
 2277 0cd9 CC010000 		.4byte	.LVL53
 2278 0cdd E1090000 		.4byte	0x9e1
 2279 0ce1 EC0C0000 		.4byte	0xcec
 2280 0ce5 1C       		.uleb128 0x1c
 2281 0ce6 01       		.uleb128 0x1
 2282 0ce7 50       		.byte	0x50
 2283 0ce8 02       		.uleb128 0x2
 2284 0ce9 74       		.byte	0x74
 2285 0cea 00       		.sleb128 0
 2286 0ceb 00       		.byte	0
 2287 0cec 26       		.uleb128 0x26
 2288 0ced EA010000 		.4byte	.LVL54
 2289 0cf1 1C       		.uleb128 0x1c
 2290 0cf2 01       		.uleb128 0x1
 2291 0cf3 51       		.byte	0x51
 2292 0cf4 02       		.uleb128 0x2
 2293 0cf5 74       		.byte	0x74
 2294 0cf6 00       		.sleb128 0
 2295 0cf7 1C       		.uleb128 0x1c
 2296 0cf8 01       		.uleb128 0x1
 2297 0cf9 50       		.byte	0x50
 2298 0cfa 02       		.uleb128 0x2
 2299 0cfb 75       		.byte	0x75
 2300 0cfc 00       		.sleb128 0
 2301 0cfd 00       		.byte	0
 2302 0cfe 00       		.byte	0
 2303 0cff 0B       		.uleb128 0xb
ARM GAS  C:\Users\tiantiaf\AppData\Local\Temp\cc2Xz98j.s 			page 78


 2304 0d00 6B000000 		.4byte	0x6b
 2305 0d04 0F0D0000 		.4byte	0xd0f
 2306 0d08 0C       		.uleb128 0xc
 2307 0d09 A9000000 		.4byte	0xa9
 2308 0d0d 01       		.byte	0x1
 2309 0d0e 00       		.byte	0
 2310 0d0f 0F       		.uleb128 0xf
 2311 0d10 04       		.byte	0x4
 2312 0d11 42040000 		.4byte	0x442
 2313 0d15 27       		.uleb128 0x27
 2314 0d16 3B1A0000 		.4byte	.LASF294
 2315 0d1a 08       		.byte	0x8
 2316 0d1b 8002     		.2byte	0x280
 2317 0d1d 79090000 		.4byte	0x979
 2318 0d21 0B       		.uleb128 0xb
 2319 0d22 6B000000 		.4byte	0x6b
 2320 0d26 320D0000 		.4byte	0xd32
 2321 0d2a 28       		.uleb128 0x28
 2322 0d2b A9000000 		.4byte	0xa9
 2323 0d2f DF0A     		.2byte	0xadf
 2324 0d31 00       		.byte	0
 2325 0d32 27       		.uleb128 0x27
 2326 0d33 E41D0000 		.4byte	.LASF295
 2327 0d37 08       		.byte	0x8
 2328 0d38 8502     		.2byte	0x285
 2329 0d3a 210D0000 		.4byte	0xd21
 2330 0d3e 29       		.uleb128 0x29
 2331 0d3f 440B0000 		.4byte	.LASF296
 2332 0d43 01       		.byte	0x1
 2333 0d44 3D       		.byte	0x3d
 2334 0d45 A4000000 		.4byte	0xa4
 2335 0d49 05       		.uleb128 0x5
 2336 0d4a 03       		.byte	0x3
 2337 0d4b 00000000 		.4byte	cyBle_eventHandlerFlag
 2338 0d4f 27       		.uleb128 0x27
 2339 0d50 F2050000 		.4byte	.LASF297
 2340 0d54 08       		.byte	0x8
 2341 0d55 8802     		.2byte	0x288
 2342 0d57 82040000 		.4byte	0x482
 2343 0d5b 27       		.uleb128 0x27
 2344 0d5c FA0C0000 		.4byte	.LASF298
 2345 0d60 08       		.byte	0x8
 2346 0d61 8902     		.2byte	0x289
 2347 0d63 670D0000 		.4byte	0xd67
 2348 0d67 0F       		.uleb128 0xf
 2349 0d68 04       		.byte	0x4
 2350 0d69 82040000 		.4byte	0x482
 2351 0d6d 29       		.uleb128 0x29
 2352 0d6e 161C0000 		.4byte	.LASF299
 2353 0d72 01       		.byte	0x1
 2354 0d73 D0       		.byte	0xd0
 2355 0d74 DC050000 		.4byte	0x5dc
 2356 0d78 05       		.uleb128 0x5
 2357 0d79 03       		.byte	0x3
 2358 0d7a 00000000 		.4byte	cyBle_authInfo
 2359 0d7e 27       		.uleb128 0x27
 2360 0d7f 901B0000 		.4byte	.LASF300
ARM GAS  C:\Users\tiantiaf\AppData\Local\Temp\cc2Xz98j.s 			page 79


 2361 0d83 09       		.byte	0x9
 2362 0d84 DA09     		.2byte	0x9da
 2363 0d86 C3090000 		.4byte	0x9c3
 2364 0d8a 29       		.uleb128 0x29
 2365 0d8b 2F0C0000 		.4byte	.LASF301
 2366 0d8f 01       		.byte	0x1
 2367 0d90 3B       		.byte	0x3b
 2368 0d91 2F080000 		.4byte	0x82f
 2369 0d95 05       		.uleb128 0x5
 2370 0d96 03       		.byte	0x3
 2371 0d97 00000000 		.4byte	cyBle_connHandle
 2372 0d9b 29       		.uleb128 0x29
 2373 0d9c 0A110000 		.4byte	.LASF302
 2374 0da0 01       		.byte	0x1
 2375 0da1 3E       		.byte	0x3e
 2376 0da2 A4000000 		.4byte	0xa4
 2377 0da6 05       		.uleb128 0x5
 2378 0da7 03       		.byte	0x3
 2379 0da8 00000000 		.4byte	cyBle_busyStatus
 2380 0dac 29       		.uleb128 0x29
 2381 0dad F91D0000 		.4byte	.LASF303
 2382 0db1 01       		.byte	0x1
 2383 0db2 41       		.byte	0x41
 2384 0db3 6B000000 		.4byte	0x6b
 2385 0db7 05       		.uleb128 0x5
 2386 0db8 03       		.byte	0x3
 2387 0db9 00000000 		.4byte	cyBle_advertisingIntervalType
 2388 0dbd 2A       		.uleb128 0x2a
 2389 0dbe 471E0000 		.4byte	.LASF304
 2390 0dc2 07       		.byte	0x7
 2391 0dc3 4001     		.2byte	0x140
 2392 0dc5 3F030000 		.4byte	0x33f
 2393 0dc9 D80D0000 		.4byte	0xdd8
 2394 0dcd 14       		.uleb128 0x14
 2395 0dce 2F080000 		.4byte	0x82f
 2396 0dd2 14       		.uleb128 0x14
 2397 0dd3 D80D0000 		.4byte	0xdd8
 2398 0dd7 00       		.byte	0
 2399 0dd8 0F       		.uleb128 0xf
 2400 0dd9 04       		.byte	0x4
 2401 0dda 42090000 		.4byte	0x942
 2402 0dde 2B       		.uleb128 0x2b
 2403 0ddf B1150000 		.4byte	.LASF305
 2404 0de3 0A       		.byte	0xa
 2405 0de4 D3       		.byte	0xd3
 2406 0de5 F3070000 		.4byte	0x7f3
 2407 0de9 F30D0000 		.4byte	0xdf3
 2408 0ded 14       		.uleb128 0x14
 2409 0dee 5F0A0000 		.4byte	0xa5f
 2410 0df2 00       		.byte	0
 2411 0df3 2A       		.uleb128 0x2a
 2412 0df4 3F040000 		.4byte	.LASF306
 2413 0df8 07       		.byte	0x7
 2414 0df9 C601     		.2byte	0x1c6
 2415 0dfb 3F030000 		.4byte	0x33f
 2416 0dff 090E0000 		.4byte	0xe09
 2417 0e03 14       		.uleb128 0x14
ARM GAS  C:\Users\tiantiaf\AppData\Local\Temp\cc2Xz98j.s 			page 80


 2418 0e04 2F080000 		.4byte	0x82f
 2419 0e08 00       		.byte	0
 2420 0e09 2A       		.uleb128 0x2a
 2421 0e0a D0040000 		.4byte	.LASF307
 2422 0e0e 03       		.byte	0x3
 2423 0e0f EE06     		.2byte	0x6ee
 2424 0e11 3F030000 		.4byte	0x33f
 2425 0e15 1F0E0000 		.4byte	0xe1f
 2426 0e19 14       		.uleb128 0x14
 2427 0e1a 1F0E0000 		.4byte	0xe1f
 2428 0e1e 00       		.byte	0
 2429 0e1f 0F       		.uleb128 0xf
 2430 0e20 04       		.byte	0x4
 2431 0e21 E3030000 		.4byte	0x3e3
 2432 0e25 2A       		.uleb128 0x2a
 2433 0e26 7E120000 		.4byte	.LASF308
 2434 0e2a 05       		.byte	0x5
 2435 0e2b 300C     		.2byte	0xc30
 2436 0e2d 3F030000 		.4byte	0x33f
 2437 0e31 3B0E0000 		.4byte	0xe3b
 2438 0e35 14       		.uleb128 0x14
 2439 0e36 E8050000 		.4byte	0x5e8
 2440 0e3a 00       		.byte	0
 2441 0e3b 2A       		.uleb128 0x2a
 2442 0e3c 5B0D0000 		.4byte	.LASF309
 2443 0e40 07       		.byte	0x7
 2444 0e41 7C01     		.2byte	0x17c
 2445 0e43 3F030000 		.4byte	0x33f
 2446 0e47 560E0000 		.4byte	0xe56
 2447 0e4b 14       		.uleb128 0x14
 2448 0e4c 2F080000 		.4byte	0x82f
 2449 0e50 14       		.uleb128 0x14
 2450 0e51 77000000 		.4byte	0x77
 2451 0e55 00       		.byte	0
 2452 0e56 2A       		.uleb128 0x2a
 2453 0e57 49000000 		.4byte	.LASF310
 2454 0e5b 03       		.byte	0x3
 2455 0e5c 6F06     		.2byte	0x66f
 2456 0e5e 3F030000 		.4byte	0x33f
 2457 0e62 6C0E0000 		.4byte	0xe6c
 2458 0e66 14       		.uleb128 0x14
 2459 0e67 670D0000 		.4byte	0xd67
 2460 0e6b 00       		.byte	0
 2461 0e6c 2C       		.uleb128 0x2c
 2462 0e6d 1B110000 		.4byte	.LASF314
 2463 0e71 08       		.byte	0x8
 2464 0e72 6602     		.2byte	0x266
 2465 0e74 830E0000 		.4byte	0xe83
 2466 0e78 14       		.uleb128 0x14
 2467 0e79 AE0A0000 		.4byte	0xaae
 2468 0e7d 14       		.uleb128 0x14
 2469 0e7e 6B000000 		.4byte	0x6b
 2470 0e82 00       		.byte	0
 2471 0e83 2A       		.uleb128 0x2a
 2472 0e84 89000000 		.4byte	.LASF311
 2473 0e88 05       		.byte	0x5
 2474 0e89 A704     		.2byte	0x4a7
ARM GAS  C:\Users\tiantiaf\AppData\Local\Temp\cc2Xz98j.s 			page 81


 2475 0e8b 3F030000 		.4byte	0x33f
 2476 0e8f 990E0000 		.4byte	0xe99
 2477 0e93 14       		.uleb128 0x14
 2478 0e94 09050000 		.4byte	0x509
 2479 0e98 00       		.byte	0
 2480 0e99 2A       		.uleb128 0x2a
 2481 0e9a 31120000 		.4byte	.LASF312
 2482 0e9e 05       		.byte	0x5
 2483 0e9f C907     		.2byte	0x7c9
 2484 0ea1 3F030000 		.4byte	0x33f
 2485 0ea5 B40E0000 		.4byte	0xeb4
 2486 0ea9 14       		.uleb128 0x14
 2487 0eaa 6B000000 		.4byte	0x6b
 2488 0eae 14       		.uleb128 0x14
 2489 0eaf B40E0000 		.4byte	0xeb4
 2490 0eb3 00       		.byte	0
 2491 0eb4 0F       		.uleb128 0xf
 2492 0eb5 04       		.byte	0x4
 2493 0eb6 DC050000 		.4byte	0x5dc
 2494 0eba 2A       		.uleb128 0x2a
 2495 0ebb 24090000 		.4byte	.LASF313
 2496 0ebf 08       		.byte	0x8
 2497 0ec0 6402     		.2byte	0x264
 2498 0ec2 3F030000 		.4byte	0x33f
 2499 0ec6 D00E0000 		.4byte	0xed0
 2500 0eca 14       		.uleb128 0x14
 2501 0ecb 6B000000 		.4byte	0x6b
 2502 0ecf 00       		.byte	0
 2503 0ed0 2D       		.uleb128 0x2d
 2504 0ed1 AA1E0000 		.4byte	.LASF315
 2505 0ed5 B0000000 		.4byte	0xb0
 2506 0ed9 ED0E0000 		.4byte	0xeed
 2507 0edd 14       		.uleb128 0x14
 2508 0ede B0000000 		.4byte	0xb0
 2509 0ee2 14       		.uleb128 0x14
 2510 0ee3 ED0E0000 		.4byte	0xeed
 2511 0ee7 14       		.uleb128 0x14
 2512 0ee8 A9000000 		.4byte	0xa9
 2513 0eec 00       		.byte	0
 2514 0eed 0F       		.uleb128 0xf
 2515 0eee 04       		.byte	0x4
 2516 0eef F30E0000 		.4byte	0xef3
 2517 0ef3 2E       		.uleb128 0x2e
 2518 0ef4 00       		.byte	0
 2519              		.section	.debug_abbrev,"",%progbits
 2520              	.Ldebug_abbrev0:
 2521 0000 01       		.uleb128 0x1
 2522 0001 11       		.uleb128 0x11
 2523 0002 01       		.byte	0x1
 2524 0003 25       		.uleb128 0x25
 2525 0004 0E       		.uleb128 0xe
 2526 0005 13       		.uleb128 0x13
 2527 0006 0B       		.uleb128 0xb
 2528 0007 03       		.uleb128 0x3
 2529 0008 0E       		.uleb128 0xe
 2530 0009 1B       		.uleb128 0x1b
 2531 000a 0E       		.uleb128 0xe
ARM GAS  C:\Users\tiantiaf\AppData\Local\Temp\cc2Xz98j.s 			page 82


 2532 000b 55       		.uleb128 0x55
 2533 000c 17       		.uleb128 0x17
 2534 000d 11       		.uleb128 0x11
 2535 000e 01       		.uleb128 0x1
 2536 000f 10       		.uleb128 0x10
 2537 0010 17       		.uleb128 0x17
 2538 0011 00       		.byte	0
 2539 0012 00       		.byte	0
 2540 0013 02       		.uleb128 0x2
 2541 0014 24       		.uleb128 0x24
 2542 0015 00       		.byte	0
 2543 0016 0B       		.uleb128 0xb
 2544 0017 0B       		.uleb128 0xb
 2545 0018 3E       		.uleb128 0x3e
 2546 0019 0B       		.uleb128 0xb
 2547 001a 03       		.uleb128 0x3
 2548 001b 0E       		.uleb128 0xe
 2549 001c 00       		.byte	0
 2550 001d 00       		.byte	0
 2551 001e 03       		.uleb128 0x3
 2552 001f 24       		.uleb128 0x24
 2553 0020 00       		.byte	0
 2554 0021 0B       		.uleb128 0xb
 2555 0022 0B       		.uleb128 0xb
 2556 0023 3E       		.uleb128 0x3e
 2557 0024 0B       		.uleb128 0xb
 2558 0025 03       		.uleb128 0x3
 2559 0026 08       		.uleb128 0x8
 2560 0027 00       		.byte	0
 2561 0028 00       		.byte	0
 2562 0029 04       		.uleb128 0x4
 2563 002a 16       		.uleb128 0x16
 2564 002b 00       		.byte	0
 2565 002c 03       		.uleb128 0x3
 2566 002d 0E       		.uleb128 0xe
 2567 002e 3A       		.uleb128 0x3a
 2568 002f 0B       		.uleb128 0xb
 2569 0030 3B       		.uleb128 0x3b
 2570 0031 05       		.uleb128 0x5
 2571 0032 49       		.uleb128 0x49
 2572 0033 13       		.uleb128 0x13
 2573 0034 00       		.byte	0
 2574 0035 00       		.byte	0
 2575 0036 05       		.uleb128 0x5
 2576 0037 35       		.uleb128 0x35
 2577 0038 00       		.byte	0
 2578 0039 49       		.uleb128 0x49
 2579 003a 13       		.uleb128 0x13
 2580 003b 00       		.byte	0
 2581 003c 00       		.byte	0
 2582 003d 06       		.uleb128 0x6
 2583 003e 0F       		.uleb128 0xf
 2584 003f 00       		.byte	0
 2585 0040 0B       		.uleb128 0xb
 2586 0041 0B       		.uleb128 0xb
 2587 0042 00       		.byte	0
 2588 0043 00       		.byte	0
ARM GAS  C:\Users\tiantiaf\AppData\Local\Temp\cc2Xz98j.s 			page 83


 2589 0044 07       		.uleb128 0x7
 2590 0045 04       		.uleb128 0x4
 2591 0046 01       		.byte	0x1
 2592 0047 0B       		.uleb128 0xb
 2593 0048 0B       		.uleb128 0xb
 2594 0049 3A       		.uleb128 0x3a
 2595 004a 0B       		.uleb128 0xb
 2596 004b 3B       		.uleb128 0x3b
 2597 004c 05       		.uleb128 0x5
 2598 004d 01       		.uleb128 0x1
 2599 004e 13       		.uleb128 0x13
 2600 004f 00       		.byte	0
 2601 0050 00       		.byte	0
 2602 0051 08       		.uleb128 0x8
 2603 0052 28       		.uleb128 0x28
 2604 0053 00       		.byte	0
 2605 0054 03       		.uleb128 0x3
 2606 0055 0E       		.uleb128 0xe
 2607 0056 1C       		.uleb128 0x1c
 2608 0057 0D       		.uleb128 0xd
 2609 0058 00       		.byte	0
 2610 0059 00       		.byte	0
 2611 005a 09       		.uleb128 0x9
 2612 005b 13       		.uleb128 0x13
 2613 005c 01       		.byte	0x1
 2614 005d 0B       		.uleb128 0xb
 2615 005e 0B       		.uleb128 0xb
 2616 005f 3A       		.uleb128 0x3a
 2617 0060 0B       		.uleb128 0xb
 2618 0061 3B       		.uleb128 0x3b
 2619 0062 05       		.uleb128 0x5
 2620 0063 01       		.uleb128 0x1
 2621 0064 13       		.uleb128 0x13
 2622 0065 00       		.byte	0
 2623 0066 00       		.byte	0
 2624 0067 0A       		.uleb128 0xa
 2625 0068 0D       		.uleb128 0xd
 2626 0069 00       		.byte	0
 2627 006a 03       		.uleb128 0x3
 2628 006b 0E       		.uleb128 0xe
 2629 006c 3A       		.uleb128 0x3a
 2630 006d 0B       		.uleb128 0xb
 2631 006e 3B       		.uleb128 0x3b
 2632 006f 05       		.uleb128 0x5
 2633 0070 49       		.uleb128 0x49
 2634 0071 13       		.uleb128 0x13
 2635 0072 38       		.uleb128 0x38
 2636 0073 0B       		.uleb128 0xb
 2637 0074 00       		.byte	0
 2638 0075 00       		.byte	0
 2639 0076 0B       		.uleb128 0xb
 2640 0077 01       		.uleb128 0x1
 2641 0078 01       		.byte	0x1
 2642 0079 49       		.uleb128 0x49
 2643 007a 13       		.uleb128 0x13
 2644 007b 01       		.uleb128 0x1
 2645 007c 13       		.uleb128 0x13
ARM GAS  C:\Users\tiantiaf\AppData\Local\Temp\cc2Xz98j.s 			page 84


 2646 007d 00       		.byte	0
 2647 007e 00       		.byte	0
 2648 007f 0C       		.uleb128 0xc
 2649 0080 21       		.uleb128 0x21
 2650 0081 00       		.byte	0
 2651 0082 49       		.uleb128 0x49
 2652 0083 13       		.uleb128 0x13
 2653 0084 2F       		.uleb128 0x2f
 2654 0085 0B       		.uleb128 0xb
 2655 0086 00       		.byte	0
 2656 0087 00       		.byte	0
 2657 0088 0D       		.uleb128 0xd
 2658 0089 04       		.uleb128 0x4
 2659 008a 01       		.byte	0x1
 2660 008b 0B       		.uleb128 0xb
 2661 008c 0B       		.uleb128 0xb
 2662 008d 3A       		.uleb128 0x3a
 2663 008e 0B       		.uleb128 0xb
 2664 008f 3B       		.uleb128 0x3b
 2665 0090 0B       		.uleb128 0xb
 2666 0091 01       		.uleb128 0x1
 2667 0092 13       		.uleb128 0x13
 2668 0093 00       		.byte	0
 2669 0094 00       		.byte	0
 2670 0095 0E       		.uleb128 0xe
 2671 0096 16       		.uleb128 0x16
 2672 0097 00       		.byte	0
 2673 0098 03       		.uleb128 0x3
 2674 0099 0E       		.uleb128 0xe
 2675 009a 3A       		.uleb128 0x3a
 2676 009b 0B       		.uleb128 0xb
 2677 009c 3B       		.uleb128 0x3b
 2678 009d 0B       		.uleb128 0xb
 2679 009e 49       		.uleb128 0x49
 2680 009f 13       		.uleb128 0x13
 2681 00a0 00       		.byte	0
 2682 00a1 00       		.byte	0
 2683 00a2 0F       		.uleb128 0xf
 2684 00a3 0F       		.uleb128 0xf
 2685 00a4 00       		.byte	0
 2686 00a5 0B       		.uleb128 0xb
 2687 00a6 0B       		.uleb128 0xb
 2688 00a7 49       		.uleb128 0x49
 2689 00a8 13       		.uleb128 0x13
 2690 00a9 00       		.byte	0
 2691 00aa 00       		.byte	0
 2692 00ab 10       		.uleb128 0x10
 2693 00ac 0D       		.uleb128 0xd
 2694 00ad 00       		.byte	0
 2695 00ae 03       		.uleb128 0x3
 2696 00af 08       		.uleb128 0x8
 2697 00b0 3A       		.uleb128 0x3a
 2698 00b1 0B       		.uleb128 0xb
 2699 00b2 3B       		.uleb128 0x3b
 2700 00b3 05       		.uleb128 0x5
 2701 00b4 49       		.uleb128 0x49
 2702 00b5 13       		.uleb128 0x13
ARM GAS  C:\Users\tiantiaf\AppData\Local\Temp\cc2Xz98j.s 			page 85


 2703 00b6 38       		.uleb128 0x38
 2704 00b7 0B       		.uleb128 0xb
 2705 00b8 00       		.byte	0
 2706 00b9 00       		.byte	0
 2707 00ba 11       		.uleb128 0x11
 2708 00bb 13       		.uleb128 0x13
 2709 00bc 01       		.byte	0x1
 2710 00bd 0B       		.uleb128 0xb
 2711 00be 0B       		.uleb128 0xb
 2712 00bf 3A       		.uleb128 0x3a
 2713 00c0 0B       		.uleb128 0xb
 2714 00c1 3B       		.uleb128 0x3b
 2715 00c2 0B       		.uleb128 0xb
 2716 00c3 01       		.uleb128 0x1
 2717 00c4 13       		.uleb128 0x13
 2718 00c5 00       		.byte	0
 2719 00c6 00       		.byte	0
 2720 00c7 12       		.uleb128 0x12
 2721 00c8 0D       		.uleb128 0xd
 2722 00c9 00       		.byte	0
 2723 00ca 03       		.uleb128 0x3
 2724 00cb 0E       		.uleb128 0xe
 2725 00cc 3A       		.uleb128 0x3a
 2726 00cd 0B       		.uleb128 0xb
 2727 00ce 3B       		.uleb128 0x3b
 2728 00cf 0B       		.uleb128 0xb
 2729 00d0 49       		.uleb128 0x49
 2730 00d1 13       		.uleb128 0x13
 2731 00d2 38       		.uleb128 0x38
 2732 00d3 0B       		.uleb128 0xb
 2733 00d4 00       		.byte	0
 2734 00d5 00       		.byte	0
 2735 00d6 13       		.uleb128 0x13
 2736 00d7 15       		.uleb128 0x15
 2737 00d8 01       		.byte	0x1
 2738 00d9 27       		.uleb128 0x27
 2739 00da 19       		.uleb128 0x19
 2740 00db 01       		.uleb128 0x1
 2741 00dc 13       		.uleb128 0x13
 2742 00dd 00       		.byte	0
 2743 00de 00       		.byte	0
 2744 00df 14       		.uleb128 0x14
 2745 00e0 05       		.uleb128 0x5
 2746 00e1 00       		.byte	0
 2747 00e2 49       		.uleb128 0x49
 2748 00e3 13       		.uleb128 0x13
 2749 00e4 00       		.byte	0
 2750 00e5 00       		.byte	0
 2751 00e6 15       		.uleb128 0x15
 2752 00e7 2E       		.uleb128 0x2e
 2753 00e8 00       		.byte	0
 2754 00e9 03       		.uleb128 0x3
 2755 00ea 0E       		.uleb128 0xe
 2756 00eb 3A       		.uleb128 0x3a
 2757 00ec 0B       		.uleb128 0xb
 2758 00ed 3B       		.uleb128 0x3b
 2759 00ee 05       		.uleb128 0x5
ARM GAS  C:\Users\tiantiaf\AppData\Local\Temp\cc2Xz98j.s 			page 86


 2760 00ef 27       		.uleb128 0x27
 2761 00f0 19       		.uleb128 0x19
 2762 00f1 11       		.uleb128 0x11
 2763 00f2 01       		.uleb128 0x1
 2764 00f3 12       		.uleb128 0x12
 2765 00f4 06       		.uleb128 0x6
 2766 00f5 40       		.uleb128 0x40
 2767 00f6 18       		.uleb128 0x18
 2768 00f7 9742     		.uleb128 0x2117
 2769 00f9 19       		.uleb128 0x19
 2770 00fa 00       		.byte	0
 2771 00fb 00       		.byte	0
 2772 00fc 16       		.uleb128 0x16
 2773 00fd 2E       		.uleb128 0x2e
 2774 00fe 01       		.byte	0x1
 2775 00ff 03       		.uleb128 0x3
 2776 0100 0E       		.uleb128 0xe
 2777 0101 3A       		.uleb128 0x3a
 2778 0102 0B       		.uleb128 0xb
 2779 0103 3B       		.uleb128 0x3b
 2780 0104 0B       		.uleb128 0xb
 2781 0105 27       		.uleb128 0x27
 2782 0106 19       		.uleb128 0x19
 2783 0107 11       		.uleb128 0x11
 2784 0108 01       		.uleb128 0x1
 2785 0109 12       		.uleb128 0x12
 2786 010a 06       		.uleb128 0x6
 2787 010b 40       		.uleb128 0x40
 2788 010c 18       		.uleb128 0x18
 2789 010d 9742     		.uleb128 0x2117
 2790 010f 19       		.uleb128 0x19
 2791 0110 01       		.uleb128 0x1
 2792 0111 13       		.uleb128 0x13
 2793 0112 00       		.byte	0
 2794 0113 00       		.byte	0
 2795 0114 17       		.uleb128 0x17
 2796 0115 05       		.uleb128 0x5
 2797 0116 00       		.byte	0
 2798 0117 03       		.uleb128 0x3
 2799 0118 0E       		.uleb128 0xe
 2800 0119 3A       		.uleb128 0x3a
 2801 011a 0B       		.uleb128 0xb
 2802 011b 3B       		.uleb128 0x3b
 2803 011c 0B       		.uleb128 0xb
 2804 011d 49       		.uleb128 0x49
 2805 011e 13       		.uleb128 0x13
 2806 011f 02       		.uleb128 0x2
 2807 0120 17       		.uleb128 0x17
 2808 0121 00       		.byte	0
 2809 0122 00       		.byte	0
 2810 0123 18       		.uleb128 0x18
 2811 0124 34       		.uleb128 0x34
 2812 0125 00       		.byte	0
 2813 0126 03       		.uleb128 0x3
 2814 0127 0E       		.uleb128 0xe
 2815 0128 3A       		.uleb128 0x3a
 2816 0129 0B       		.uleb128 0xb
ARM GAS  C:\Users\tiantiaf\AppData\Local\Temp\cc2Xz98j.s 			page 87


 2817 012a 3B       		.uleb128 0x3b
 2818 012b 0B       		.uleb128 0xb
 2819 012c 49       		.uleb128 0x49
 2820 012d 13       		.uleb128 0x13
 2821 012e 02       		.uleb128 0x2
 2822 012f 17       		.uleb128 0x17
 2823 0130 00       		.byte	0
 2824 0131 00       		.byte	0
 2825 0132 19       		.uleb128 0x19
 2826 0133 0B       		.uleb128 0xb
 2827 0134 01       		.byte	0x1
 2828 0135 11       		.uleb128 0x11
 2829 0136 01       		.uleb128 0x1
 2830 0137 12       		.uleb128 0x12
 2831 0138 06       		.uleb128 0x6
 2832 0139 01       		.uleb128 0x1
 2833 013a 13       		.uleb128 0x13
 2834 013b 00       		.byte	0
 2835 013c 00       		.byte	0
 2836 013d 1A       		.uleb128 0x1a
 2837 013e 34       		.uleb128 0x34
 2838 013f 00       		.byte	0
 2839 0140 03       		.uleb128 0x3
 2840 0141 0E       		.uleb128 0xe
 2841 0142 3A       		.uleb128 0x3a
 2842 0143 0B       		.uleb128 0xb
 2843 0144 3B       		.uleb128 0x3b
 2844 0145 05       		.uleb128 0x5
 2845 0146 49       		.uleb128 0x49
 2846 0147 13       		.uleb128 0x13
 2847 0148 02       		.uleb128 0x2
 2848 0149 18       		.uleb128 0x18
 2849 014a 00       		.byte	0
 2850 014b 00       		.byte	0
 2851 014c 1B       		.uleb128 0x1b
 2852 014d 898201   		.uleb128 0x4109
 2853 0150 01       		.byte	0x1
 2854 0151 11       		.uleb128 0x11
 2855 0152 01       		.uleb128 0x1
 2856 0153 31       		.uleb128 0x31
 2857 0154 13       		.uleb128 0x13
 2858 0155 00       		.byte	0
 2859 0156 00       		.byte	0
 2860 0157 1C       		.uleb128 0x1c
 2861 0158 8A8201   		.uleb128 0x410a
 2862 015b 00       		.byte	0
 2863 015c 02       		.uleb128 0x2
 2864 015d 18       		.uleb128 0x18
 2865 015e 9142     		.uleb128 0x2111
 2866 0160 18       		.uleb128 0x18
 2867 0161 00       		.byte	0
 2868 0162 00       		.byte	0
 2869 0163 1D       		.uleb128 0x1d
 2870 0164 898201   		.uleb128 0x4109
 2871 0167 01       		.byte	0x1
 2872 0168 11       		.uleb128 0x11
 2873 0169 01       		.uleb128 0x1
ARM GAS  C:\Users\tiantiaf\AppData\Local\Temp\cc2Xz98j.s 			page 88


 2874 016a 31       		.uleb128 0x31
 2875 016b 13       		.uleb128 0x13
 2876 016c 01       		.uleb128 0x1
 2877 016d 13       		.uleb128 0x13
 2878 016e 00       		.byte	0
 2879 016f 00       		.byte	0
 2880 0170 1E       		.uleb128 0x1e
 2881 0171 898201   		.uleb128 0x4109
 2882 0174 00       		.byte	0
 2883 0175 11       		.uleb128 0x11
 2884 0176 01       		.uleb128 0x1
 2885 0177 31       		.uleb128 0x31
 2886 0178 13       		.uleb128 0x13
 2887 0179 00       		.byte	0
 2888 017a 00       		.byte	0
 2889 017b 1F       		.uleb128 0x1f
 2890 017c 2E       		.uleb128 0x2e
 2891 017d 01       		.byte	0x1
 2892 017e 3F       		.uleb128 0x3f
 2893 017f 19       		.uleb128 0x19
 2894 0180 03       		.uleb128 0x3
 2895 0181 0E       		.uleb128 0xe
 2896 0182 3A       		.uleb128 0x3a
 2897 0183 0B       		.uleb128 0xb
 2898 0184 3B       		.uleb128 0x3b
 2899 0185 05       		.uleb128 0x5
 2900 0186 27       		.uleb128 0x27
 2901 0187 19       		.uleb128 0x19
 2902 0188 49       		.uleb128 0x49
 2903 0189 13       		.uleb128 0x13
 2904 018a 11       		.uleb128 0x11
 2905 018b 01       		.uleb128 0x1
 2906 018c 12       		.uleb128 0x12
 2907 018d 06       		.uleb128 0x6
 2908 018e 40       		.uleb128 0x40
 2909 018f 18       		.uleb128 0x18
 2910 0190 9742     		.uleb128 0x2117
 2911 0192 19       		.uleb128 0x19
 2912 0193 01       		.uleb128 0x1
 2913 0194 13       		.uleb128 0x13
 2914 0195 00       		.byte	0
 2915 0196 00       		.byte	0
 2916 0197 20       		.uleb128 0x20
 2917 0198 05       		.uleb128 0x5
 2918 0199 00       		.byte	0
 2919 019a 03       		.uleb128 0x3
 2920 019b 0E       		.uleb128 0xe
 2921 019c 3A       		.uleb128 0x3a
 2922 019d 0B       		.uleb128 0xb
 2923 019e 3B       		.uleb128 0x3b
 2924 019f 05       		.uleb128 0x5
 2925 01a0 49       		.uleb128 0x49
 2926 01a1 13       		.uleb128 0x13
 2927 01a2 02       		.uleb128 0x2
 2928 01a3 17       		.uleb128 0x17
 2929 01a4 00       		.byte	0
 2930 01a5 00       		.byte	0
ARM GAS  C:\Users\tiantiaf\AppData\Local\Temp\cc2Xz98j.s 			page 89


 2931 01a6 21       		.uleb128 0x21
 2932 01a7 34       		.uleb128 0x34
 2933 01a8 00       		.byte	0
 2934 01a9 03       		.uleb128 0x3
 2935 01aa 08       		.uleb128 0x8
 2936 01ab 3A       		.uleb128 0x3a
 2937 01ac 0B       		.uleb128 0xb
 2938 01ad 3B       		.uleb128 0x3b
 2939 01ae 05       		.uleb128 0x5
 2940 01af 49       		.uleb128 0x49
 2941 01b0 13       		.uleb128 0x13
 2942 01b1 02       		.uleb128 0x2
 2943 01b2 17       		.uleb128 0x17
 2944 01b3 00       		.byte	0
 2945 01b4 00       		.byte	0
 2946 01b5 22       		.uleb128 0x22
 2947 01b6 34       		.uleb128 0x34
 2948 01b7 00       		.byte	0
 2949 01b8 03       		.uleb128 0x3
 2950 01b9 0E       		.uleb128 0xe
 2951 01ba 3A       		.uleb128 0x3a
 2952 01bb 0B       		.uleb128 0xb
 2953 01bc 3B       		.uleb128 0x3b
 2954 01bd 05       		.uleb128 0x5
 2955 01be 49       		.uleb128 0x49
 2956 01bf 13       		.uleb128 0x13
 2957 01c0 02       		.uleb128 0x2
 2958 01c1 17       		.uleb128 0x17
 2959 01c2 00       		.byte	0
 2960 01c3 00       		.byte	0
 2961 01c4 23       		.uleb128 0x23
 2962 01c5 26       		.uleb128 0x26
 2963 01c6 00       		.byte	0
 2964 01c7 49       		.uleb128 0x49
 2965 01c8 13       		.uleb128 0x13
 2966 01c9 00       		.byte	0
 2967 01ca 00       		.byte	0
 2968 01cb 24       		.uleb128 0x24
 2969 01cc 2E       		.uleb128 0x2e
 2970 01cd 01       		.byte	0x1
 2971 01ce 3F       		.uleb128 0x3f
 2972 01cf 19       		.uleb128 0x19
 2973 01d0 03       		.uleb128 0x3
 2974 01d1 0E       		.uleb128 0xe
 2975 01d2 3A       		.uleb128 0x3a
 2976 01d3 0B       		.uleb128 0xb
 2977 01d4 3B       		.uleb128 0x3b
 2978 01d5 05       		.uleb128 0x5
 2979 01d6 27       		.uleb128 0x27
 2980 01d7 19       		.uleb128 0x19
 2981 01d8 11       		.uleb128 0x11
 2982 01d9 01       		.uleb128 0x1
 2983 01da 12       		.uleb128 0x12
 2984 01db 06       		.uleb128 0x6
 2985 01dc 40       		.uleb128 0x40
 2986 01dd 18       		.uleb128 0x18
 2987 01de 9742     		.uleb128 0x2117
ARM GAS  C:\Users\tiantiaf\AppData\Local\Temp\cc2Xz98j.s 			page 90


 2988 01e0 19       		.uleb128 0x19
 2989 01e1 01       		.uleb128 0x1
 2990 01e2 13       		.uleb128 0x13
 2991 01e3 00       		.byte	0
 2992 01e4 00       		.byte	0
 2993 01e5 25       		.uleb128 0x25
 2994 01e6 0B       		.uleb128 0xb
 2995 01e7 01       		.byte	0x1
 2996 01e8 11       		.uleb128 0x11
 2997 01e9 01       		.uleb128 0x1
 2998 01ea 12       		.uleb128 0x12
 2999 01eb 06       		.uleb128 0x6
 3000 01ec 00       		.byte	0
 3001 01ed 00       		.byte	0
 3002 01ee 26       		.uleb128 0x26
 3003 01ef 898201   		.uleb128 0x4109
 3004 01f2 01       		.byte	0x1
 3005 01f3 11       		.uleb128 0x11
 3006 01f4 01       		.uleb128 0x1
 3007 01f5 00       		.byte	0
 3008 01f6 00       		.byte	0
 3009 01f7 27       		.uleb128 0x27
 3010 01f8 34       		.uleb128 0x34
 3011 01f9 00       		.byte	0
 3012 01fa 03       		.uleb128 0x3
 3013 01fb 0E       		.uleb128 0xe
 3014 01fc 3A       		.uleb128 0x3a
 3015 01fd 0B       		.uleb128 0xb
 3016 01fe 3B       		.uleb128 0x3b
 3017 01ff 05       		.uleb128 0x5
 3018 0200 49       		.uleb128 0x49
 3019 0201 13       		.uleb128 0x13
 3020 0202 3F       		.uleb128 0x3f
 3021 0203 19       		.uleb128 0x19
 3022 0204 3C       		.uleb128 0x3c
 3023 0205 19       		.uleb128 0x19
 3024 0206 00       		.byte	0
 3025 0207 00       		.byte	0
 3026 0208 28       		.uleb128 0x28
 3027 0209 21       		.uleb128 0x21
 3028 020a 00       		.byte	0
 3029 020b 49       		.uleb128 0x49
 3030 020c 13       		.uleb128 0x13
 3031 020d 2F       		.uleb128 0x2f
 3032 020e 05       		.uleb128 0x5
 3033 020f 00       		.byte	0
 3034 0210 00       		.byte	0
 3035 0211 29       		.uleb128 0x29
 3036 0212 34       		.uleb128 0x34
 3037 0213 00       		.byte	0
 3038 0214 03       		.uleb128 0x3
 3039 0215 0E       		.uleb128 0xe
 3040 0216 3A       		.uleb128 0x3a
 3041 0217 0B       		.uleb128 0xb
 3042 0218 3B       		.uleb128 0x3b
 3043 0219 0B       		.uleb128 0xb
 3044 021a 49       		.uleb128 0x49
ARM GAS  C:\Users\tiantiaf\AppData\Local\Temp\cc2Xz98j.s 			page 91


 3045 021b 13       		.uleb128 0x13
 3046 021c 3F       		.uleb128 0x3f
 3047 021d 19       		.uleb128 0x19
 3048 021e 02       		.uleb128 0x2
 3049 021f 18       		.uleb128 0x18
 3050 0220 00       		.byte	0
 3051 0221 00       		.byte	0
 3052 0222 2A       		.uleb128 0x2a
 3053 0223 2E       		.uleb128 0x2e
 3054 0224 01       		.byte	0x1
 3055 0225 3F       		.uleb128 0x3f
 3056 0226 19       		.uleb128 0x19
 3057 0227 03       		.uleb128 0x3
 3058 0228 0E       		.uleb128 0xe
 3059 0229 3A       		.uleb128 0x3a
 3060 022a 0B       		.uleb128 0xb
 3061 022b 3B       		.uleb128 0x3b
 3062 022c 05       		.uleb128 0x5
 3063 022d 27       		.uleb128 0x27
 3064 022e 19       		.uleb128 0x19
 3065 022f 49       		.uleb128 0x49
 3066 0230 13       		.uleb128 0x13
 3067 0231 3C       		.uleb128 0x3c
 3068 0232 19       		.uleb128 0x19
 3069 0233 01       		.uleb128 0x1
 3070 0234 13       		.uleb128 0x13
 3071 0235 00       		.byte	0
 3072 0236 00       		.byte	0
 3073 0237 2B       		.uleb128 0x2b
 3074 0238 2E       		.uleb128 0x2e
 3075 0239 01       		.byte	0x1
 3076 023a 3F       		.uleb128 0x3f
 3077 023b 19       		.uleb128 0x19
 3078 023c 03       		.uleb128 0x3
 3079 023d 0E       		.uleb128 0xe
 3080 023e 3A       		.uleb128 0x3a
 3081 023f 0B       		.uleb128 0xb
 3082 0240 3B       		.uleb128 0x3b
 3083 0241 0B       		.uleb128 0xb
 3084 0242 27       		.uleb128 0x27
 3085 0243 19       		.uleb128 0x19
 3086 0244 49       		.uleb128 0x49
 3087 0245 13       		.uleb128 0x13
 3088 0246 3C       		.uleb128 0x3c
 3089 0247 19       		.uleb128 0x19
 3090 0248 01       		.uleb128 0x1
 3091 0249 13       		.uleb128 0x13
 3092 024a 00       		.byte	0
 3093 024b 00       		.byte	0
 3094 024c 2C       		.uleb128 0x2c
 3095 024d 2E       		.uleb128 0x2e
 3096 024e 01       		.byte	0x1
 3097 024f 3F       		.uleb128 0x3f
 3098 0250 19       		.uleb128 0x19
 3099 0251 03       		.uleb128 0x3
 3100 0252 0E       		.uleb128 0xe
 3101 0253 3A       		.uleb128 0x3a
ARM GAS  C:\Users\tiantiaf\AppData\Local\Temp\cc2Xz98j.s 			page 92


 3102 0254 0B       		.uleb128 0xb
 3103 0255 3B       		.uleb128 0x3b
 3104 0256 05       		.uleb128 0x5
 3105 0257 27       		.uleb128 0x27
 3106 0258 19       		.uleb128 0x19
 3107 0259 3C       		.uleb128 0x3c
 3108 025a 19       		.uleb128 0x19
 3109 025b 01       		.uleb128 0x1
 3110 025c 13       		.uleb128 0x13
 3111 025d 00       		.byte	0
 3112 025e 00       		.byte	0
 3113 025f 2D       		.uleb128 0x2d
 3114 0260 2E       		.uleb128 0x2e
 3115 0261 01       		.byte	0x1
 3116 0262 3F       		.uleb128 0x3f
 3117 0263 19       		.uleb128 0x19
 3118 0264 03       		.uleb128 0x3
 3119 0265 0E       		.uleb128 0xe
 3120 0266 27       		.uleb128 0x27
 3121 0267 19       		.uleb128 0x19
 3122 0268 49       		.uleb128 0x49
 3123 0269 13       		.uleb128 0x13
 3124 026a 34       		.uleb128 0x34
 3125 026b 19       		.uleb128 0x19
 3126 026c 3C       		.uleb128 0x3c
 3127 026d 19       		.uleb128 0x19
 3128 026e 01       		.uleb128 0x1
 3129 026f 13       		.uleb128 0x13
 3130 0270 00       		.byte	0
 3131 0271 00       		.byte	0
 3132 0272 2E       		.uleb128 0x2e
 3133 0273 26       		.uleb128 0x26
 3134 0274 00       		.byte	0
 3135 0275 00       		.byte	0
 3136 0276 00       		.byte	0
 3137 0277 00       		.byte	0
 3138              		.section	.debug_loc,"",%progbits
 3139              	.Ldebug_loc0:
 3140              	.LLST0:
 3141 0000 00000000 		.4byte	.LVL0
 3142 0004 09000000 		.4byte	.LVL1-1
 3143 0008 0100     		.2byte	0x1
 3144 000a 50       		.byte	0x50
 3145 000b 09000000 		.4byte	.LVL1-1
 3146 000f 32000000 		.4byte	.LVL7
 3147 0013 0100     		.2byte	0x1
 3148 0015 54       		.byte	0x54
 3149 0016 32000000 		.4byte	.LVL7
 3150 001a 38000000 		.4byte	.LFE2
 3151 001e 0400     		.2byte	0x4
 3152 0020 F3       		.byte	0xf3
 3153 0021 01       		.uleb128 0x1
 3154 0022 50       		.byte	0x50
 3155 0023 9F       		.byte	0x9f
 3156 0024 00000000 		.4byte	0
 3157 0028 00000000 		.4byte	0
 3158              	.LLST1:
ARM GAS  C:\Users\tiantiaf\AppData\Local\Temp\cc2Xz98j.s 			page 93


 3159 002c 0A000000 		.4byte	.LVL1
 3160 0030 24000000 		.4byte	.LVL2
 3161 0034 0100     		.2byte	0x1
 3162 0036 50       		.byte	0x50
 3163 0037 24000000 		.4byte	.LVL2
 3164 003b 27000000 		.4byte	.LVL3-1
 3165 003f 0200     		.2byte	0x2
 3166 0041 71       		.byte	0x71
 3167 0042 03       		.sleb128 3
 3168 0043 2A000000 		.4byte	.LVL4
 3169 0047 2C000000 		.4byte	.LVL5
 3170 004b 0100     		.2byte	0x1
 3171 004d 50       		.byte	0x50
 3172 004e 00000000 		.4byte	0
 3173 0052 00000000 		.4byte	0
 3174              	.LLST2:
 3175 0056 00000000 		.4byte	.LVL8
 3176 005a 08000000 		.4byte	.LVL9
 3177 005e 0100     		.2byte	0x1
 3178 0060 50       		.byte	0x50
 3179 0061 08000000 		.4byte	.LVL9
 3180 0065 0A000000 		.4byte	.LVL10
 3181 0069 0400     		.2byte	0x4
 3182 006b F3       		.byte	0xf3
 3183 006c 01       		.uleb128 0x1
 3184 006d 50       		.byte	0x50
 3185 006e 9F       		.byte	0x9f
 3186 006f 0A000000 		.4byte	.LVL10
 3187 0073 1E000000 		.4byte	.LVL15
 3188 0077 0100     		.2byte	0x1
 3189 0079 50       		.byte	0x50
 3190 007a 1E000000 		.4byte	.LVL15
 3191 007e 20000000 		.4byte	.LVL16
 3192 0082 0400     		.2byte	0x4
 3193 0084 F3       		.byte	0xf3
 3194 0085 01       		.uleb128 0x1
 3195 0086 50       		.byte	0x50
 3196 0087 9F       		.byte	0x9f
 3197 0088 20000000 		.4byte	.LVL16
 3198 008c 22000000 		.4byte	.LVL17
 3199 0090 0100     		.2byte	0x1
 3200 0092 50       		.byte	0x50
 3201 0093 22000000 		.4byte	.LVL17
 3202 0097 24000000 		.4byte	.LFE7
 3203 009b 0400     		.2byte	0x4
 3204 009d F3       		.byte	0xf3
 3205 009e 01       		.uleb128 0x1
 3206 009f 50       		.byte	0x50
 3207 00a0 9F       		.byte	0x9f
 3208 00a1 00000000 		.4byte	0
 3209 00a5 00000000 		.4byte	0
 3210              	.LLST3:
 3211 00a9 0A000000 		.4byte	.LVL10
 3212 00ad 12000000 		.4byte	.LVL11
 3213 00b1 0100     		.2byte	0x1
 3214 00b3 53       		.byte	0x53
 3215 00b4 14000000 		.4byte	.LVL12
ARM GAS  C:\Users\tiantiaf\AppData\Local\Temp\cc2Xz98j.s 			page 94


 3216 00b8 16000000 		.4byte	.LVL13
 3217 00bc 0100     		.2byte	0x1
 3218 00be 53       		.byte	0x53
 3219 00bf 18000000 		.4byte	.LVL14
 3220 00c3 22000000 		.4byte	.LVL17
 3221 00c7 0100     		.2byte	0x1
 3222 00c9 53       		.byte	0x53
 3223 00ca 00000000 		.4byte	0
 3224 00ce 00000000 		.4byte	0
 3225              	.LLST4:
 3226 00d2 00000000 		.4byte	.LVL8
 3227 00d6 22000000 		.4byte	.LVL17
 3228 00da 0200     		.2byte	0x2
 3229 00dc 30       		.byte	0x30
 3230 00dd 9F       		.byte	0x9f
 3231 00de 22000000 		.4byte	.LVL17
 3232 00e2 24000000 		.4byte	.LFE7
 3233 00e6 0100     		.2byte	0x1
 3234 00e8 50       		.byte	0x50
 3235 00e9 00000000 		.4byte	0
 3236 00ed 00000000 		.4byte	0
 3237              	.LLST5:
 3238 00f1 00000000 		.4byte	.LVL18
 3239 00f5 2C000000 		.4byte	.LVL20
 3240 00f9 0100     		.2byte	0x1
 3241 00fb 50       		.byte	0x50
 3242 00fc 2C000000 		.4byte	.LVL20
 3243 0100 CC000000 		.4byte	.LVL34
 3244 0104 0400     		.2byte	0x4
 3245 0106 F3       		.byte	0xf3
 3246 0107 01       		.uleb128 0x1
 3247 0108 50       		.byte	0x50
 3248 0109 9F       		.byte	0x9f
 3249 010a CC000000 		.4byte	.LVL34
 3250 010e 14010000 		.4byte	.LVL37
 3251 0112 0100     		.2byte	0x1
 3252 0114 50       		.byte	0x50
 3253 0115 14010000 		.4byte	.LVL37
 3254 0119 26010000 		.4byte	.LVL39
 3255 011d 0400     		.2byte	0x4
 3256 011f F3       		.byte	0xf3
 3257 0120 01       		.uleb128 0x1
 3258 0121 50       		.byte	0x50
 3259 0122 9F       		.byte	0x9f
 3260 0123 26010000 		.4byte	.LVL39
 3261 0127 8E010000 		.4byte	.LVL40
 3262 012b 0100     		.2byte	0x1
 3263 012d 50       		.byte	0x50
 3264 012e 8E010000 		.4byte	.LVL40
 3265 0132 9E010000 		.4byte	.LVL42
 3266 0136 0400     		.2byte	0x4
 3267 0138 F3       		.byte	0xf3
 3268 0139 01       		.uleb128 0x1
 3269 013a 50       		.byte	0x50
 3270 013b 9F       		.byte	0x9f
 3271 013c 9E010000 		.4byte	.LVL42
 3272 0140 A0010000 		.4byte	.LVL43
ARM GAS  C:\Users\tiantiaf\AppData\Local\Temp\cc2Xz98j.s 			page 95


 3273 0144 0100     		.2byte	0x1
 3274 0146 50       		.byte	0x50
 3275 0147 A0010000 		.4byte	.LVL43
 3276 014b B0010000 		.4byte	.LVL45
 3277 014f 0400     		.2byte	0x4
 3278 0151 F3       		.byte	0xf3
 3279 0152 01       		.uleb128 0x1
 3280 0153 50       		.byte	0x50
 3281 0154 9F       		.byte	0x9f
 3282 0155 B0010000 		.4byte	.LVL45
 3283 0159 B3010000 		.4byte	.LVL46-1
 3284 015d 0100     		.2byte	0x1
 3285 015f 50       		.byte	0x50
 3286 0160 B3010000 		.4byte	.LVL46-1
 3287 0164 B6010000 		.4byte	.LVL47
 3288 0168 0400     		.2byte	0x4
 3289 016a F3       		.byte	0xf3
 3290 016b 01       		.uleb128 0x1
 3291 016c 50       		.byte	0x50
 3292 016d 9F       		.byte	0x9f
 3293 016e B6010000 		.4byte	.LVL47
 3294 0172 C0010000 		.4byte	.LVL49
 3295 0176 0100     		.2byte	0x1
 3296 0178 50       		.byte	0x50
 3297 0179 C0010000 		.4byte	.LVL49
 3298 017d C6010000 		.4byte	.LVL51
 3299 0181 0400     		.2byte	0x4
 3300 0183 F3       		.byte	0xf3
 3301 0184 01       		.uleb128 0x1
 3302 0185 50       		.byte	0x50
 3303 0186 9F       		.byte	0x9f
 3304 0187 C6010000 		.4byte	.LVL51
 3305 018b C8010000 		.4byte	.LVL52
 3306 018f 0100     		.2byte	0x1
 3307 0191 50       		.byte	0x50
 3308 0192 C8010000 		.4byte	.LVL52
 3309 0196 30020000 		.4byte	.LFE10
 3310 019a 0400     		.2byte	0x4
 3311 019c F3       		.byte	0xf3
 3312 019d 01       		.uleb128 0x1
 3313 019e 50       		.byte	0x50
 3314 019f 9F       		.byte	0x9f
 3315 01a0 00000000 		.4byte	0
 3316 01a4 00000000 		.4byte	0
 3317              	.LLST6:
 3318 01a8 00000000 		.4byte	.LVL18
 3319 01ac 0C000000 		.4byte	.LVL19
 3320 01b0 0100     		.2byte	0x1
 3321 01b2 51       		.byte	0x51
 3322 01b3 0C000000 		.4byte	.LVL19
 3323 01b7 EC010000 		.4byte	.LVL55
 3324 01bb 0100     		.2byte	0x1
 3325 01bd 54       		.byte	0x54
 3326 01be EC010000 		.4byte	.LVL55
 3327 01c2 30020000 		.4byte	.LFE10
 3328 01c6 0400     		.2byte	0x4
 3329 01c8 F3       		.byte	0xf3
ARM GAS  C:\Users\tiantiaf\AppData\Local\Temp\cc2Xz98j.s 			page 96


 3330 01c9 01       		.uleb128 0x1
 3331 01ca 51       		.byte	0x51
 3332 01cb 9F       		.byte	0x9f
 3333 01cc 00000000 		.4byte	0
 3334 01d0 00000000 		.4byte	0
 3335              	.LLST7:
 3336 01d4 8E000000 		.4byte	.LVL27
 3337 01d8 98000000 		.4byte	.LVL28
 3338 01dc 0100     		.2byte	0x1
 3339 01de 53       		.byte	0x53
 3340 01df 00000000 		.4byte	0
 3341 01e3 00000000 		.4byte	0
 3342              	.LLST8:
 3343 01e7 D4000000 		.4byte	.LVL35
 3344 01eb FA000000 		.4byte	.LVL36
 3345 01ef 0100     		.2byte	0x1
 3346 01f1 54       		.byte	0x54
 3347 01f2 00000000 		.4byte	0
 3348 01f6 00000000 		.4byte	0
 3349              	.LLST9:
 3350 01fa BE010000 		.4byte	.LVL48
 3351 01fe C3010000 		.4byte	.LVL50-1
 3352 0202 0100     		.2byte	0x1
 3353 0204 51       		.byte	0x51
 3354 0205 00000000 		.4byte	0
 3355 0209 00000000 		.4byte	0
 3356              		.section	.debug_aranges,"",%progbits
 3357 0000 34000000 		.4byte	0x34
 3358 0004 0200     		.2byte	0x2
 3359 0006 00000000 		.4byte	.Ldebug_info0
 3360 000a 04       		.byte	0x4
 3361 000b 00       		.byte	0
 3362 000c 0000     		.2byte	0
 3363 000e 0000     		.2byte	0
 3364 0010 00000000 		.4byte	.LFB4
 3365 0014 10000000 		.4byte	.LFE4-.LFB4
 3366 0018 00000000 		.4byte	.LFB2
 3367 001c 38000000 		.4byte	.LFE2-.LFB2
 3368 0020 00000000 		.4byte	.LFB7
 3369 0024 24000000 		.4byte	.LFE7-.LFB7
 3370 0028 00000000 		.4byte	.LFB10
 3371 002c 30020000 		.4byte	.LFE10-.LFB10
 3372 0030 00000000 		.4byte	0
 3373 0034 00000000 		.4byte	0
 3374              		.section	.debug_ranges,"",%progbits
 3375              	.Ldebug_ranges0:
 3376 0000 00000000 		.4byte	.LFB4
 3377 0004 10000000 		.4byte	.LFE4
 3378 0008 00000000 		.4byte	.LFB2
 3379 000c 38000000 		.4byte	.LFE2
 3380 0010 00000000 		.4byte	.LFB7
 3381 0014 24000000 		.4byte	.LFE7
 3382 0018 00000000 		.4byte	.LFB10
 3383 001c 30020000 		.4byte	.LFE10
 3384 0020 00000000 		.4byte	0
 3385 0024 00000000 		.4byte	0
 3386              		.section	.debug_line,"",%progbits
ARM GAS  C:\Users\tiantiaf\AppData\Local\Temp\cc2Xz98j.s 			page 97


 3387              	.Ldebug_line0:
 3388 0000 D1010000 		.section	.debug_str,"MS",%progbits,1
 3388      02000401 
 3388      00000201 
 3388      FB0E0D00 
 3388      01010101 
 3389              	.LASF243:
 3390 0000 4359424C 		.ascii	"CYBLE_GATT_ERR_INVALID_CRC\000"
 3390      455F4741 
 3390      54545F45 
 3390      52525F49 
 3390      4E56414C 
 3391              	.LASF15:
 3392 001b 73697A65 		.ascii	"sizetype\000"
 3392      74797065 
 3392      00
 3393              	.LASF178:
 3394 0024 656B6579 		.ascii	"ekeySize\000"
 3394      53697A65 
 3394      00
 3395              	.LASF213:
 3396 002d 4359424C 		.ascii	"CYBLE_GATT_HANDLE_VALUE_CNF\000"
 3396      455F4741 
 3396      54545F48 
 3396      414E444C 
 3396      455F5641 
 3397              	.LASF310:
 3398 0049 4379426C 		.ascii	"CyBle_SetDeviceAddress\000"
 3398      655F5365 
 3398      74446576 
 3398      69636541 
 3398      64647265 
 3399              	.LASF36:
 3400 0060 4359424C 		.ascii	"CYBLE_EVT_GAP_NUMERIC_COMPARISON_REQUEST\000"
 3400      455F4556 
 3400      545F4741 
 3400      505F4E55 
 3400      4D455249 
 3401              	.LASF311:
 3402 0089 4379426C 		.ascii	"CyBle_GapSetIoCap\000"
 3402      655F4761 
 3402      70536574 
 3402      496F4361 
 3402      7000
 3403              	.LASF320:
 3404 009b 4379426C 		.ascii	"CyBle_WriteReqHandler\000"
 3404      655F5772 
 3404      69746552 
 3404      65714861 
 3404      6E646C65 
 3405              	.LASF135:
 3406 00b1 72657175 		.ascii	"request\000"
 3406      65737400 
 3407              	.LASF284:
 3408 00b9 6576656E 		.ascii	"eventParam\000"
 3408      74506172 
 3408      616D00
ARM GAS  C:\Users\tiantiaf\AppData\Local\Temp\cc2Xz98j.s 			page 98


 3409              	.LASF30:
 3410 00c4 4359424C 		.ascii	"CYBLE_EVT_GAP_DEVICE_CONNECTED\000"
 3410      455F4556 
 3410      545F4741 
 3410      505F4445 
 3410      56494345 
 3411              	.LASF155:
 3412 00e3 4359424C 		.ascii	"CYBLE_GAP_IOCAP_NOINPUT_NOOUTPUT\000"
 3412      455F4741 
 3412      505F494F 
 3412      4341505F 
 3412      4E4F494E 
 3413              	.LASF44:
 3414 0104 4359424C 		.ascii	"CYBLE_EVT_GATT_CONNECT_IND\000"
 3414      455F4556 
 3414      545F4741 
 3414      54545F43 
 3414      4F4E4E45 
 3415              	.LASF206:
 3416 011f 4359424C 		.ascii	"CYBLE_GATT_WRITE_CMD\000"
 3416      455F4741 
 3416      54545F57 
 3416      52495445 
 3416      5F434D44 
 3417              	.LASF11:
 3418 0134 75696E74 		.ascii	"uint32\000"
 3418      333200
 3419              	.LASF157:
 3420 013b 4359424C 		.ascii	"CYBLE_GAP_IOCAP_T\000"
 3420      455F4741 
 3420      505F494F 
 3420      4341505F 
 3420      5400
 3421              	.LASF129:
 3422 014d 626C6550 		.ascii	"blePwrLevelInDbm\000"
 3422      77724C65 
 3422      76656C49 
 3422      6E44626D 
 3422      00
 3423              	.LASF218:
 3424 015e 4359424C 		.ascii	"CYBLE_GATT_ERR_READ_NOT_PERMITTED\000"
 3424      455F4741 
 3424      54545F45 
 3424      52525F52 
 3424      4541445F 
 3425              	.LASF233:
 3426 0180 4359424C 		.ascii	"CYBLE_GATT_ERR_INSUFFICIENT_RESOURCE\000"
 3426      455F4741 
 3426      54545F45 
 3426      52525F49 
 3426      4E535546 
 3427              	.LASF207:
 3428 01a5 4359424C 		.ascii	"CYBLE_GATT_PREPARE_WRITE_REQ\000"
 3428      455F4741 
 3428      54545F50 
 3428      52455041 
 3428      52455F57 
ARM GAS  C:\Users\tiantiaf\AppData\Local\Temp\cc2Xz98j.s 			page 99


 3429              	.LASF232:
 3430 01c2 4359424C 		.ascii	"CYBLE_GATT_ERR_UNSUPPORTED_GROUP_TYPE\000"
 3430      455F4741 
 3430      54545F45 
 3430      52525F55 
 3430      4E535550 
 3431              	.LASF98:
 3432 01e8 4359424C 		.ascii	"CYBLE_ERROR_L2CAP_CONNECTION_ENTITY_NOT_FOUND\000"
 3432      455F4552 
 3432      524F525F 
 3432      4C324341 
 3432      505F434F 
 3433              	.LASF104:
 3434 0216 4359424C 		.ascii	"CYBLE_ERROR_MIC_AUTH_FAILED\000"
 3434      455F4552 
 3434      524F525F 
 3434      4D49435F 
 3434      41555448 
 3435              	.LASF64:
 3436 0232 4359424C 		.ascii	"CYBLE_EVT_GATTS_DATA_SIGNED_CMD_REQ\000"
 3436      455F4556 
 3436      545F4741 
 3436      5454535F 
 3436      44415441 
 3437              	.LASF76:
 3438 0256 4359424C 		.ascii	"CYBLE_EVT_L2CAP_CBFC_RX_CREDIT_IND\000"
 3438      455F4556 
 3438      545F4C32 
 3438      4341505F 
 3438      43424643 
 3439              	.LASF260:
 3440 0279 4359424C 		.ascii	"CYBLE_GATT_VALUE_T\000"
 3440      455F4741 
 3440      54545F56 
 3440      414C5545 
 3440      5F5400
 3441              	.LASF291:
 3442 028c 6D656D52 		.ascii	"memReq\000"
 3442      657100
 3443              	.LASF201:
 3444 0293 4359424C 		.ascii	"CYBLE_GATT_READ_MULTIPLE_RSP\000"
 3444      455F4741 
 3444      54545F52 
 3444      4541445F 
 3444      4D554C54 
 3445              	.LASF140:
 3446 02b0 74797065 		.ascii	"type\000"
 3446      00
 3447              	.LASF146:
 3448 02b5 4359424C 		.ascii	"CYBLE_TO_REASON_CODE_T\000"
 3448      455F544F 
 3448      5F524541 
 3448      534F4E5F 
 3448      434F4445 
 3449              	.LASF173:
 3450 02cc 4359424C 		.ascii	"CYBLE_GAP_AUTH_ERROR_AUTHENTICATION_TIMEOUT\000"
 3450      455F4741 
ARM GAS  C:\Users\tiantiaf\AppData\Local\Temp\cc2Xz98j.s 			page 100


 3450      505F4155 
 3450      54485F45 
 3450      52524F52 
 3451              	.LASF166:
 3452 02f8 4359424C 		.ascii	"CYBLE_GAP_AUTH_ERROR_UNSPECIFIED_REASON\000"
 3452      455F4741 
 3452      505F4155 
 3452      54485F45 
 3452      52524F52 
 3453              	.LASF195:
 3454 0320 4359424C 		.ascii	"CYBLE_GATT_READ_BY_TYPE_RSP\000"
 3454      455F4741 
 3454      54545F52 
 3454      4541445F 
 3454      42595F54 
 3455              	.LASF275:
 3456 033c 4359424C 		.ascii	"CYBLE_CALLBACK_T\000"
 3456      455F4341 
 3456      4C4C4241 
 3456      434B5F54 
 3456      00
 3457              	.LASF61:
 3458 034d 4359424C 		.ascii	"CYBLE_EVT_GATTC_HANDLE_VALUE_NTF\000"
 3458      455F4556 
 3458      545F4741 
 3458      5454435F 
 3458      48414E44 
 3459              	.LASF24:
 3460 036e 4359424C 		.ascii	"CYBLE_EVT_GAP_AUTH_REQ\000"
 3460      455F4556 
 3460      545F4741 
 3460      505F4155 
 3460      54485F52 
 3461              	.LASF258:
 3462 0385 4359424C 		.ascii	"CYBLE_CONN_HANDLE_T\000"
 3462      455F434F 
 3462      4E4E5F48 
 3462      414E444C 
 3462      455F5400 
 3463              	.LASF93:
 3464 0399 4359424C 		.ascii	"CYBLE_ERROR_BT_ON_NOT_COMPLETED\000"
 3464      455F4552 
 3464      524F525F 
 3464      42545F4F 
 3464      4E5F4E4F 
 3465              	.LASF152:
 3466 03b9 4359424C 		.ascii	"CYBLE_GAP_IOCAP_DISPLAY_ONLY\000"
 3466      455F4741 
 3466      505F494F 
 3466      4341505F 
 3466      44495350 
 3467              	.LASF118:
 3468 03d6 4359424C 		.ascii	"CYBLE_LL_PWR_LVL_NEG_3_DBM\000"
 3468      455F4C4C 
 3468      5F505752 
 3468      5F4C564C 
 3468      5F4E4547 
ARM GAS  C:\Users\tiantiaf\AppData\Local\Temp\cc2Xz98j.s 			page 101


 3469              	.LASF286:
 3470 03f1 61646472 		.ascii	"addressValid\000"
 3470      65737356 
 3470      616C6964 
 3470      00
 3471              	.LASF279:
 3472 03fe 4359424C 		.ascii	"CYBLE_STATE_ADVERTISING\000"
 3472      455F5354 
 3472      4154455F 
 3472      41445645 
 3472      52544953 
 3473              	.LASF38:
 3474 0416 4359424C 		.ascii	"CYBLE_EVT_GAP_OOB_GENERATED_NOTIFICATION\000"
 3474      455F4556 
 3474      545F4741 
 3474      505F4F4F 
 3474      425F4745 
 3475              	.LASF306:
 3476 043f 4379426C 		.ascii	"CyBle_GattsWriteRsp\000"
 3476      655F4761 
 3476      74747357 
 3476      72697465 
 3476      52737000 
 3477              	.LASF256:
 3478 0453 62644861 		.ascii	"bdHandle\000"
 3478      6E646C65 
 3478      00
 3479              	.LASF245:
 3480 045c 4359424C 		.ascii	"CYBLE_GATTS_ERR_NETWORK_NOT_AVAILABLE\000"
 3480      455F4741 
 3480      5454535F 
 3480      4552525F 
 3480      4E455457 
 3481              	.LASF159:
 3482 0482 4359424C 		.ascii	"CYBLE_GAP_AUTH_ERROR_PASSKEY_ENTRY_FAILED\000"
 3482      455F4741 
 3482      505F4155 
 3482      54485F45 
 3482      52524F52 
 3483              	.LASF248:
 3484 04ac 4359424C 		.ascii	"CYBLE_GATT_ERR_ANCS_INVALID_COMMAND\000"
 3484      455F4741 
 3484      54545F45 
 3484      52525F41 
 3484      4E43535F 
 3485              	.LASF307:
 3486 04d0 4379426C 		.ascii	"CyBle_SetTxPowerLevel\000"
 3486      655F5365 
 3486      74547850 
 3486      6F776572 
 3486      4C657665 
 3487              	.LASF116:
 3488 04e6 4359424C 		.ascii	"CYBLE_LL_PWR_LVL_NEG_12_DBM\000"
 3488      455F4C4C 
 3488      5F505752 
 3488      5F4C564C 
 3488      5F4E4547 
ARM GAS  C:\Users\tiantiaf\AppData\Local\Temp\cc2Xz98j.s 			page 102


 3489              	.LASF189:
 3490 0502 4359424C 		.ascii	"CYBLE_GATT_XCHNG_MTU_RSP\000"
 3490      455F4741 
 3490      54545F58 
 3490      43484E47 
 3490      5F4D5455 
 3491              	.LASF57:
 3492 051b 4359424C 		.ascii	"CYBLE_EVT_GATTS_WRITE_CMD_REQ\000"
 3492      455F4556 
 3492      545F4741 
 3492      5454535F 
 3492      57524954 
 3493              	.LASF4:
 3494 0539 6C6F6E67 		.ascii	"long int\000"
 3494      20696E74 
 3494      00
 3495              	.LASF147:
 3496 0542 4359424C 		.ascii	"CYBLE_GAP_SEC_LEVEL_1\000"
 3496      455F4741 
 3496      505F5345 
 3496      435F4C45 
 3496      56454C5F 
 3497              	.LASF148:
 3498 0558 4359424C 		.ascii	"CYBLE_GAP_SEC_LEVEL_2\000"
 3498      455F4741 
 3498      505F5345 
 3498      435F4C45 
 3498      56454C5F 
 3499              	.LASF149:
 3500 056e 4359424C 		.ascii	"CYBLE_GAP_SEC_LEVEL_3\000"
 3500      455F4741 
 3500      505F5345 
 3500      435F4C45 
 3500      56454C5F 
 3501              	.LASF150:
 3502 0584 4359424C 		.ascii	"CYBLE_GAP_SEC_LEVEL_4\000"
 3502      455F4741 
 3502      505F5345 
 3502      435F4C45 
 3502      56454C5F 
 3503              	.LASF193:
 3504 059a 4359424C 		.ascii	"CYBLE_GATT_FIND_BY_TYPE_VALUE_RSP\000"
 3504      455F4741 
 3504      54545F46 
 3504      494E445F 
 3504      42595F54 
 3505              	.LASF17:
 3506 05bc 4359424C 		.ascii	"CYBLE_EVT_STACK_ON\000"
 3506      455F4556 
 3506      545F5354 
 3506      41434B5F 
 3506      4F4E00
 3507              	.LASF100:
 3508 05cf 4359424C 		.ascii	"CYBLE_ERROR_L2CAP_PSM_NOT_IN_RANGE\000"
 3508      455F4552 
 3508      524F525F 
 3508      4C324341 
ARM GAS  C:\Users\tiantiaf\AppData\Local\Temp\cc2Xz98j.s 			page 103


 3508      505F5053 
 3509              	.LASF297:
 3510 05f2 6379426C 		.ascii	"cyBle_deviceAddress\000"
 3510      655F6465 
 3510      76696365 
 3510      41646472 
 3510      65737300 
 3511              	.LASF244:
 3512 0606 4359424C 		.ascii	"CYBLE_GATTS_ERR_HPS_INVALID_REQUEST\000"
 3512      455F4741 
 3512      5454535F 
 3512      4552525F 
 3512      4850535F 
 3513              	.LASF220:
 3514 062a 4359424C 		.ascii	"CYBLE_GATT_ERR_INVALID_PDU\000"
 3514      455F4741 
 3514      54545F45 
 3514      52525F49 
 3514      4E56414C 
 3515              	.LASF162:
 3516 0645 4359424C 		.ascii	"CYBLE_GAP_AUTH_ERROR_CONFIRM_VALUE_NOT_MATCH\000"
 3516      455F4741 
 3516      505F4155 
 3516      54485F45 
 3516      52524F52 
 3517              	.LASF112:
 3518 0672 4359424C 		.ascii	"CYBLE_ERROR_CHAR_IS_NOT_DISCOVERED\000"
 3518      455F4552 
 3518      524F525F 
 3518      43484152 
 3518      5F49535F 
 3519              	.LASF263:
 3520 0695 4359424C 		.ascii	"CYBLE_GATT_HANDLE_VALUE_PAIR_T\000"
 3520      455F4741 
 3520      54545F48 
 3520      414E444C 
 3520      455F5641 
 3521              	.LASF130:
 3522 06b4 626C6553 		.ascii	"bleSsChId\000"
 3522      73436849 
 3522      6400
 3523              	.LASF70:
 3524 06be 4359424C 		.ascii	"CYBLE_EVT_L2CAP_COMMAND_REJ\000"
 3524      455F4556 
 3524      545F4C32 
 3524      4341505F 
 3524      434F4D4D 
 3525              	.LASF199:
 3526 06da 4359424C 		.ascii	"CYBLE_GATT_READ_BLOB_RSP\000"
 3526      455F4741 
 3526      54545F52 
 3526      4541445F 
 3526      424C4F42 
 3527              	.LASF229:
 3528 06f3 4359424C 		.ascii	"CYBLE_GATT_ERR_INVALID_ATTRIBUTE_LEN\000"
 3528      455F4741 
 3528      54545F45 
ARM GAS  C:\Users\tiantiaf\AppData\Local\Temp\cc2Xz98j.s 			page 104


 3528      52525F49 
 3528      4E56414C 
 3529              	.LASF101:
 3530 0718 4359424C 		.ascii	"CYBLE_ERROR_GATT_DB_INVALID_ATTR_HANDLE\000"
 3530      455F4552 
 3530      524F525F 
 3530      47415454 
 3530      5F44425F 
 3531              	.LASF0:
 3532 0740 7369676E 		.ascii	"signed char\000"
 3532      65642063 
 3532      68617200 
 3533              	.LASF115:
 3534 074c 4359424C 		.ascii	"CYBLE_LL_PWR_LVL_NEG_18_DBM\000"
 3534      455F4C4C 
 3534      5F505752 
 3534      5F4C564C 
 3534      5F4E4547 
 3535              	.LASF190:
 3536 0768 4359424C 		.ascii	"CYBLE_GATT_FIND_INFO_REQ\000"
 3536      455F4741 
 3536      54545F46 
 3536      494E445F 
 3536      494E464F 
 3537              	.LASF19:
 3538 0781 4359424C 		.ascii	"CYBLE_EVT_HARDWARE_ERROR\000"
 3538      455F4556 
 3538      545F4841 
 3538      52445741 
 3538      52455F45 
 3539              	.LASF322:
 3540 079a 4379426C 		.ascii	"CyBle_EventHandler\000"
 3540      655F4576 
 3540      656E7448 
 3540      616E646C 
 3540      657200
 3541              	.LASF82:
 3542 07ad 4359424C 		.ascii	"CYBLE_ERROR_OK\000"
 3542      455F4552 
 3542      524F525F 
 3542      4F4B00
 3543              	.LASF128:
 3544 07bc 4359424C 		.ascii	"CYBLE_BLESS_PHY_CH_GRP_ID_T\000"
 3544      455F424C 
 3544      4553535F 
 3544      5048595F 
 3544      43485F47 
 3545              	.LASF251:
 3546 07d8 4359424C 		.ascii	"CYBLE_GATT_ERR_CCCD_IMPROPERLY_CONFIGURED\000"
 3546      455F4741 
 3546      54545F45 
 3546      52525F43 
 3546      4343445F 
 3547              	.LASF48:
 3548 0802 4359424C 		.ascii	"CYBLE_EVT_GATTC_READ_BY_GROUP_TYPE_RSP\000"
 3548      455F4556 
 3548      545F4741 
ARM GAS  C:\Users\tiantiaf\AppData\Local\Temp\cc2Xz98j.s 			page 105


 3548      5454435F 
 3548      52454144 
 3549              	.LASF172:
 3550 0829 4359424C 		.ascii	"CYBLE_GAP_AUTH_ERROR_CROSS_TRANSPORT_KEY_GEN_DER_NO"
 3550      455F4741 
 3550      505F4155 
 3550      54485F45 
 3550      52524F52 
 3551 085c 545F414C 		.ascii	"T_ALLOWED\000"
 3551      4C4F5745 
 3551      4400
 3552              	.LASF276:
 3553 0866 4359424C 		.ascii	"CYBLE_STATE_STOPPED\000"
 3553      455F5354 
 3553      4154455F 
 3553      53544F50 
 3553      50454400 
 3554              	.LASF272:
 3555 087a 4359424C 		.ascii	"CYBLE_GATTS_ERR_PARAM_T\000"
 3555      455F4741 
 3555      5454535F 
 3555      4552525F 
 3555      50415241 
 3556              	.LASF1:
 3557 0892 756E7369 		.ascii	"unsigned char\000"
 3557      676E6564 
 3557      20636861 
 3557      7200
 3558              	.LASF47:
 3559 08a0 4359424C 		.ascii	"CYBLE_EVT_GATTC_XCHNG_MTU_RSP\000"
 3559      455F4556 
 3559      545F4741 
 3559      5454435F 
 3559      5843484E 
 3560              	.LASF212:
 3561 08be 4359424C 		.ascii	"CYBLE_GATT_HANDLE_VALUE_IND\000"
 3561      455F4741 
 3561      54545F48 
 3561      414E444C 
 3561      455F5641 
 3562              	.LASF42:
 3563 08da 4359424C 		.ascii	"CYBLE_EVT_GAP_SMP_NEGOTIATED_AUTH_INFO\000"
 3563      455F4556 
 3563      545F4741 
 3563      505F534D 
 3563      505F4E45 
 3564              	.LASF77:
 3565 0901 4359424C 		.ascii	"CYBLE_EVT_L2CAP_CBFC_TX_CREDIT_IND\000"
 3565      455F4556 
 3565      545F4C32 
 3565      4341505F 
 3565      43424643 
 3566              	.LASF313:
 3567 0924 4379426C 		.ascii	"CyBle_GappStartAdvertisement\000"
 3567      655F4761 
 3567      70705374 
 3567      61727441 
ARM GAS  C:\Users\tiantiaf\AppData\Local\Temp\cc2Xz98j.s 			page 106


 3567      64766572 
 3568              	.LASF271:
 3569 0941 6572726F 		.ascii	"errorCode\000"
 3569      72436F64 
 3569      6500
 3570              	.LASF168:
 3571 094b 4359424C 		.ascii	"CYBLE_GAP_AUTH_ERROR_INVALID_PARAMETERS\000"
 3571      455F4741 
 3571      505F4155 
 3571      54485F45 
 3571      52524F52 
 3572              	.LASF137:
 3573 0973 636F6E66 		.ascii	"configMemory\000"
 3573      69674D65 
 3573      6D6F7279 
 3573      00
 3574              	.LASF74:
 3575 0980 4359424C 		.ascii	"CYBLE_EVT_L2CAP_CBFC_DISCONN_CNF\000"
 3575      455F4556 
 3575      545F4C32 
 3575      4341505F 
 3575      43424643 
 3576              	.LASF51:
 3577 09a1 4359424C 		.ascii	"CYBLE_EVT_GATTC_FIND_BY_TYPE_VALUE_RSP\000"
 3577      455F4556 
 3577      545F4741 
 3577      5454435F 
 3577      46494E44 
 3578              	.LASF39:
 3579 09c8 4359424C 		.ascii	"CYBLE_EVT_GAP_DATA_LENGTH_CHANGE\000"
 3579      455F4556 
 3579      545F4741 
 3579      505F4441 
 3579      54415F4C 
 3580              	.LASF14:
 3581 09e9 63686172 		.ascii	"char\000"
 3581      00
 3582              	.LASF119:
 3583 09ee 4359424C 		.ascii	"CYBLE_LL_PWR_LVL_NEG_2_DBM\000"
 3583      455F4C4C 
 3583      5F505752 
 3583      5F4C564C 
 3583      5F4E4547 
 3584              	.LASF205:
 3585 0a09 4359424C 		.ascii	"CYBLE_GATT_WRITE_RSP\000"
 3585      455F4741 
 3585      54545F57 
 3585      52495445 
 3585      5F525350 
 3586              	.LASF54:
 3587 0a1e 4359424C 		.ascii	"CYBLE_EVT_GATTC_READ_MULTI_RSP\000"
 3587      455F4556 
 3587      545F4741 
 3587      5454435F 
 3587      52454144 
 3588              	.LASF181:
 3589 0a3d 4359424C 		.ascii	"CYBLE_GAP_AUTH_INFO_T\000"
ARM GAS  C:\Users\tiantiaf\AppData\Local\Temp\cc2Xz98j.s 			page 107


 3589      455F4741 
 3589      505F4155 
 3589      54485F49 
 3589      4E464F5F 
 3590              	.LASF154:
 3591 0a53 4359424C 		.ascii	"CYBLE_GAP_IOCAP_KEYBOARD_ONLY\000"
 3591      455F4741 
 3591      505F494F 
 3591      4341505F 
 3591      4B455942 
 3592              	.LASF16:
 3593 0a71 4359424C 		.ascii	"CYBLE_EVT_HOST_INVALID\000"
 3593      455F4556 
 3593      545F484F 
 3593      53545F49 
 3593      4E56414C 
 3594              	.LASF240:
 3595 0a88 4359424C 		.ascii	"CYBLE_GATT_ERR_MISSING_CRC\000"
 3595      455F4741 
 3595      54545F45 
 3595      52525F4D 
 3595      49535349 
 3596              	.LASF230:
 3597 0aa3 4359424C 		.ascii	"CYBLE_GATT_ERR_UNLIKELY_ERROR\000"
 3597      455F4741 
 3597      54545F45 
 3597      52525F55 
 3597      4E4C494B 
 3598              	.LASF41:
 3599 0ac1 4359424C 		.ascii	"CYBLE_EVT_GAPC_DIRECT_ADV_REPORT\000"
 3599      455F4556 
 3599      545F4741 
 3599      50435F44 
 3599      49524543 
 3600              	.LASF188:
 3601 0ae2 4359424C 		.ascii	"CYBLE_GATT_XCNHG_MTU_REQ\000"
 3601      455F4741 
 3601      54545F58 
 3601      434E4847 
 3601      5F4D5455 
 3602              	.LASF89:
 3603 0afb 4359424C 		.ascii	"CYBLE_ERROR_NO_DEVICE_ENTITY\000"
 3603      455F4552 
 3603      524F525F 
 3603      4E4F5F44 
 3603      45564943 
 3604              	.LASF53:
 3605 0b18 4359424C 		.ascii	"CYBLE_EVT_GATTC_READ_BLOB_RSP\000"
 3605      455F4556 
 3605      545F4741 
 3605      5454435F 
 3605      52454144 
 3606              	.LASF285:
 3607 0b36 64657669 		.ascii	"deviceAddress\000"
 3607      63654164 
 3607      64726573 
 3607      7300
ARM GAS  C:\Users\tiantiaf\AppData\Local\Temp\cc2Xz98j.s 			page 108


 3608              	.LASF296:
 3609 0b44 6379426C 		.ascii	"cyBle_eventHandlerFlag\000"
 3609      655F6576 
 3609      656E7448 
 3609      616E646C 
 3609      6572466C 
 3610              	.LASF60:
 3611 0b5b 4359424C 		.ascii	"CYBLE_EVT_GATTC_EXEC_WRITE_RSP\000"
 3611      455F4556 
 3611      545F4741 
 3611      5454435F 
 3611      45584543 
 3612              	.LASF234:
 3613 0b7a 4359424C 		.ascii	"CYBLE_GATT_ERR_HEART_RATE_CONTROL_POINT_NOT_SUPPORT"
 3613      455F4741 
 3613      54545F45 
 3613      52525F48 
 3613      45415254 
 3614 0bad 454400   		.ascii	"ED\000"
 3615              	.LASF227:
 3616 0bb0 4359424C 		.ascii	"CYBLE_GATT_ERR_ATTRIBUTE_NOT_LONG\000"
 3616      455F4741 
 3616      54545F45 
 3616      52525F41 
 3616      54545249 
 3617              	.LASF151:
 3618 0bd2 4359424C 		.ascii	"CYBLE_GAP_SEC_LEVEL_MASK\000"
 3618      455F4741 
 3618      505F5345 
 3618      435F4C45 
 3618      56454C5F 
 3619              	.LASF65:
 3620 0beb 4359424C 		.ascii	"CYBLE_EVT_GATTC_STOP_CMD_COMPLETE\000"
 3620      455F4556 
 3620      545F4741 
 3620      5454435F 
 3620      53544F50 
 3621              	.LASF250:
 3622 0c0d 4359424C 		.ascii	"CYBLE_GATT_ERR_ANCS_ACTION_FAILED\000"
 3622      455F4741 
 3622      54545F45 
 3622      52525F41 
 3622      4E43535F 
 3623              	.LASF301:
 3624 0c2f 6379426C 		.ascii	"cyBle_connHandle\000"
 3624      655F636F 
 3624      6E6E4861 
 3624      6E646C65 
 3624      00
 3625              	.LASF187:
 3626 0c40 4359424C 		.ascii	"CYBLE_GATT_ERROR_RSP\000"
 3626      455F4741 
 3626      54545F45 
 3626      52524F52 
 3626      5F525350 
 3627              	.LASF108:
 3628 0c55 4359424C 		.ascii	"CYBLE_ERROR_CONTROLLER_BUSY\000"
ARM GAS  C:\Users\tiantiaf\AppData\Local\Temp\cc2Xz98j.s 			page 109


 3628      455F4552 
 3628      524F525F 
 3628      434F4E54 
 3628      524F4C4C 
 3629              	.LASF83:
 3630 0c71 4359424C 		.ascii	"CYBLE_ERROR_INVALID_PARAMETER\000"
 3630      455F4552 
 3630      524F525F 
 3630      494E5641 
 3630      4C49445F 
 3631              	.LASF171:
 3632 0c8f 4359424C 		.ascii	"CYBLE_GAP_AUTH_ERROR_BR_EDR_PAIRING_IN_PROGRESS\000"
 3632      455F4741 
 3632      505F4155 
 3632      54485F45 
 3632      52524F52 
 3633              	.LASF85:
 3634 0cbf 4359424C 		.ascii	"CYBLE_ERROR_MEMORY_ALLOCATION_FAILED\000"
 3634      455F4552 
 3634      524F525F 
 3634      4D454D4F 
 3634      52595F41 
 3635              	.LASF268:
 3636 0ce4 70726570 		.ascii	"prepareWriteQueueSize\000"
 3636      61726557 
 3636      72697465 
 3636      51756575 
 3636      6553697A 
 3637              	.LASF298:
 3638 0cfa 6379426C 		.ascii	"cyBle_sflashDeviceAddress\000"
 3638      655F7366 
 3638      6C617368 
 3638      44657669 
 3638      63654164 
 3639              	.LASF214:
 3640 0d14 4359424C 		.ascii	"CYBLE_GATT_SIGNED_WRITE_CMD\000"
 3640      455F4741 
 3640      54545F53 
 3640      49474E45 
 3640      445F5752 
 3641              	.LASF241:
 3642 0d30 4359424C 		.ascii	"CYBLE_GATTS_ERR_CCCD_IMPROPERLY_CONFIGURED\000"
 3642      455F4741 
 3642      5454535F 
 3642      4552525F 
 3642      43434344 
 3643              	.LASF309:
 3644 0d5b 4379426C 		.ascii	"CyBle_GattsExchangeMtuRsp\000"
 3644      655F4761 
 3644      74747345 
 3644      78636861 
 3644      6E67654D 
 3645              	.LASF210:
 3646 0d75 4359424C 		.ascii	"CYBLE_GATT_EXECUTE_WRITE_RSP\000"
 3646      455F4741 
 3646      54545F45 
 3646      58454355 
ARM GAS  C:\Users\tiantiaf\AppData\Local\Temp\cc2Xz98j.s 			page 110


 3646      54455F57 
 3647              	.LASF109:
 3648 0d92 4359424C 		.ascii	"CYBLE_ERROR_MAX\000"
 3648      455F4552 
 3648      524F525F 
 3648      4D415800 
 3649              	.LASF69:
 3650 0da2 4359424C 		.ascii	"CYBLE_EVT_L2CAP_CONN_PARAM_UPDATE_RSP\000"
 3650      455F4556 
 3650      545F4C32 
 3650      4341505F 
 3650      434F4E4E 
 3651              	.LASF174:
 3652 0dc8 4359424C 		.ascii	"CYBLE_GAP_AUTH_ERROR_LINK_DISCONNECTED\000"
 3652      455F4741 
 3652      505F4155 
 3652      54485F45 
 3652      52524F52 
 3653              	.LASF235:
 3654 0def 4359424C 		.ascii	"CYBLE_GATT_ERR_USER_DATA_ACCESS_NOT_PERMITTED\000"
 3654      455F4741 
 3654      54545F45 
 3654      52525F55 
 3654      5345525F 
 3655              	.LASF27:
 3656 0e1d 4359424C 		.ascii	"CYBLE_EVT_GAP_AUTH_COMPLETE\000"
 3656      455F4556 
 3656      545F4741 
 3656      505F4155 
 3656      54485F43 
 3657              	.LASF28:
 3658 0e39 4359424C 		.ascii	"CYBLE_EVT_GAP_AUTH_FAILED\000"
 3658      455F4556 
 3658      545F4741 
 3658      505F4155 
 3658      54485F46 
 3659              	.LASF136:
 3660 0e53 616C6C6F 		.ascii	"allocFree\000"
 3660      63467265 
 3660      6500
 3661              	.LASF203:
 3662 0e5d 4359424C 		.ascii	"CYBLE_GATT_READ_BY_GROUP_RSP\000"
 3662      455F4741 
 3662      54545F52 
 3662      4541445F 
 3662      42595F47 
 3663              	.LASF86:
 3664 0e7a 4359424C 		.ascii	"CYBLE_ERROR_INSUFFICIENT_RESOURCES\000"
 3664      455F4552 
 3664      524F525F 
 3664      494E5355 
 3664      46464943 
 3665              	.LASF239:
 3666 0e9d 4359424C 		.ascii	"CYBLE_GATT_ERR_OP_CODE_NOT_SUPPORTED\000"
 3666      455F4741 
 3666      54545F45 
 3666      52525F4F 
ARM GAS  C:\Users\tiantiaf\AppData\Local\Temp\cc2Xz98j.s 			page 111


 3666      505F434F 
 3667              	.LASF122:
 3668 0ec2 4359424C 		.ascii	"CYBLE_LL_PWR_LVL_3_DBM\000"
 3668      455F4C4C 
 3668      5F505752 
 3668      5F4C564C 
 3668      5F335F44 
 3669              	.LASF5:
 3670 0ed9 6C6F6E67 		.ascii	"long unsigned int\000"
 3670      20756E73 
 3670      69676E65 
 3670      6420696E 
 3670      7400
 3671              	.LASF196:
 3672 0eeb 4359424C 		.ascii	"CYBLE_GATT_READ_REQ\000"
 3672      455F4741 
 3672      54545F52 
 3672      4541445F 
 3672      52455100 
 3673              	.LASF182:
 3674 0eff 73746174 		.ascii	"status\000"
 3674      757300
 3675              	.LASF120:
 3676 0f06 4359424C 		.ascii	"CYBLE_LL_PWR_LVL_NEG_1_DBM\000"
 3676      455F4C4C 
 3676      5F505752 
 3676      5F4C564C 
 3676      5F4E4547 
 3677              	.LASF106:
 3678 0f21 4359424C 		.ascii	"CYBLE_ERROR_UNSUPPORTED_FEATURE_OR_PARAMETER_VALUE\000"
 3678      455F4552 
 3678      524F525F 
 3678      554E5355 
 3678      50504F52 
 3679              	.LASF133:
 3680 0f54 4359424C 		.ascii	"CYBLE_INVALID_REQUEST\000"
 3680      455F494E 
 3680      56414C49 
 3680      445F5245 
 3680      51554553 
 3681              	.LASF165:
 3682 0f6a 4359424C 		.ascii	"CYBLE_GAP_AUTH_ERROR_COMMAND_NOT_SUPPORTED\000"
 3682      455F4741 
 3682      505F4155 
 3682      54485F45 
 3682      52524F52 
 3683              	.LASF161:
 3684 0f95 4359424C 		.ascii	"CYBLE_GAP_AUTH_ERROR_AUTHENTICATION_REQ_NOT_MET\000"
 3684      455F4741 
 3684      505F4155 
 3684      54485F45 
 3684      52524F52 
 3685              	.LASF211:
 3686 0fc5 4359424C 		.ascii	"CYBLE_GATT_HANDLE_VALUE_NTF\000"
 3686      455F4741 
 3686      54545F48 
 3686      414E444C 
ARM GAS  C:\Users\tiantiaf\AppData\Local\Temp\cc2Xz98j.s 			page 112


 3686      455F5641 
 3687              	.LASF96:
 3688 0fe1 4359424C 		.ascii	"CYBLE_ERROR_L2CAP_PSM_ALREADY_REGISTERED\000"
 3688      455F4552 
 3688      524F525F 
 3688      4C324341 
 3688      505F5053 
 3689              	.LASF316:
 3690 100a 474E5520 		.ascii	"GNU C 4.9.3 20150303 (release) [ARM/embedded-4_9-br"
 3690      4320342E 
 3690      392E3320 
 3690      32303135 
 3690      30333033 
 3691 103d 616E6368 		.ascii	"anch revision 221220] -mcpu=cortex-m0 -mthumb -g -O"
 3691      20726576 
 3691      6973696F 
 3691      6E203232 
 3691      31323230 
 3692 1070 67202D66 		.ascii	"g -ffunction-sections -ffat-lto-objects\000"
 3692      66756E63 
 3692      74696F6E 
 3692      2D736563 
 3692      74696F6E 
 3693              	.LASF247:
 3694 1098 4359424C 		.ascii	"CYBLE_GATT_ERR_ANCS_UNKNOWN_COMMAND\000"
 3694      455F4741 
 3694      54545F45 
 3694      52525F41 
 3694      4E43535F 
 3695              	.LASF269:
 3696 10bc 4359424C 		.ascii	"CYBLE_PREPARE_WRITE_REQUEST_MEMORY_T\000"
 3696      455F5052 
 3696      45504152 
 3696      455F5752 
 3696      4954455F 
 3697              	.LASF33:
 3698 10e1 4359424C 		.ascii	"CYBLE_EVT_GAP_CONNECTION_UPDATE_COMPLETE\000"
 3698      455F4556 
 3698      545F4741 
 3698      505F434F 
 3698      4E4E4543 
 3699              	.LASF302:
 3700 110a 6379426C 		.ascii	"cyBle_busyStatus\000"
 3700      655F6275 
 3700      73795374 
 3700      61747573 
 3700      00
 3701              	.LASF314:
 3702 111b 4379426C 		.ascii	"CyBle_ChangeAdDeviceAddress\000"
 3702      655F4368 
 3702      616E6765 
 3702      41644465 
 3702      76696365 
 3703              	.LASF277:
 3704 1137 4359424C 		.ascii	"CYBLE_STATE_INITIALIZING\000"
 3704      455F5354 
 3704      4154455F 
ARM GAS  C:\Users\tiantiaf\AppData\Local\Temp\cc2Xz98j.s 			page 113


 3704      494E4954 
 3704      49414C49 
 3705              	.LASF293:
 3706 1150 6379426C 		.ascii	"cyBle_mtuSize\000"
 3706      655F6D74 
 3706      7553697A 
 3706      6500
 3707              	.LASF167:
 3708 115e 4359424C 		.ascii	"CYBLE_GAP_AUTH_ERROR_REPEATED_ATTEMPTS\000"
 3708      455F4741 
 3708      505F4155 
 3708      54485F45 
 3708      52524F52 
 3709              	.LASF73:
 3710 1185 4359424C 		.ascii	"CYBLE_EVT_L2CAP_CBFC_DISCONN_IND\000"
 3710      455F4556 
 3710      545F4C32 
 3710      4341505F 
 3710      43424643 
 3711              	.LASF66:
 3712 11a6 4359424C 		.ascii	"CYBLE_EVT_GATTS_READ_CHAR_VAL_ACCESS_REQ\000"
 3712      455F4556 
 3712      545F4741 
 3712      5454535F 
 3712      52454144 
 3713              	.LASF25:
 3714 11cf 4359424C 		.ascii	"CYBLE_EVT_GAP_PASSKEY_ENTRY_REQUEST\000"
 3714      455F4556 
 3714      545F4741 
 3714      505F5041 
 3714      53534B45 
 3715              	.LASF169:
 3716 11f3 4359424C 		.ascii	"CYBLE_GAP_AUTH_ERROR_DHKEY_CHECK_FAILED\000"
 3716      455F4741 
 3716      505F4155 
 3716      54485F45 
 3716      52524F52 
 3717              	.LASF124:
 3718 121b 4359424C 		.ascii	"CYBLE_BLESS_PWR_LVL_T\000"
 3718      455F424C 
 3718      4553535F 
 3718      5057525F 
 3718      4C564C5F 
 3719              	.LASF312:
 3720 1231 4379426C 		.ascii	"CyBle_GappAuthReqReply\000"
 3720      655F4761 
 3720      70704175 
 3720      74685265 
 3720      71526570 
 3721              	.LASF164:
 3722 1248 4359424C 		.ascii	"CYBLE_GAP_AUTH_ERROR_INSUFFICIENT_ENCRYPTION_KEY_SI"
 3722      455F4741 
 3722      505F4155 
 3722      54485F45 
 3722      52524F52 
 3723 127b 5A4500   		.ascii	"ZE\000"
 3724              	.LASF308:
ARM GAS  C:\Users\tiantiaf\AppData\Local\Temp\cc2Xz98j.s 			page 114


 3725 127e 4379426C 		.ascii	"CyBle_GapSetLeEventMask\000"
 3725      655F4761 
 3725      70536574 
 3725      4C654576 
 3725      656E744D 
 3726              	.LASF6:
 3727 1296 6C6F6E67 		.ascii	"long long int\000"
 3727      206C6F6E 
 3727      6720696E 
 3727      7400
 3728              	.LASF319:
 3729 12a4 4379426C 		.ascii	"CyBle_GattDisconnectEventHandler\000"
 3729      655F4761 
 3729      74744469 
 3729      73636F6E 
 3729      6E656374 
 3730              	.LASF138:
 3731 12c5 4359424C 		.ascii	"CYBLE_MEMORY_REQUEST_T\000"
 3731      455F4D45 
 3731      4D4F5259 
 3731      5F524551 
 3731      55455354 
 3732              	.LASF176:
 3733 12dc 73656375 		.ascii	"security\000"
 3733      72697479 
 3733      00
 3734              	.LASF225:
 3735 12e5 4359424C 		.ascii	"CYBLE_GATT_ERR_PREPARE_WRITE_QUEUE_FULL\000"
 3735      455F4741 
 3735      54545F45 
 3735      52525F50 
 3735      52455041 
 3736              	.LASF97:
 3737 130d 4359424C 		.ascii	"CYBLE_ERROR_L2CAP_PSM_NOT_REGISTERED\000"
 3737      455F4552 
 3737      524F525F 
 3737      4C324341 
 3737      505F5053 
 3738              	.LASF87:
 3739 1332 4359424C 		.ascii	"CYBLE_ERROR_OOB_NOT_AVAILABLE\000"
 3739      455F4552 
 3739      524F525F 
 3739      4F4F425F 
 3739      4E4F545F 
 3740              	.LASF13:
 3741 1350 646F7562 		.ascii	"double\000"
 3741      6C6500
 3742              	.LASF102:
 3743 1357 4359424C 		.ascii	"CYBLE_ERROR_DEVICE_ALREADY_EXISTS\000"
 3743      455F4552 
 3743      524F525F 
 3743      44455649 
 3743      43455F41 
 3744              	.LASF79:
 3745 1379 4359424C 		.ascii	"CYBLE_EVT_PENDING_FLASH_WRITE\000"
 3745      455F4556 
 3745      545F5045 
ARM GAS  C:\Users\tiantiaf\AppData\Local\Temp\cc2Xz98j.s 			page 115


 3745      4E44494E 
 3745      475F464C 
 3746              	.LASF228:
 3747 1397 4359424C 		.ascii	"CYBLE_GATT_ERR_INSUFFICIENT_ENC_KEY_SIZE\000"
 3747      455F4741 
 3747      54545F45 
 3747      52525F49 
 3747      4E535546 
 3748              	.LASF123:
 3749 13c0 4359424C 		.ascii	"CYBLE_LL_PWR_LVL_MAX\000"
 3749      455F4C4C 
 3749      5F505752 
 3749      5F4C564C 
 3749      5F4D4158 
 3750              	.LASF252:
 3751 13d5 4359424C 		.ascii	"CYBLE_GATT_ERR_PROCEDURE_ALREADY_IN_PROGRESS\000"
 3751      455F4741 
 3751      54545F45 
 3751      52525F50 
 3751      524F4345 
 3752              	.LASF40:
 3753 1402 4359424C 		.ascii	"CYBLE_EVT_GAP_ENHANCE_CONN_COMPLETE\000"
 3753      455F4556 
 3753      545F4741 
 3753      505F454E 
 3753      48414E43 
 3754              	.LASF99:
 3755 1426 4359424C 		.ascii	"CYBLE_ERROR_L2CAP_CHANNEL_NOT_FOUND\000"
 3755      455F4552 
 3755      524F525F 
 3755      4C324341 
 3755      505F4348 
 3756              	.LASF90:
 3757 144a 4359424C 		.ascii	"CYBLE_ERROR_REPEATED_ATTEMPTS\000"
 3757      455F4552 
 3757      524F525F 
 3757      52455045 
 3757      41544544 
 3758              	.LASF12:
 3759 1468 666C6F61 		.ascii	"float\000"
 3759      7400
 3760              	.LASF103:
 3761 146e 4359424C 		.ascii	"CYBLE_ERROR_FLASH_WRITE_NOT_PERMITED\000"
 3761      455F4552 
 3761      524F525F 
 3761      464C4153 
 3761      485F5752 
 3762              	.LASF318:
 3763 1493 453A5C53 		.ascii	"E:\\Stone_Project\\fw-BLE-Motor\\fw-stone\\Stone.cy"
 3763      746F6E65 
 3763      5F50726F 
 3763      6A656374 
 3763      5C66772D 
 3764 14c2 64736E00 		.ascii	"dsn\000"
 3765              	.LASF270:
 3766 14c6 6F70636F 		.ascii	"opcode\000"
 3766      646500
ARM GAS  C:\Users\tiantiaf\AppData\Local\Temp\cc2Xz98j.s 			page 116


 3767              	.LASF224:
 3768 14cd 4359424C 		.ascii	"CYBLE_GATT_ERR_INSUFFICIENT_AUTHORIZATION\000"
 3768      455F4741 
 3768      54545F45 
 3768      52525F49 
 3768      4E535546 
 3769              	.LASF262:
 3770 14f7 61747472 		.ascii	"attrHandle\000"
 3770      48616E64 
 3770      6C6500
 3771              	.LASF177:
 3772 1502 626F6E64 		.ascii	"bonding\000"
 3772      696E6700 
 3773              	.LASF274:
 3774 150a 4359424C 		.ascii	"CYBLE_GATTS_WRITE_REQ_PARAM_T\000"
 3774      455F4741 
 3774      5454535F 
 3774      57524954 
 3774      455F5245 
 3775              	.LASF8:
 3776 1528 756E7369 		.ascii	"unsigned int\000"
 3776      676E6564 
 3776      20696E74 
 3776      00
 3777              	.LASF58:
 3778 1535 4359424C 		.ascii	"CYBLE_EVT_GATTS_PREP_WRITE_REQ\000"
 3778      455F4556 
 3778      545F4741 
 3778      5454535F 
 3778      50524550 
 3779              	.LASF221:
 3780 1554 4359424C 		.ascii	"CYBLE_GATT_ERR_INSUFFICIENT_AUTHENTICATION\000"
 3780      455F4741 
 3780      54545F45 
 3780      52525F49 
 3780      4E535546 
 3781              	.LASF265:
 3782 157f 4359424C 		.ascii	"CYBLE_GATT_XCHG_MTU_PARAM_T\000"
 3782      455F4741 
 3782      54545F58 
 3782      4348475F 
 3782      4D54555F 
 3783              	.LASF126:
 3784 159b 4359424C 		.ascii	"CYBLE_LL_CONN_CH_TYPE\000"
 3784      455F4C4C 
 3784      5F434F4E 
 3784      4E5F4348 
 3784      5F545950 
 3785              	.LASF305:
 3786 15b1 4379426C 		.ascii	"CyBle_GattsWriteEventHandler\000"
 3786      655F4761 
 3786      74747357 
 3786      72697465 
 3786      4576656E 
 3787              	.LASF238:
 3788 15ce 4359424C 		.ascii	"CYBLE_GATTS_ERR_PROCEDURE_ALREADY_IN_PROGRESS\000"
 3788      455F4741 
ARM GAS  C:\Users\tiantiaf\AppData\Local\Temp\cc2Xz98j.s 			page 117


 3788      5454535F 
 3788      4552525F 
 3788      50524F43 
 3789              	.LASF283:
 3790 15fc 6572725F 		.ascii	"err_param\000"
 3790      70617261 
 3790      6D00
 3791              	.LASF95:
 3792 1606 4359424C 		.ascii	"CYBLE_ERROR_L2CAP_PSM_WRONG_ENCODING\000"
 3792      455F4552 
 3792      524F525F 
 3792      4C324341 
 3792      505F5053 
 3793              	.LASF208:
 3794 162b 4359424C 		.ascii	"CYBLE_GATT_PREPARE_WRITE_RSP\000"
 3794      455F4741 
 3794      54545F50 
 3794      52455041 
 3794      52455F57 
 3795              	.LASF292:
 3796 1648 67507265 		.ascii	"gPrepWriteReqMem\000"
 3796      70577269 
 3796      74655265 
 3796      714D656D 
 3796      00
 3797              	.LASF226:
 3798 1659 4359424C 		.ascii	"CYBLE_GATT_ERR_ATTRIBUTE_NOT_FOUND\000"
 3798      455F4741 
 3798      54545F45 
 3798      52525F41 
 3798      54545249 
 3799              	.LASF81:
 3800 167c 4359424C 		.ascii	"CYBLE_EVT_MAX\000"
 3800      455F4556 
 3800      545F4D41 
 3800      5800
 3801              	.LASF34:
 3802 168a 4359424C 		.ascii	"CYBLE_EVT_GAPC_SCAN_START_STOP\000"
 3802      455F4556 
 3802      545F4741 
 3802      50435F53 
 3802      43414E5F 
 3803              	.LASF321:
 3804 16a9 4379426C 		.ascii	"CyBle_IsDeviceAddressValid\000"
 3804      655F4973 
 3804      44657669 
 3804      63654164 
 3804      64726573 
 3805              	.LASF175:
 3806 16c4 4359424C 		.ascii	"CYBLE_GAP_AUTH_FAILED_REASON_T\000"
 3806      455F4741 
 3806      505F4155 
 3806      54485F46 
 3806      41494C45 
 3807              	.LASF55:
 3808 16e3 4359424C 		.ascii	"CYBLE_EVT_GATTS_WRITE_REQ\000"
 3808      455F4556 
ARM GAS  C:\Users\tiantiaf\AppData\Local\Temp\cc2Xz98j.s 			page 118


 3808      545F4741 
 3808      5454535F 
 3808      57524954 
 3809              	.LASF26:
 3810 16fd 4359424C 		.ascii	"CYBLE_EVT_GAP_PASSKEY_DISPLAY_REQUEST\000"
 3810      455F4556 
 3810      545F4741 
 3810      505F5041 
 3810      53534B45 
 3811              	.LASF111:
 3812 1723 4359424C 		.ascii	"CYBLE_ERROR_IND_DISABLED\000"
 3812      455F4552 
 3812      524F525F 
 3812      494E445F 
 3812      44495341 
 3813              	.LASF110:
 3814 173c 4359424C 		.ascii	"CYBLE_ERROR_NTF_DISABLED\000"
 3814      455F4552 
 3814      524F525F 
 3814      4E54465F 
 3814      44495341 
 3815              	.LASF200:
 3816 1755 4359424C 		.ascii	"CYBLE_GATT_READ_MULTIPLE_REQ\000"
 3816      455F4741 
 3816      54545F52 
 3816      4541445F 
 3816      4D554C54 
 3817              	.LASF52:
 3818 1772 4359424C 		.ascii	"CYBLE_EVT_GATTC_READ_RSP\000"
 3818      455F4556 
 3818      545F4741 
 3818      5454435F 
 3818      52454144 
 3819              	.LASF223:
 3820 178b 4359424C 		.ascii	"CYBLE_GATT_ERR_INVALID_OFFSET\000"
 3820      455F4741 
 3820      54545F45 
 3820      52525F49 
 3820      4E56414C 
 3821              	.LASF194:
 3822 17a9 4359424C 		.ascii	"CYBLE_GATT_READ_BY_TYPE_REQ\000"
 3822      455F4741 
 3822      54545F52 
 3822      4541445F 
 3822      42595F54 
 3823              	.LASF72:
 3824 17c5 4359424C 		.ascii	"CYBLE_EVT_L2CAP_CBFC_CONN_CNF\000"
 3824      455F4556 
 3824      545F4C32 
 3824      4341505F 
 3824      43424643 
 3825              	.LASF253:
 3826 17e3 4359424C 		.ascii	"CYBLE_GATT_ERR_OUT_OF_RANGE\000"
 3826      455F4741 
 3826      54545F45 
 3826      52525F4F 
 3826      55545F4F 
ARM GAS  C:\Users\tiantiaf\AppData\Local\Temp\cc2Xz98j.s 			page 119


 3827              	.LASF192:
 3828 17ff 4359424C 		.ascii	"CYBLE_GATT_FIND_BY_TYPE_VALUE_REQ\000"
 3828      455F4741 
 3828      54545F46 
 3828      494E445F 
 3828      42595F54 
 3829              	.LASF117:
 3830 1821 4359424C 		.ascii	"CYBLE_LL_PWR_LVL_NEG_6_DBM\000"
 3830      455F4C4C 
 3830      5F505752 
 3830      5F4C564C 
 3830      5F4E4547 
 3831              	.LASF22:
 3832 183c 4359424C 		.ascii	"CYBLE_EVT_MEMORY_REQUEST\000"
 3832      455F4556 
 3832      545F4D45 
 3832      4D4F5259 
 3832      5F524551 
 3833              	.LASF158:
 3834 1855 4359424C 		.ascii	"CYBLE_GAP_AUTH_ERROR_NONE\000"
 3834      455F4741 
 3834      505F4155 
 3834      54485F45 
 3834      52524F52 
 3835              	.LASF32:
 3836 186f 4359424C 		.ascii	"CYBLE_EVT_GAP_ENCRYPT_CHANGE\000"
 3836      455F4556 
 3836      545F4741 
 3836      505F454E 
 3836      43525950 
 3837              	.LASF266:
 3838 188c 71756575 		.ascii	"queueBuffer\000"
 3838      65427566 
 3838      66657200 
 3839              	.LASF46:
 3840 1898 4359424C 		.ascii	"CYBLE_EVT_GATTS_XCNHG_MTU_REQ\000"
 3840      455F4556 
 3840      545F4741 
 3840      5454535F 
 3840      58434E48 
 3841              	.LASF191:
 3842 18b6 4359424C 		.ascii	"CYBLE_GATT_FIND_INFO_RSP\000"
 3842      455F4741 
 3842      54545F46 
 3842      494E445F 
 3842      494E464F 
 3843              	.LASF160:
 3844 18cf 4359424C 		.ascii	"CYBLE_GAP_AUTH_ERROR_OOB_DATA_NOT_AVAILABLE\000"
 3844      455F4741 
 3844      505F4155 
 3844      54485F45 
 3844      52524F52 
 3845              	.LASF132:
 3846 18fb 4359424C 		.ascii	"CYBLE_PREPARED_WRITE_REQUEST\000"
 3846      455F5052 
 3846      45504152 
 3846      45445F57 
ARM GAS  C:\Users\tiantiaf\AppData\Local\Temp\cc2Xz98j.s 			page 120


 3846      52495445 
 3847              	.LASF186:
 3848 1918 4359424C 		.ascii	"CYBLE_GAP_CONN_PARAM_UPDATED_IN_CONTROLLER_T\000"
 3848      455F4741 
 3848      505F434F 
 3848      4E4E5F50 
 3848      4152414D 
 3849              	.LASF7:
 3850 1945 6C6F6E67 		.ascii	"long long unsigned int\000"
 3850      206C6F6E 
 3850      6720756E 
 3850      7369676E 
 3850      65642069 
 3851              	.LASF217:
 3852 195c 4359424C 		.ascii	"CYBLE_GATT_ERR_INVALID_HANDLE\000"
 3852      455F4741 
 3852      54545F45 
 3852      52525F49 
 3852      4E56414C 
 3853              	.LASF18:
 3854 197a 4359424C 		.ascii	"CYBLE_EVT_TIMEOUT\000"
 3854      455F4556 
 3854      545F5449 
 3854      4D454F55 
 3854      5400
 3855              	.LASF215:
 3856 198c 4359424C 		.ascii	"CYBLE_GATT_UNKNOWN_PDU_IND\000"
 3856      455F4741 
 3856      54545F55 
 3856      4E4B4E4F 
 3856      574E5F50 
 3857              	.LASF113:
 3858 19a7 4359424C 		.ascii	"CYBLE_ERROR_INVALID_STATE\000"
 3858      455F4552 
 3858      524F525F 
 3858      494E5641 
 3858      4C49445F 
 3859              	.LASF255:
 3860 19c1 4359424C 		.ascii	"CYBLE_GATT_DB_ATTR_HANDLE_T\000"
 3860      455F4741 
 3860      54545F44 
 3860      425F4154 
 3860      54525F48 
 3861              	.LASF288:
 3862 19dd 626C6553 		.ascii	"bleSsPowerLevel\000"
 3862      73506F77 
 3862      65724C65 
 3862      76656C00 
 3863              	.LASF75:
 3864 19ed 4359424C 		.ascii	"CYBLE_EVT_L2CAP_CBFC_DATA_READ\000"
 3864      455F4556 
 3864      545F4C32 
 3864      4341505F 
 3864      43424643 
 3865              	.LASF216:
 3866 1a0c 4359424C 		.ascii	"CYBLE_GATT_ERR_NONE\000"
 3866      455F4741 
ARM GAS  C:\Users\tiantiaf\AppData\Local\Temp\cc2Xz98j.s 			page 121


 3866      54545F45 
 3866      52525F4E 
 3866      4F4E4500 
 3867              	.LASF261:
 3868 1a20 76616C75 		.ascii	"value\000"
 3868      6500
 3869              	.LASF267:
 3870 1a26 746F7461 		.ascii	"totalAttrValueLength\000"
 3870      6C417474 
 3870      7256616C 
 3870      75654C65 
 3870      6E677468 
 3871              	.LASF294:
 3872 1a3b 4379426C 		.ascii	"CyBle_ApplCallback\000"
 3872      655F4170 
 3872      706C4361 
 3872      6C6C6261 
 3872      636B00
 3873              	.LASF107:
 3874 1a4e 4359424C 		.ascii	"CYBLE_ERROR_FLASH_WRITE\000"
 3874      455F4552 
 3874      524F525F 
 3874      464C4153 
 3874      485F5752 
 3875              	.LASF143:
 3876 1a66 4359424C 		.ascii	"CYBLE_GAP_SCAN_TO\000"
 3876      455F4741 
 3876      505F5343 
 3876      414E5F54 
 3876      4F00
 3877              	.LASF237:
 3878 1a78 4359424C 		.ascii	"CYBLE_GATT_ERR_HTS_OUT_OF_RANGE\000"
 3878      455F4741 
 3878      54545F45 
 3878      52525F48 
 3878      54535F4F 
 3879              	.LASF141:
 3880 1a98 4359424C 		.ascii	"CYBLE_GAP_BD_ADDR_T\000"
 3880      455F4741 
 3880      505F4244 
 3880      5F414444 
 3880      525F5400 
 3881              	.LASF198:
 3882 1aac 4359424C 		.ascii	"CYBLE_GATT_READ_BLOB_REQ\000"
 3882      455F4741 
 3882      54545F52 
 3882      4541445F 
 3882      424C4F42 
 3883              	.LASF142:
 3884 1ac5 4359424C 		.ascii	"CYBLE_GAP_ADV_MODE_TO\000"
 3884      455F4741 
 3884      505F4144 
 3884      565F4D4F 
 3884      44455F54 
 3885              	.LASF273:
 3886 1adb 68616E64 		.ascii	"handleValPair\000"
 3886      6C655661 
ARM GAS  C:\Users\tiantiaf\AppData\Local\Temp\cc2Xz98j.s 			page 122


 3886      6C506169 
 3886      7200
 3887              	.LASF264:
 3888 1ae9 636F6E6E 		.ascii	"connHandle\000"
 3888      48616E64 
 3888      6C6500
 3889              	.LASF163:
 3890 1af4 4359424C 		.ascii	"CYBLE_GAP_AUTH_ERROR_PAIRING_NOT_SUPPORTED\000"
 3890      455F4741 
 3890      505F4155 
 3890      54485F45 
 3890      52524F52 
 3891              	.LASF145:
 3892 1b1f 4359424C 		.ascii	"CYBLE_GENERIC_TO\000"
 3892      455F4745 
 3892      4E455249 
 3892      435F544F 
 3892      00
 3893              	.LASF50:
 3894 1b30 4359424C 		.ascii	"CYBLE_EVT_GATTC_FIND_INFO_RSP\000"
 3894      455F4556 
 3894      545F4741 
 3894      5454435F 
 3894      46494E44 
 3895              	.LASF49:
 3896 1b4e 4359424C 		.ascii	"CYBLE_EVT_GATTC_READ_BY_TYPE_RSP\000"
 3896      455F4556 
 3896      545F4741 
 3896      5454435F 
 3896      52454144 
 3897              	.LASF242:
 3898 1b6f 4359424C 		.ascii	"CYBLE_GATTS_ERR_OPERATION_FAILED\000"
 3898      455F4741 
 3898      5454535F 
 3898      4552525F 
 3898      4F504552 
 3899              	.LASF300:
 3900 1b90 6379426C 		.ascii	"cyBle_state\000"
 3900      655F7374 
 3900      61746500 
 3901              	.LASF180:
 3902 1b9c 70616972 		.ascii	"pairingProperties\000"
 3902      696E6750 
 3902      726F7065 
 3902      72746965 
 3902      7300
 3903              	.LASF56:
 3904 1bae 4359424C 		.ascii	"CYBLE_EVT_GATTC_WRITE_RSP\000"
 3904      455F4556 
 3904      545F4741 
 3904      5454435F 
 3904      57524954 
 3905              	.LASF280:
 3906 1bc8 4359424C 		.ascii	"CYBLE_STATE_DISCONNECTED\000"
 3906      455F5354 
 3906      4154455F 
 3906      44495343 
ARM GAS  C:\Users\tiantiaf\AppData\Local\Temp\cc2Xz98j.s 			page 123


 3906      4F4E4E45 
 3907              	.LASF290:
 3908 1be1 6C654D61 		.ascii	"leMask\000"
 3908      736B00
 3909              	.LASF29:
 3910 1be8 4359424C 		.ascii	"CYBLE_EVT_GAPP_ADVERTISEMENT_START_STOP\000"
 3910      455F4556 
 3910      545F4741 
 3910      50505F41 
 3910      44564552 
 3911              	.LASF9:
 3912 1c10 75696E74 		.ascii	"uint8\000"
 3912      3800
 3913              	.LASF299:
 3914 1c16 6379426C 		.ascii	"cyBle_authInfo\000"
 3914      655F6175 
 3914      7468496E 
 3914      666F00
 3915              	.LASF37:
 3916 1c25 4359424C 		.ascii	"CYBLE_EVT_GAP_KEYPRESS_NOTIFICATION\000"
 3916      455F4556 
 3916      545F4741 
 3916      505F4B45 
 3916      59505245 
 3917              	.LASF204:
 3918 1c49 4359424C 		.ascii	"CYBLE_GATT_WRITE_REQ\000"
 3918      455F4741 
 3918      54545F57 
 3918      52495445 
 3918      5F524551 
 3919              	.LASF2:
 3920 1c5e 73686F72 		.ascii	"short int\000"
 3920      7420696E 
 3920      7400
 3921              	.LASF179:
 3922 1c68 61757468 		.ascii	"authErr\000"
 3922      45727200 
 3923              	.LASF105:
 3924 1c70 4359424C 		.ascii	"CYBLE_ERROR_HARDWARE_FAILURE\000"
 3924      455F4552 
 3924      524F525F 
 3924      48415244 
 3924      57415245 
 3925              	.LASF236:
 3926 1c8d 4359424C 		.ascii	"CYBLE_GATT_ERR_CPS_INAPPROPRIATE_CONNECTION_PARAMET"
 3926      455F4741 
 3926      54545F45 
 3926      52525F43 
 3926      50535F49 
 3927 1cc0 45525300 		.ascii	"ERS\000"
 3928              	.LASF222:
 3929 1cc4 4359424C 		.ascii	"CYBLE_GATT_ERR_REQUEST_NOT_SUPPORTED\000"
 3929      455F4741 
 3929      54545F45 
 3929      52525F52 
 3929      45515545 
 3930              	.LASF43:
ARM GAS  C:\Users\tiantiaf\AppData\Local\Temp\cc2Xz98j.s 			page 124


 3931 1ce9 4359424C 		.ascii	"CYBLE_EVT_GATTC_ERROR_RSP\000"
 3931      455F4556 
 3931      545F4741 
 3931      5454435F 
 3931      4552524F 
 3932              	.LASF156:
 3933 1d03 4359424C 		.ascii	"CYBLE_GAP_IOCAP_KEYBOARD_DISPLAY\000"
 3933      455F4741 
 3933      505F494F 
 3933      4341505F 
 3933      4B455942 
 3934              	.LASF281:
 3935 1d24 4359424C 		.ascii	"CYBLE_STATE_T\000"
 3935      455F5354 
 3935      4154455F 
 3935      5400
 3936              	.LASF71:
 3937 1d32 4359424C 		.ascii	"CYBLE_EVT_L2CAP_CBFC_CONN_IND\000"
 3937      455F4556 
 3937      545F4C32 
 3937      4341505F 
 3937      43424643 
 3938              	.LASF59:
 3939 1d50 4359424C 		.ascii	"CYBLE_EVT_GATTS_EXEC_WRITE_REQ\000"
 3939      455F4556 
 3939      545F4741 
 3939      5454535F 
 3939      45584543 
 3940              	.LASF23:
 3941 1d6f 4359424C 		.ascii	"CYBLE_EVT_GAPC_SCAN_PROGRESS_RESULT\000"
 3941      455F4556 
 3941      545F4741 
 3941      50435F53 
 3941      43414E5F 
 3942              	.LASF254:
 3943 1d93 4359424C 		.ascii	"CYBLE_GATT_ERR_CODE_T\000"
 3943      455F4741 
 3943      54545F45 
 3943      52525F43 
 3943      4F44455F 
 3944              	.LASF249:
 3945 1da9 4359424C 		.ascii	"CYBLE_GATT_ERR_ANCS_INVALID_PARAMETER\000"
 3945      455F4741 
 3945      54545F45 
 3945      52525F41 
 3945      4E43535F 
 3946              	.LASF91:
 3947 1dcf 4359424C 		.ascii	"CYBLE_ERROR_GAP_ROLE\000"
 3947      455F4552 
 3947      524F525F 
 3947      4741505F 
 3947      524F4C45 
 3948              	.LASF295:
 3949 1de4 6379426C 		.ascii	"cyBle_stackMemoryRam\000"
 3949      655F7374 
 3949      61636B4D 
 3949      656D6F72 
ARM GAS  C:\Users\tiantiaf\AppData\Local\Temp\cc2Xz98j.s 			page 125


 3949      7952616D 
 3950              	.LASF303:
 3951 1df9 6379426C 		.ascii	"cyBle_advertisingIntervalType\000"
 3951      655F6164 
 3951      76657274 
 3951      6973696E 
 3951      67496E74 
 3952              	.LASF139:
 3953 1e17 62644164 		.ascii	"bdAddr\000"
 3953      647200
 3954              	.LASF246:
 3955 1e1e 4359424C 		.ascii	"CYBLE_GATT_ERR_ANS_COMMAND_NOT_SUPPORTED\000"
 3955      455F4741 
 3955      54545F45 
 3955      52525F41 
 3955      4E535F43 
 3956              	.LASF304:
 3957 1e47 4379426C 		.ascii	"CyBle_GattsErrorRsp\000"
 3957      655F4761 
 3957      74747345 
 3957      72726F72 
 3957      52737000 
 3958              	.LASF197:
 3959 1e5b 4359424C 		.ascii	"CYBLE_GATT_READ_RSP\000"
 3959      455F4741 
 3959      54545F52 
 3959      4541445F 
 3959      52535000 
 3960              	.LASF289:
 3961 1e6f 62644164 		.ascii	"bdAddrLoc\000"
 3961      64724C6F 
 3961      6300
 3962              	.LASF88:
 3963 1e79 4359424C 		.ascii	"CYBLE_ERROR_NO_CONNECTION\000"
 3963      455F4552 
 3963      524F525F 
 3963      4E4F5F43 
 3963      4F4E4E45 
 3964              	.LASF121:
 3965 1e93 4359424C 		.ascii	"CYBLE_LL_PWR_LVL_0_DBM\000"
 3965      455F4C4C 
 3965      5F505752 
 3965      5F4C564C 
 3965      5F305F44 
 3966              	.LASF315:
 3967 1eaa 6D656D63 		.ascii	"memcpy\000"
 3967      707900
 3968              	.LASF125:
 3969 1eb1 4359424C 		.ascii	"CYBLE_LL_ADV_CH_TYPE\000"
 3969      455F4C4C 
 3969      5F414456 
 3969      5F43485F 
 3969      54595045 
 3970              	.LASF80:
 3971 1ec6 4359424C 		.ascii	"CYBLE_EVT_LE_PING_AUTH_TIMEOUT\000"
 3971      455F4556 
 3971      545F4C45 
ARM GAS  C:\Users\tiantiaf\AppData\Local\Temp\cc2Xz98j.s 			page 126


 3971      5F50494E 
 3971      475F4155 
 3972              	.LASF114:
 3973 1ee5 4359424C 		.ascii	"CYBLE_API_RESULT_T\000"
 3973      455F4150 
 3973      495F5245 
 3973      53554C54 
 3973      5F5400
 3974              	.LASF62:
 3975 1ef8 4359424C 		.ascii	"CYBLE_EVT_GATTC_HANDLE_VALUE_IND\000"
 3975      455F4556 
 3975      545F4741 
 3975      5454435F 
 3975      48414E44 
 3976              	.LASF317:
 3977 1f19 2E5C4765 		.ascii	".\\Generated_Source\\PSoC4\\BLE_LED_eventHandler.c\000"
 3977      6E657261 
 3977      7465645F 
 3977      536F7572 
 3977      63655C50 
 3978              	.LASF287:
 3979 1f49 6576656E 		.ascii	"eventCode\000"
 3979      74436F64 
 3979      6500
 3980              	.LASF94:
 3981 1f53 4359424C 		.ascii	"CYBLE_ERROR_SEC_FAILED\000"
 3981      455F4552 
 3981      524F525F 
 3981      5345435F 
 3981      4641494C 
 3982              	.LASF21:
 3983 1f6a 4359424C 		.ascii	"CYBLE_EVT_STACK_BUSY_STATUS\000"
 3983      455F4556 
 3983      545F5354 
 3983      41434B5F 
 3983      42555359 
 3984              	.LASF184:
 3985 1f86 636F6E6E 		.ascii	"connLatency\000"
 3985      4C617465 
 3985      6E637900 
 3986              	.LASF170:
 3987 1f92 4359424C 		.ascii	"CYBLE_GAP_AUTH_ERROR_NUMERIC_COMPARISON_FAILED\000"
 3987      455F4741 
 3987      505F4155 
 3987      54485F45 
 3987      52524F52 
 3988              	.LASF153:
 3989 1fc1 4359424C 		.ascii	"CYBLE_GAP_IOCAP_DISPLAY_YESNO\000"
 3989      455F4741 
 3989      505F494F 
 3989      4341505F 
 3989      44495350 
 3990              	.LASF35:
 3991 1fdf 4359424C 		.ascii	"CYBLE_EVT_GAP_KEYINFO_EXCHNGE_CMPLT\000"
 3991      455F4556 
 3991      545F4741 
 3991      505F4B45 
ARM GAS  C:\Users\tiantiaf\AppData\Local\Temp\cc2Xz98j.s 			page 127


 3991      59494E46 
 3992              	.LASF209:
 3993 2003 4359424C 		.ascii	"CYBLE_GATT_EXECUTE_WRITE_REQ\000"
 3993      455F4741 
 3993      54545F45 
 3993      58454355 
 3993      54455F57 
 3994              	.LASF131:
 3995 2020 4359424C 		.ascii	"CYBLE_BLESS_PWR_IN_DB_T\000"
 3995      455F424C 
 3995      4553535F 
 3995      5057525F 
 3995      494E5F44 
 3996              	.LASF127:
 3997 2038 4359424C 		.ascii	"CYBLE_LL_MAX_CH_TYPE\000"
 3997      455F4C4C 
 3997      5F4D4158 
 3997      5F43485F 
 3997      54595045 
 3998              	.LASF68:
 3999 204d 4359424C 		.ascii	"CYBLE_EVT_L2CAP_CONN_PARAM_UPDATE_REQ\000"
 3999      455F4556 
 3999      545F4C32 
 3999      4341505F 
 3999      434F4E4E 
 4000              	.LASF134:
 4001 2073 4359424C 		.ascii	"CYBLE_PROTOCOL_REQ_T\000"
 4001      455F5052 
 4001      4F544F43 
 4001      4F4C5F52 
 4001      45515F54 
 4002              	.LASF282:
 4003 2088 67617474 		.ascii	"gattErr\000"
 4003      45727200 
 4004              	.LASF219:
 4005 2090 4359424C 		.ascii	"CYBLE_GATT_ERR_WRITE_NOT_PERMITTED\000"
 4005      455F4741 
 4005      54545F45 
 4005      52525F57 
 4005      52495445 
 4006              	.LASF183:
 4007 20b3 636F6E6E 		.ascii	"connIntv\000"
 4007      496E7476 
 4007      00
 4008              	.LASF3:
 4009 20bc 73686F72 		.ascii	"short unsigned int\000"
 4009      7420756E 
 4009      7369676E 
 4009      65642069 
 4009      6E7400
 4010              	.LASF231:
 4011 20cf 4359424C 		.ascii	"CYBLE_GATT_ERR_INSUFFICIENT_ENCRYPTION\000"
 4011      455F4741 
 4011      54545F45 
 4011      52525F49 
 4011      4E535546 
 4012              	.LASF278:
ARM GAS  C:\Users\tiantiaf\AppData\Local\Temp\cc2Xz98j.s 			page 128


 4013 20f6 4359424C 		.ascii	"CYBLE_STATE_CONNECTED\000"
 4013      455F5354 
 4013      4154455F 
 4013      434F4E4E 
 4013      45435445 
 4014              	.LASF259:
 4015 210c 61637475 		.ascii	"actualLen\000"
 4015      616C4C65 
 4015      6E00
 4016              	.LASF202:
 4017 2116 4359424C 		.ascii	"CYBLE_GATT_READ_BY_GROUP_REQ\000"
 4017      455F4741 
 4017      54545F52 
 4017      4541445F 
 4017      42595F47 
 4018              	.LASF257:
 4019 2133 61747449 		.ascii	"attId\000"
 4019      6400
 4020              	.LASF84:
 4021 2139 4359424C 		.ascii	"CYBLE_ERROR_INVALID_OPERATION\000"
 4021      455F4552 
 4021      524F525F 
 4021      494E5641 
 4021      4C49445F 
 4022              	.LASF20:
 4023 2157 4359424C 		.ascii	"CYBLE_EVT_HCI_STATUS\000"
 4023      455F4556 
 4023      545F4843 
 4023      495F5354 
 4023      41545553 
 4024              	.LASF45:
 4025 216c 4359424C 		.ascii	"CYBLE_EVT_GATT_DISCONNECT_IND\000"
 4025      455F4556 
 4025      545F4741 
 4025      54545F44 
 4025      4953434F 
 4026              	.LASF185:
 4027 218a 73757065 		.ascii	"supervisionTO\000"
 4027      72766973 
 4027      696F6E54 
 4027      4F00
 4028              	.LASF144:
 4029 2198 4359424C 		.ascii	"CYBLE_GATT_RSP_TO\000"
 4029      455F4741 
 4029      54545F52 
 4029      53505F54 
 4029      4F00
 4030              	.LASF78:
 4031 21aa 4359424C 		.ascii	"CYBLE_EVT_L2CAP_CBFC_DATA_WRITE_IND\000"
 4031      455F4556 
 4031      545F4C32 
 4031      4341505F 
 4031      43424643 
 4032              	.LASF67:
 4033 21ce 4359424C 		.ascii	"CYBLE_EVT_GATTC_LONG_PROCEDURE_END\000"
 4033      455F4556 
 4033      545F4741 
ARM GAS  C:\Users\tiantiaf\AppData\Local\Temp\cc2Xz98j.s 			page 129


 4033      5454435F 
 4033      4C4F4E47 
 4034              	.LASF31:
 4035 21f1 4359424C 		.ascii	"CYBLE_EVT_GAP_DEVICE_DISCONNECTED\000"
 4035      455F4556 
 4035      545F4741 
 4035      505F4445 
 4035      56494345 
 4036              	.LASF63:
 4037 2213 4359424C 		.ascii	"CYBLE_EVT_GATTS_HANDLE_VALUE_CNF\000"
 4037      455F4556 
 4037      545F4741 
 4037      5454535F 
 4037      48414E44 
 4038              	.LASF10:
 4039 2234 75696E74 		.ascii	"uint16\000"
 4039      313600
 4040              	.LASF92:
 4041 223b 4359424C 		.ascii	"CYBLE_ERROR_TX_POWER_READ\000"
 4041      455F4552 
 4041      524F525F 
 4041      54585F50 
 4041      4F574552 
 4042              		.ident	"GCC: (GNU Tools for ARM Embedded Processors) 4.9.3 20150303 (release) [ARM/embedded-4_9-br
