ARM GAS  C:\Users\tiantiaf\AppData\Local\Temp\ccwRBDDd.s 			page 1


   1              		.cpu cortex-m0
   2              		.fpu softvfp
   3              		.eabi_attribute 20, 1
   4              		.eabi_attribute 21, 1
   5              		.eabi_attribute 23, 3
   6              		.eabi_attribute 24, 1
   7              		.eabi_attribute 25, 1
   8              		.eabi_attribute 26, 1
   9              		.eabi_attribute 30, 1
  10              		.eabi_attribute 34, 0
  11              		.eabi_attribute 18, 4
  12              		.code	16
  13              		.file	"cyfitter_cfg.c"
  14              		.text
  15              	.Ltext0:
  16              		.cfi_sections	.debug_frame
  17              		.section	.text.cfg_write_bytes32,"ax",%progbits
  18              		.align	2
  19              		.code	16
  20              		.thumb_func
  21              		.type	cfg_write_bytes32, %function
  22              	cfg_write_bytes32:
  23              	.LFB5:
  24              		.file 1 ".\\Generated_Source\\PSoC4\\cyfitter_cfg.c"
   1:.\Generated_Source\PSoC4/cyfitter_cfg.c **** /*******************************************************************************
   2:.\Generated_Source\PSoC4/cyfitter_cfg.c **** * File Name: cyfitter_cfg.c
   3:.\Generated_Source\PSoC4/cyfitter_cfg.c **** * 
   4:.\Generated_Source\PSoC4/cyfitter_cfg.c **** * PSoC Creator No Version Information Found
   5:.\Generated_Source\PSoC4/cyfitter_cfg.c **** *
   6:.\Generated_Source\PSoC4/cyfitter_cfg.c **** * Description:
   7:.\Generated_Source\PSoC4/cyfitter_cfg.c **** * This file contains device initialization code.
   8:.\Generated_Source\PSoC4/cyfitter_cfg.c **** * Except for the user defined sections in CyClockStartupError(), this file should not be modified.
   9:.\Generated_Source\PSoC4/cyfitter_cfg.c **** * This file is automatically generated by PSoC Creator.
  10:.\Generated_Source\PSoC4/cyfitter_cfg.c **** *
  11:.\Generated_Source\PSoC4/cyfitter_cfg.c **** ********************************************************************************
  12:.\Generated_Source\PSoC4/cyfitter_cfg.c **** * Copyright (c) 2007-2016 Cypress Semiconductor.  All rights reserved.
  13:.\Generated_Source\PSoC4/cyfitter_cfg.c **** * You may use this file only in accordance with the license, terms, conditions, 
  14:.\Generated_Source\PSoC4/cyfitter_cfg.c **** * disclaimers, and limitations in the end user license agreement accompanying 
  15:.\Generated_Source\PSoC4/cyfitter_cfg.c **** * the software package with which this file was provided.
  16:.\Generated_Source\PSoC4/cyfitter_cfg.c **** ********************************************************************************/
  17:.\Generated_Source\PSoC4/cyfitter_cfg.c **** 
  18:.\Generated_Source\PSoC4/cyfitter_cfg.c **** #include <string.h>
  19:.\Generated_Source\PSoC4/cyfitter_cfg.c **** #include "cytypes.h"
  20:.\Generated_Source\PSoC4/cyfitter_cfg.c **** #include "cydevice_trm.h"
  21:.\Generated_Source\PSoC4/cyfitter_cfg.c **** #include "cyfitter.h"
  22:.\Generated_Source\PSoC4/cyfitter_cfg.c **** #include "CyLib.h"
  23:.\Generated_Source\PSoC4/cyfitter_cfg.c **** #include "CyLFClk.h"
  24:.\Generated_Source\PSoC4/cyfitter_cfg.c **** #include "cyfitter_cfg.h"
  25:.\Generated_Source\PSoC4/cyfitter_cfg.c **** 
  26:.\Generated_Source\PSoC4/cyfitter_cfg.c **** 
  27:.\Generated_Source\PSoC4/cyfitter_cfg.c **** #if defined(__GNUC__) || defined(__ARMCC_VERSION)
  28:.\Generated_Source\PSoC4/cyfitter_cfg.c ****     #define CYPACKED 
  29:.\Generated_Source\PSoC4/cyfitter_cfg.c ****     #define CYPACKED_ATTR __attribute__ ((packed))
  30:.\Generated_Source\PSoC4/cyfitter_cfg.c ****     #define CYALIGNED __attribute__ ((aligned))
  31:.\Generated_Source\PSoC4/cyfitter_cfg.c ****     #define CY_CFG_UNUSED __attribute__ ((unused))
  32:.\Generated_Source\PSoC4/cyfitter_cfg.c ****     #ifndef CY_CFG_SECTION
  33:.\Generated_Source\PSoC4/cyfitter_cfg.c ****         #define CY_CFG_SECTION __attribute__ ((section(".psocinit")))
ARM GAS  C:\Users\tiantiaf\AppData\Local\Temp\ccwRBDDd.s 			page 2


  34:.\Generated_Source\PSoC4/cyfitter_cfg.c ****     #endif
  35:.\Generated_Source\PSoC4/cyfitter_cfg.c ****     
  36:.\Generated_Source\PSoC4/cyfitter_cfg.c ****     #if defined(__ARMCC_VERSION)
  37:.\Generated_Source\PSoC4/cyfitter_cfg.c ****         #define CY_CFG_MEMORY_BARRIER() __memory_changed()
  38:.\Generated_Source\PSoC4/cyfitter_cfg.c ****     #else
  39:.\Generated_Source\PSoC4/cyfitter_cfg.c ****         #define CY_CFG_MEMORY_BARRIER() __sync_synchronize()
  40:.\Generated_Source\PSoC4/cyfitter_cfg.c ****     #endif
  41:.\Generated_Source\PSoC4/cyfitter_cfg.c ****     
  42:.\Generated_Source\PSoC4/cyfitter_cfg.c **** #elif defined(__ICCARM__)
  43:.\Generated_Source\PSoC4/cyfitter_cfg.c ****     #include <intrinsics.h>
  44:.\Generated_Source\PSoC4/cyfitter_cfg.c **** 
  45:.\Generated_Source\PSoC4/cyfitter_cfg.c ****     #define CYPACKED __packed
  46:.\Generated_Source\PSoC4/cyfitter_cfg.c ****     #define CYPACKED_ATTR 
  47:.\Generated_Source\PSoC4/cyfitter_cfg.c ****     #define CYALIGNED _Pragma("data_alignment=4")
  48:.\Generated_Source\PSoC4/cyfitter_cfg.c ****     #define CY_CFG_UNUSED _Pragma("diag_suppress=Pe177")
  49:.\Generated_Source\PSoC4/cyfitter_cfg.c ****     #define CY_CFG_SECTION _Pragma("location=\".psocinit\"")
  50:.\Generated_Source\PSoC4/cyfitter_cfg.c ****     
  51:.\Generated_Source\PSoC4/cyfitter_cfg.c ****     #define CY_CFG_MEMORY_BARRIER() __DMB()
  52:.\Generated_Source\PSoC4/cyfitter_cfg.c ****     
  53:.\Generated_Source\PSoC4/cyfitter_cfg.c **** #else
  54:.\Generated_Source\PSoC4/cyfitter_cfg.c ****     #error Unsupported toolchain
  55:.\Generated_Source\PSoC4/cyfitter_cfg.c **** #endif
  56:.\Generated_Source\PSoC4/cyfitter_cfg.c **** 
  57:.\Generated_Source\PSoC4/cyfitter_cfg.c **** 
  58:.\Generated_Source\PSoC4/cyfitter_cfg.c **** CY_CFG_UNUSED
  59:.\Generated_Source\PSoC4/cyfitter_cfg.c **** static void CYMEMZERO(void *s, size_t n);
  60:.\Generated_Source\PSoC4/cyfitter_cfg.c **** CY_CFG_UNUSED
  61:.\Generated_Source\PSoC4/cyfitter_cfg.c **** static void CYMEMZERO(void *s, size_t n)
  62:.\Generated_Source\PSoC4/cyfitter_cfg.c **** {
  63:.\Generated_Source\PSoC4/cyfitter_cfg.c **** 	(void)memset(s, 0, n);
  64:.\Generated_Source\PSoC4/cyfitter_cfg.c **** }
  65:.\Generated_Source\PSoC4/cyfitter_cfg.c **** CY_CFG_UNUSED
  66:.\Generated_Source\PSoC4/cyfitter_cfg.c **** static void CYCONFIGCPY(void *dest, const void *src, size_t n);
  67:.\Generated_Source\PSoC4/cyfitter_cfg.c **** CY_CFG_UNUSED
  68:.\Generated_Source\PSoC4/cyfitter_cfg.c **** static void CYCONFIGCPY(void *dest, const void *src, size_t n)
  69:.\Generated_Source\PSoC4/cyfitter_cfg.c **** {
  70:.\Generated_Source\PSoC4/cyfitter_cfg.c **** 	(void)memcpy(dest, src, n);
  71:.\Generated_Source\PSoC4/cyfitter_cfg.c **** }
  72:.\Generated_Source\PSoC4/cyfitter_cfg.c **** CY_CFG_UNUSED
  73:.\Generated_Source\PSoC4/cyfitter_cfg.c **** static void CYCONFIGCPYCODE(void *dest, const void *src, size_t n);
  74:.\Generated_Source\PSoC4/cyfitter_cfg.c **** CY_CFG_UNUSED
  75:.\Generated_Source\PSoC4/cyfitter_cfg.c **** static void CYCONFIGCPYCODE(void *dest, const void *src, size_t n)
  76:.\Generated_Source\PSoC4/cyfitter_cfg.c **** {
  77:.\Generated_Source\PSoC4/cyfitter_cfg.c **** 	(void)memcpy(dest, src, n);
  78:.\Generated_Source\PSoC4/cyfitter_cfg.c **** }
  79:.\Generated_Source\PSoC4/cyfitter_cfg.c **** 
  80:.\Generated_Source\PSoC4/cyfitter_cfg.c **** 
  81:.\Generated_Source\PSoC4/cyfitter_cfg.c **** 
  82:.\Generated_Source\PSoC4/cyfitter_cfg.c **** /* Clock startup error codes                                                   */
  83:.\Generated_Source\PSoC4/cyfitter_cfg.c **** #define CYCLOCKSTART_NO_ERROR    0u
  84:.\Generated_Source\PSoC4/cyfitter_cfg.c **** #define CYCLOCKSTART_XTAL_ERROR  1u
  85:.\Generated_Source\PSoC4/cyfitter_cfg.c **** #define CYCLOCKSTART_32KHZ_ERROR 2u
  86:.\Generated_Source\PSoC4/cyfitter_cfg.c **** #define CYCLOCKSTART_PLL_ERROR   3u
  87:.\Generated_Source\PSoC4/cyfitter_cfg.c **** 
  88:.\Generated_Source\PSoC4/cyfitter_cfg.c **** #ifdef CY_NEED_CYCLOCKSTARTUPERROR
  89:.\Generated_Source\PSoC4/cyfitter_cfg.c **** /*******************************************************************************
  90:.\Generated_Source\PSoC4/cyfitter_cfg.c **** * Function Name: CyClockStartupError
ARM GAS  C:\Users\tiantiaf\AppData\Local\Temp\ccwRBDDd.s 			page 3


  91:.\Generated_Source\PSoC4/cyfitter_cfg.c **** ********************************************************************************
  92:.\Generated_Source\PSoC4/cyfitter_cfg.c **** * Summary:
  93:.\Generated_Source\PSoC4/cyfitter_cfg.c **** *  If an error is encountered during clock configuration (crystal startup error,
  94:.\Generated_Source\PSoC4/cyfitter_cfg.c **** *  PLL lock error, etc.), the system will end up here.  Unless reimplemented by
  95:.\Generated_Source\PSoC4/cyfitter_cfg.c **** *  the customer, this function will stop in an infinite loop.
  96:.\Generated_Source\PSoC4/cyfitter_cfg.c **** *
  97:.\Generated_Source\PSoC4/cyfitter_cfg.c **** * Parameters:
  98:.\Generated_Source\PSoC4/cyfitter_cfg.c **** *   void
  99:.\Generated_Source\PSoC4/cyfitter_cfg.c **** *
 100:.\Generated_Source\PSoC4/cyfitter_cfg.c **** * Return:
 101:.\Generated_Source\PSoC4/cyfitter_cfg.c **** *   void
 102:.\Generated_Source\PSoC4/cyfitter_cfg.c **** *
 103:.\Generated_Source\PSoC4/cyfitter_cfg.c **** *******************************************************************************/
 104:.\Generated_Source\PSoC4/cyfitter_cfg.c **** CY_CFG_UNUSED
 105:.\Generated_Source\PSoC4/cyfitter_cfg.c **** static void CyClockStartupError(uint8 errorCode);
 106:.\Generated_Source\PSoC4/cyfitter_cfg.c **** CY_CFG_UNUSED
 107:.\Generated_Source\PSoC4/cyfitter_cfg.c **** static void CyClockStartupError(uint8 errorCode)
 108:.\Generated_Source\PSoC4/cyfitter_cfg.c **** {
 109:.\Generated_Source\PSoC4/cyfitter_cfg.c ****     /* To remove the compiler warning if errorCode not used.                */
 110:.\Generated_Source\PSoC4/cyfitter_cfg.c ****     errorCode = errorCode;
 111:.\Generated_Source\PSoC4/cyfitter_cfg.c **** 
 112:.\Generated_Source\PSoC4/cyfitter_cfg.c ****     /* `#START CyClockStartupError` */
 113:.\Generated_Source\PSoC4/cyfitter_cfg.c **** 
 114:.\Generated_Source\PSoC4/cyfitter_cfg.c ****     /* If we have a clock startup error (bad MHz crystal, PLL lock, etc.),  */
 115:.\Generated_Source\PSoC4/cyfitter_cfg.c ****     /* we will end up here to allow the customer to implement something to  */
 116:.\Generated_Source\PSoC4/cyfitter_cfg.c ****     /* deal with the clock condition.                                       */
 117:.\Generated_Source\PSoC4/cyfitter_cfg.c **** 
 118:.\Generated_Source\PSoC4/cyfitter_cfg.c ****     /* `#END` */
 119:.\Generated_Source\PSoC4/cyfitter_cfg.c **** 
 120:.\Generated_Source\PSoC4/cyfitter_cfg.c ****     /* If nothing else, stop here since the clocks have not started         */
 121:.\Generated_Source\PSoC4/cyfitter_cfg.c ****     /* correctly.                                                           */
 122:.\Generated_Source\PSoC4/cyfitter_cfg.c ****     while(1) {}
 123:.\Generated_Source\PSoC4/cyfitter_cfg.c **** }
 124:.\Generated_Source\PSoC4/cyfitter_cfg.c **** #endif
 125:.\Generated_Source\PSoC4/cyfitter_cfg.c **** 
 126:.\Generated_Source\PSoC4/cyfitter_cfg.c **** #define CY_CFG_BASE_ADDR_COUNT 8u
 127:.\Generated_Source\PSoC4/cyfitter_cfg.c **** CYPACKED typedef struct
 128:.\Generated_Source\PSoC4/cyfitter_cfg.c **** {
 129:.\Generated_Source\PSoC4/cyfitter_cfg.c **** 	uint8 offset;
 130:.\Generated_Source\PSoC4/cyfitter_cfg.c **** 	uint8 value;
 131:.\Generated_Source\PSoC4/cyfitter_cfg.c **** } CYPACKED_ATTR cy_cfg_addrvalue_t;
 132:.\Generated_Source\PSoC4/cyfitter_cfg.c **** 
 133:.\Generated_Source\PSoC4/cyfitter_cfg.c **** 
 134:.\Generated_Source\PSoC4/cyfitter_cfg.c **** 
 135:.\Generated_Source\PSoC4/cyfitter_cfg.c **** /*******************************************************************************
 136:.\Generated_Source\PSoC4/cyfitter_cfg.c **** * Function Name: cfg_write_bytes32
 137:.\Generated_Source\PSoC4/cyfitter_cfg.c **** ********************************************************************************
 138:.\Generated_Source\PSoC4/cyfitter_cfg.c **** * Summary:
 139:.\Generated_Source\PSoC4/cyfitter_cfg.c **** *  This function is used for setting up the chip configuration areas that
 140:.\Generated_Source\PSoC4/cyfitter_cfg.c **** *  contain relatively sparse data.
 141:.\Generated_Source\PSoC4/cyfitter_cfg.c **** *
 142:.\Generated_Source\PSoC4/cyfitter_cfg.c **** * Parameters:
 143:.\Generated_Source\PSoC4/cyfitter_cfg.c **** *   void
 144:.\Generated_Source\PSoC4/cyfitter_cfg.c **** *
 145:.\Generated_Source\PSoC4/cyfitter_cfg.c **** * Return:
 146:.\Generated_Source\PSoC4/cyfitter_cfg.c **** *   void
 147:.\Generated_Source\PSoC4/cyfitter_cfg.c **** *
ARM GAS  C:\Users\tiantiaf\AppData\Local\Temp\ccwRBDDd.s 			page 4


 148:.\Generated_Source\PSoC4/cyfitter_cfg.c **** *******************************************************************************/
 149:.\Generated_Source\PSoC4/cyfitter_cfg.c **** static void cfg_write_bytes32(const uint32 addr_table[], const cy_cfg_addrvalue_t data_table[]);
 150:.\Generated_Source\PSoC4/cyfitter_cfg.c **** static void cfg_write_bytes32(const uint32 addr_table[], const cy_cfg_addrvalue_t data_table[])
 151:.\Generated_Source\PSoC4/cyfitter_cfg.c **** {
  25              		.loc 1 151 0
  26              		.cfi_startproc
  27              	.LVL0:
  28 0000 F0B5     		push	{r4, r5, r6, r7, lr}
  29              		.cfi_def_cfa_offset 20
  30              		.cfi_offset 4, -20
  31              		.cfi_offset 5, -16
  32              		.cfi_offset 6, -12
  33              		.cfi_offset 7, -8
  34              		.cfi_offset 14, -4
  35              	.LVL1:
 152:.\Generated_Source\PSoC4/cyfitter_cfg.c **** 	/* For 32-bit little-endian architectures */
 153:.\Generated_Source\PSoC4/cyfitter_cfg.c **** 	uint32 i, j = 0u;
  36              		.loc 1 153 0
  37 0002 0025     		mov	r5, #0
 154:.\Generated_Source\PSoC4/cyfitter_cfg.c **** 	for (i = 0u; i < CY_CFG_BASE_ADDR_COUNT; i++)
  38              		.loc 1 154 0
  39 0004 0027     		mov	r7, #0
  40 0006 11E0     		b	.L2
  41              	.LVL2:
  42              	.L5:
  43              	.LBB2:
 155:.\Generated_Source\PSoC4/cyfitter_cfg.c **** 	{
 156:.\Generated_Source\PSoC4/cyfitter_cfg.c **** 		uint32 baseAddr = addr_table[i];
  44              		.loc 1 156 0
  45 0008 BB00     		lsl	r3, r7, #2
  46 000a C658     		ldr	r6, [r0, r3]
  47              	.LVL3:
 157:.\Generated_Source\PSoC4/cyfitter_cfg.c **** 		uint8 count = (uint8)baseAddr;
  48              		.loc 1 157 0
  49 000c F3B2     		uxtb	r3, r6
  50              	.LVL4:
 158:.\Generated_Source\PSoC4/cyfitter_cfg.c **** 		baseAddr &= 0xFFFFFF00u;
  51              		.loc 1 158 0
  52 000e FF22     		mov	r2, #255
  53 0010 9643     		bic	r6, r2
  54              	.LVL5:
 159:.\Generated_Source\PSoC4/cyfitter_cfg.c **** 		while (count != 0u)
  55              		.loc 1 159 0
  56 0012 08E0     		b	.L3
  57              	.L4:
 160:.\Generated_Source\PSoC4/cyfitter_cfg.c **** 		{
 161:.\Generated_Source\PSoC4/cyfitter_cfg.c **** 			CY_SET_XTND_REG8((void CYFAR *)(baseAddr + data_table[j].offset), data_table[j].value);
  58              		.loc 1 161 0
  59 0014 6A00     		lsl	r2, r5, #1
  60 0016 8A18     		add	r2, r1, r2
  61 0018 1478     		ldrb	r4, [r2]
  62 001a A419     		add	r4, r4, r6
  63 001c 5278     		ldrb	r2, [r2, #1]
  64 001e 2270     		strb	r2, [r4]
 162:.\Generated_Source\PSoC4/cyfitter_cfg.c **** 			j++;
  65              		.loc 1 162 0
  66 0020 0135     		add	r5, r5, #1
ARM GAS  C:\Users\tiantiaf\AppData\Local\Temp\ccwRBDDd.s 			page 5


  67              	.LVL6:
 163:.\Generated_Source\PSoC4/cyfitter_cfg.c **** 			count--;
  68              		.loc 1 163 0
  69 0022 013B     		sub	r3, r3, #1
  70              	.LVL7:
  71 0024 DBB2     		uxtb	r3, r3
  72              	.LVL8:
  73              	.L3:
 159:.\Generated_Source\PSoC4/cyfitter_cfg.c **** 		{
  74              		.loc 1 159 0
  75 0026 002B     		cmp	r3, #0
  76 0028 F4D1     		bne	.L4
  77              	.LBE2:
 154:.\Generated_Source\PSoC4/cyfitter_cfg.c **** 	{
  78              		.loc 1 154 0 discriminator 2
  79 002a 0137     		add	r7, r7, #1
  80              	.LVL9:
  81              	.L2:
 154:.\Generated_Source\PSoC4/cyfitter_cfg.c **** 	{
  82              		.loc 1 154 0 is_stmt 0 discriminator 1
  83 002c 072F     		cmp	r7, #7
  84 002e EBD9     		bls	.L5
 164:.\Generated_Source\PSoC4/cyfitter_cfg.c **** 		}
 165:.\Generated_Source\PSoC4/cyfitter_cfg.c **** 	}
 166:.\Generated_Source\PSoC4/cyfitter_cfg.c **** }
  85              		.loc 1 166 0 is_stmt 1
  86              		@ sp needed
  87              	.LVL10:
  88              	.LVL11:
  89 0030 F0BD     		pop	{r4, r5, r6, r7, pc}
  90              		.cfi_endproc
  91              	.LFE5:
  92              		.size	cfg_write_bytes32, .-cfg_write_bytes32
  93 0032 C046     		.section	.text.AnalogSetDefault,"ax",%progbits
  94              		.align	2
  95              		.code	16
  96              		.thumb_func
  97              		.type	AnalogSetDefault, %function
  98              	AnalogSetDefault:
  99              	.LFB7:
 167:.\Generated_Source\PSoC4/cyfitter_cfg.c **** 
 168:.\Generated_Source\PSoC4/cyfitter_cfg.c **** 
 169:.\Generated_Source\PSoC4/cyfitter_cfg.c **** /*******************************************************************************
 170:.\Generated_Source\PSoC4/cyfitter_cfg.c **** * Function Name: ClockSetup
 171:.\Generated_Source\PSoC4/cyfitter_cfg.c **** ********************************************************************************
 172:.\Generated_Source\PSoC4/cyfitter_cfg.c **** *
 173:.\Generated_Source\PSoC4/cyfitter_cfg.c **** * Summary:
 174:.\Generated_Source\PSoC4/cyfitter_cfg.c **** *   Performs the initialization of all of the clocks in the device based on the
 175:.\Generated_Source\PSoC4/cyfitter_cfg.c **** *   settings in the Clock tab of the DWR.  This includes enabling the requested
 176:.\Generated_Source\PSoC4/cyfitter_cfg.c **** *   clocks and setting the necessary dividers to produce the desired frequency. 
 177:.\Generated_Source\PSoC4/cyfitter_cfg.c **** *
 178:.\Generated_Source\PSoC4/cyfitter_cfg.c **** * Parameters:
 179:.\Generated_Source\PSoC4/cyfitter_cfg.c **** *   void
 180:.\Generated_Source\PSoC4/cyfitter_cfg.c **** *
 181:.\Generated_Source\PSoC4/cyfitter_cfg.c **** * Return:
 182:.\Generated_Source\PSoC4/cyfitter_cfg.c **** *   void
 183:.\Generated_Source\PSoC4/cyfitter_cfg.c **** *
ARM GAS  C:\Users\tiantiaf\AppData\Local\Temp\ccwRBDDd.s 			page 6


 184:.\Generated_Source\PSoC4/cyfitter_cfg.c **** *******************************************************************************/
 185:.\Generated_Source\PSoC4/cyfitter_cfg.c **** static void ClockSetup(void);
 186:.\Generated_Source\PSoC4/cyfitter_cfg.c **** CY_CFG_SECTION
 187:.\Generated_Source\PSoC4/cyfitter_cfg.c **** static void ClockSetup(void)
 188:.\Generated_Source\PSoC4/cyfitter_cfg.c **** {
 189:.\Generated_Source\PSoC4/cyfitter_cfg.c **** 
 190:.\Generated_Source\PSoC4/cyfitter_cfg.c **** 	/* Set Flash Cycles based on max possible frequency in case a glitch occurs during ClockSetup(). *
 191:.\Generated_Source\PSoC4/cyfitter_cfg.c **** 	CY_SET_REG32((void CYXDATA *)(CYREG_CPUSS_FLASH_CTL), (0x0012u));
 192:.\Generated_Source\PSoC4/cyfitter_cfg.c **** 
 193:.\Generated_Source\PSoC4/cyfitter_cfg.c **** 	/* Start the WCO */
 194:.\Generated_Source\PSoC4/cyfitter_cfg.c **** 	CySysClkWcoStart();
 195:.\Generated_Source\PSoC4/cyfitter_cfg.c **** 	CyDelayCycles(12000000u); /* WCO may take up to 500ms to start */
 196:.\Generated_Source\PSoC4/cyfitter_cfg.c **** 	(void)CySysClkWcoSetPowerMode(CY_SYS_CLK_WCO_LPM);    /* Switch to the low power mode */
 197:.\Generated_Source\PSoC4/cyfitter_cfg.c **** 
 198:.\Generated_Source\PSoC4/cyfitter_cfg.c **** 	/* Setup and trim IMO based on desired frequency. */
 199:.\Generated_Source\PSoC4/cyfitter_cfg.c **** 	CySysClkWriteImoFreq(48u);
 200:.\Generated_Source\PSoC4/cyfitter_cfg.c **** 	/* CYDEV_CLK_ILO_CONFIG Starting address: CYDEV_CLK_ILO_CONFIG */
 201:.\Generated_Source\PSoC4/cyfitter_cfg.c **** 	CY_SET_XTND_REG32((void CYFAR *)(CYREG_CLK_ILO_CONFIG), 0x80000006u);
 202:.\Generated_Source\PSoC4/cyfitter_cfg.c **** 
 203:.\Generated_Source\PSoC4/cyfitter_cfg.c **** 	/* CYDEV_WDT_CONFIG Starting address: CYDEV_WDT_CONFIG */
 204:.\Generated_Source\PSoC4/cyfitter_cfg.c **** 	CY_SET_XTND_REG32((void CYFAR *)(CYREG_WDT_CONFIG), 0x40000000u);
 205:.\Generated_Source\PSoC4/cyfitter_cfg.c **** 
 206:.\Generated_Source\PSoC4/cyfitter_cfg.c **** 
 207:.\Generated_Source\PSoC4/cyfitter_cfg.c **** 	/* Enable fast start mode for XO */
 208:.\Generated_Source\PSoC4/cyfitter_cfg.c **** 	CY_SET_REG32((void*)CYREG_BLE_BLERD_BB_XO, CY_GET_REG32((void*)CYREG_BLE_BLERD_BB_XO) | (uint32)0x
 209:.\Generated_Source\PSoC4/cyfitter_cfg.c **** 	CY_SET_XTND_REG32((void CYFAR *)(CYREG_BLE_BLERD_BB_XO_CAPTRIM), 0x00003E2Du);
 210:.\Generated_Source\PSoC4/cyfitter_cfg.c **** 	/* Disable Crystal Stable Interrupt before enabling ECO */
 211:.\Generated_Source\PSoC4/cyfitter_cfg.c **** 	CY_SET_REG32((void*)CYREG_BLE_BLESS_LL_DSM_CTRL, CY_GET_REG32((void*)CYREG_BLE_BLESS_LL_DSM_CTRL) 
 212:.\Generated_Source\PSoC4/cyfitter_cfg.c **** 	/* Start the ECO and do not check status since it is not needed for HFCLK */
 213:.\Generated_Source\PSoC4/cyfitter_cfg.c **** 	(void)CySysClkEcoStart(2000u);
 214:.\Generated_Source\PSoC4/cyfitter_cfg.c **** 	CyDelayUs(1500u); /* Wait to stabalize */
 215:.\Generated_Source\PSoC4/cyfitter_cfg.c **** 
 216:.\Generated_Source\PSoC4/cyfitter_cfg.c **** 	/* Setup phase aligned clocks */
 217:.\Generated_Source\PSoC4/cyfitter_cfg.c **** 	CY_SET_REG32((void *)CYREG_PERI_DIV_16_CTL0, 0x0001DF00u);
 218:.\Generated_Source\PSoC4/cyfitter_cfg.c **** 	CY_SET_REG32((void *)CYREG_PERI_DIV_CMD, 0x8000FF40u);
 219:.\Generated_Source\PSoC4/cyfitter_cfg.c **** 
 220:.\Generated_Source\PSoC4/cyfitter_cfg.c **** 	/* CYDEV_CLK_IMO_CONFIG Starting address: CYDEV_CLK_IMO_CONFIG */
 221:.\Generated_Source\PSoC4/cyfitter_cfg.c **** 	CY_SET_XTND_REG32((void CYFAR *)(CYREG_CLK_IMO_CONFIG), 0x80000000u);
 222:.\Generated_Source\PSoC4/cyfitter_cfg.c **** 
 223:.\Generated_Source\PSoC4/cyfitter_cfg.c **** 	/* CYDEV_CLK_SELECT Starting address: CYDEV_CLK_SELECT */
 224:.\Generated_Source\PSoC4/cyfitter_cfg.c **** 	CY_SET_XTND_REG32((void CYFAR *)(CYREG_CLK_SELECT), 0x00040000u);
 225:.\Generated_Source\PSoC4/cyfitter_cfg.c **** 
 226:.\Generated_Source\PSoC4/cyfitter_cfg.c **** 	/* CYDEV_PERI_PCLK_CTL11 Starting address: CYDEV_PERI_PCLK_CTL11 */
 227:.\Generated_Source\PSoC4/cyfitter_cfg.c **** 	CY_SET_XTND_REG32((void CYFAR *)(CYREG_PERI_PCLK_CTL11), 0x00000040u);
 228:.\Generated_Source\PSoC4/cyfitter_cfg.c **** 
 229:.\Generated_Source\PSoC4/cyfitter_cfg.c **** 	(void)CyIntSetVector(8u, &CySysWdtIsr);
 230:.\Generated_Source\PSoC4/cyfitter_cfg.c **** 	CyIntEnable(8u);
 231:.\Generated_Source\PSoC4/cyfitter_cfg.c **** 	CY_SET_XTND_REG32((void CYFAR *)(CYREG_WDT_CONFIG), 0x40000000u);
 232:.\Generated_Source\PSoC4/cyfitter_cfg.c **** }
 233:.\Generated_Source\PSoC4/cyfitter_cfg.c **** 
 234:.\Generated_Source\PSoC4/cyfitter_cfg.c **** 
 235:.\Generated_Source\PSoC4/cyfitter_cfg.c **** /* Analog API Functions */
 236:.\Generated_Source\PSoC4/cyfitter_cfg.c **** 
 237:.\Generated_Source\PSoC4/cyfitter_cfg.c **** 
 238:.\Generated_Source\PSoC4/cyfitter_cfg.c **** /*******************************************************************************
 239:.\Generated_Source\PSoC4/cyfitter_cfg.c **** * Function Name: AnalogSetDefault
 240:.\Generated_Source\PSoC4/cyfitter_cfg.c **** ********************************************************************************
ARM GAS  C:\Users\tiantiaf\AppData\Local\Temp\ccwRBDDd.s 			page 7


 241:.\Generated_Source\PSoC4/cyfitter_cfg.c **** *
 242:.\Generated_Source\PSoC4/cyfitter_cfg.c **** * Summary:
 243:.\Generated_Source\PSoC4/cyfitter_cfg.c **** *  Sets up the analog portions of the chip to default values based on chip
 244:.\Generated_Source\PSoC4/cyfitter_cfg.c **** *  configuration options from the project.
 245:.\Generated_Source\PSoC4/cyfitter_cfg.c **** *
 246:.\Generated_Source\PSoC4/cyfitter_cfg.c **** * Parameters:
 247:.\Generated_Source\PSoC4/cyfitter_cfg.c **** *  void
 248:.\Generated_Source\PSoC4/cyfitter_cfg.c **** *
 249:.\Generated_Source\PSoC4/cyfitter_cfg.c **** * Return:
 250:.\Generated_Source\PSoC4/cyfitter_cfg.c **** *  void
 251:.\Generated_Source\PSoC4/cyfitter_cfg.c **** *
 252:.\Generated_Source\PSoC4/cyfitter_cfg.c **** *******************************************************************************/
 253:.\Generated_Source\PSoC4/cyfitter_cfg.c **** static void AnalogSetDefault(void);
 254:.\Generated_Source\PSoC4/cyfitter_cfg.c **** static void AnalogSetDefault(void)
 255:.\Generated_Source\PSoC4/cyfitter_cfg.c **** {
 100              		.loc 1 255 0
 101              		.cfi_startproc
 256:.\Generated_Source\PSoC4/cyfitter_cfg.c **** 	CY_SET_XTND_REG32((void CYFAR *)CYREG_CTBM0_DFT_CTRL, 0x00000003u);
 102              		.loc 1 256 0
 103 0000 0323     		mov	r3, #3
 104 0002 044A     		ldr	r2, .L7
 105 0004 1360     		str	r3, [r2]
 257:.\Generated_Source\PSoC4/cyfitter_cfg.c **** 	CY_SET_XTND_REG32((void CYFAR *)CYREG_CTBM1_DFT_CTRL, 0x00000003u);
 106              		.loc 1 257 0
 107 0006 044A     		ldr	r2, .L7+4
 108 0008 1360     		str	r3, [r2]
 258:.\Generated_Source\PSoC4/cyfitter_cfg.c **** 	CY_SET_XTND_REG32((void CYFAR *)CYREG_PASS_DSAB_DSAB_CTRL, 0x00000000u);
 109              		.loc 1 258 0
 110 000a 0022     		mov	r2, #0
 111 000c 034B     		ldr	r3, .L7+8
 112 000e 1A60     		str	r2, [r3]
 259:.\Generated_Source\PSoC4/cyfitter_cfg.c **** }
 113              		.loc 1 259 0
 114              		@ sp needed
 115 0010 7047     		bx	lr
 116              	.L8:
 117 0012 C046     		.align	2
 118              	.L7:
 119 0014 30003040 		.word	1076887600
 120 0018 30003140 		.word	1076953136
 121 001c 000E3F40 		.word	1077874176
 122              		.cfi_endproc
 123              	.LFE7:
 124              		.size	AnalogSetDefault, .-AnalogSetDefault
 125              		.section	.text.CYMEMZERO,"ax",%progbits
 126              		.align	2
 127              		.code	16
 128              		.thumb_func
 129              		.type	CYMEMZERO, %function
 130              	CYMEMZERO:
 131              	.LFB2:
  62:.\Generated_Source\PSoC4/cyfitter_cfg.c **** 	(void)memset(s, 0, n);
 132              		.loc 1 62 0
 133              		.cfi_startproc
 134              	.LVL12:
 135 0000 08B5     		push	{r3, lr}
 136              		.cfi_def_cfa_offset 8
ARM GAS  C:\Users\tiantiaf\AppData\Local\Temp\ccwRBDDd.s 			page 8


 137              		.cfi_offset 3, -8
 138              		.cfi_offset 14, -4
 139 0002 0A1C     		mov	r2, r1
  63:.\Generated_Source\PSoC4/cyfitter_cfg.c **** }
 140              		.loc 1 63 0
 141 0004 0021     		mov	r1, #0
 142              	.LVL13:
 143 0006 FFF7FEFF 		bl	memset
 144              	.LVL14:
  64:.\Generated_Source\PSoC4/cyfitter_cfg.c **** CY_CFG_UNUSED
 145              		.loc 1 64 0
 146              		@ sp needed
 147 000a 08BD     		pop	{r3, pc}
 148              		.cfi_endproc
 149              	.LFE2:
 150              		.size	CYMEMZERO, .-CYMEMZERO
 151              		.section	.psocinit,"ax",%progbits
 152              		.align	2
 153              		.code	16
 154              		.thumb_func
 155              		.type	ClockSetup, %function
 156              	ClockSetup:
 157              	.LFB6:
 188:.\Generated_Source\PSoC4/cyfitter_cfg.c **** 
 158              		.loc 1 188 0
 159              		.cfi_startproc
 160 0000 38B5     		push	{r3, r4, r5, lr}
 161              		.cfi_def_cfa_offset 16
 162              		.cfi_offset 3, -16
 163              		.cfi_offset 4, -12
 164              		.cfi_offset 5, -8
 165              		.cfi_offset 14, -4
 191:.\Generated_Source\PSoC4/cyfitter_cfg.c **** 
 166              		.loc 1 191 0
 167 0002 1222     		mov	r2, #18
 168 0004 204B     		ldr	r3, .L11
 169 0006 1A60     		str	r2, [r3]
 194:.\Generated_Source\PSoC4/cyfitter_cfg.c **** 	CyDelayCycles(12000000u); /* WCO may take up to 500ms to start */
 170              		.loc 1 194 0
 171 0008 FFF7FEFF 		bl	CySysClkWcoStart
 172              	.LVL15:
 195:.\Generated_Source\PSoC4/cyfitter_cfg.c **** 	(void)CySysClkWcoSetPowerMode(CY_SYS_CLK_WCO_LPM);    /* Switch to the low power mode */
 173              		.loc 1 195 0
 174 000c 1F48     		ldr	r0, .L11+4
 175 000e FFF7FEFF 		bl	CyDelayCycles
 176              	.LVL16:
 196:.\Generated_Source\PSoC4/cyfitter_cfg.c **** 
 177              		.loc 1 196 0
 178 0012 0120     		mov	r0, #1
 179 0014 FFF7FEFF 		bl	CySysClkWcoSetPowerMode
 180              	.LVL17:
 199:.\Generated_Source\PSoC4/cyfitter_cfg.c **** 	/* CYDEV_CLK_ILO_CONFIG Starting address: CYDEV_CLK_ILO_CONFIG */
 181              		.loc 1 199 0
 182 0018 3020     		mov	r0, #48
 183 001a FFF7FEFF 		bl	CySysClkWriteImoFreq
 184              	.LVL18:
 201:.\Generated_Source\PSoC4/cyfitter_cfg.c **** 
ARM GAS  C:\Users\tiantiaf\AppData\Local\Temp\ccwRBDDd.s 			page 9


 185              		.loc 1 201 0
 186 001e 1C4A     		ldr	r2, .L11+8
 187 0020 1C4B     		ldr	r3, .L11+12
 188 0022 1A60     		str	r2, [r3]
 204:.\Generated_Source\PSoC4/cyfitter_cfg.c **** 
 189              		.loc 1 204 0
 190 0024 1C4C     		ldr	r4, .L11+16
 191 0026 8025     		mov	r5, #128
 192 0028 ED05     		lsl	r5, r5, #23
 193 002a 2560     		str	r5, [r4]
 208:.\Generated_Source\PSoC4/cyfitter_cfg.c **** 	CY_SET_XTND_REG32((void CYFAR *)(CYREG_BLE_BLERD_BB_XO_CAPTRIM), 0x00003E2Du);
 194              		.loc 1 208 0
 195 002c 1B4A     		ldr	r2, .L11+20
 196 002e 1168     		ldr	r1, [r2]
 197 0030 0223     		mov	r3, #2
 198 0032 0B43     		orr	r3, r1
 199 0034 1360     		str	r3, [r2]
 209:.\Generated_Source\PSoC4/cyfitter_cfg.c **** 	/* Disable Crystal Stable Interrupt before enabling ECO */
 200              		.loc 1 209 0
 201 0036 1A4A     		ldr	r2, .L11+24
 202 0038 1A4B     		ldr	r3, .L11+28
 203 003a 1A60     		str	r2, [r3]
 211:.\Generated_Source\PSoC4/cyfitter_cfg.c **** 	/* Start the ECO and do not check status since it is not needed for HFCLK */
 204              		.loc 1 211 0
 205 003c 1A4A     		ldr	r2, .L11+32
 206 003e 1368     		ldr	r3, [r2]
 207 0040 0821     		mov	r1, #8
 208 0042 8B43     		bic	r3, r1
 209 0044 1360     		str	r3, [r2]
 213:.\Generated_Source\PSoC4/cyfitter_cfg.c **** 	CyDelayUs(1500u); /* Wait to stabalize */
 210              		.loc 1 213 0
 211 0046 FA20     		mov	r0, #250
 212 0048 C000     		lsl	r0, r0, #3
 213 004a FFF7FEFF 		bl	CySysClkEcoStart
 214              	.LVL19:
 214:.\Generated_Source\PSoC4/cyfitter_cfg.c **** 
 215              		.loc 1 214 0
 216 004e 1748     		ldr	r0, .L11+36
 217 0050 FFF7FEFF 		bl	CyDelayUs
 218              	.LVL20:
 217:.\Generated_Source\PSoC4/cyfitter_cfg.c **** 	CY_SET_REG32((void *)CYREG_PERI_DIV_CMD, 0x8000FF40u);
 219              		.loc 1 217 0
 220 0054 164A     		ldr	r2, .L11+40
 221 0056 174B     		ldr	r3, .L11+44
 222 0058 1A60     		str	r2, [r3]
 218:.\Generated_Source\PSoC4/cyfitter_cfg.c **** 
 223              		.loc 1 218 0
 224 005a 174A     		ldr	r2, .L11+48
 225 005c 174B     		ldr	r3, .L11+52
 226 005e 1A60     		str	r2, [r3]
 221:.\Generated_Source\PSoC4/cyfitter_cfg.c **** 
 227              		.loc 1 221 0
 228 0060 8022     		mov	r2, #128
 229 0062 1206     		lsl	r2, r2, #24
 230 0064 164B     		ldr	r3, .L11+56
 231 0066 1A60     		str	r2, [r3]
 224:.\Generated_Source\PSoC4/cyfitter_cfg.c **** 
ARM GAS  C:\Users\tiantiaf\AppData\Local\Temp\ccwRBDDd.s 			page 10


 232              		.loc 1 224 0
 233 0068 8022     		mov	r2, #128
 234 006a D202     		lsl	r2, r2, #11
 235 006c 154B     		ldr	r3, .L11+60
 236 006e 1A60     		str	r2, [r3]
 227:.\Generated_Source\PSoC4/cyfitter_cfg.c **** 
 237              		.loc 1 227 0
 238 0070 4022     		mov	r2, #64
 239 0072 154B     		ldr	r3, .L11+64
 240 0074 1A60     		str	r2, [r3]
 229:.\Generated_Source\PSoC4/cyfitter_cfg.c **** 	CyIntEnable(8u);
 241              		.loc 1 229 0
 242 0076 0820     		mov	r0, #8
 243 0078 1449     		ldr	r1, .L11+68
 244 007a FFF7FEFF 		bl	CyIntSetVector
 245              	.LVL21:
 230:.\Generated_Source\PSoC4/cyfitter_cfg.c **** 	CY_SET_XTND_REG32((void CYFAR *)(CYREG_WDT_CONFIG), 0x40000000u);
 246              		.loc 1 230 0
 247 007e 0820     		mov	r0, #8
 248 0080 FFF7FEFF 		bl	CyIntEnable
 249              	.LVL22:
 231:.\Generated_Source\PSoC4/cyfitter_cfg.c **** }
 250              		.loc 1 231 0
 251 0084 2560     		str	r5, [r4]
 232:.\Generated_Source\PSoC4/cyfitter_cfg.c **** 
 252              		.loc 1 232 0
 253              		@ sp needed
 254 0086 38BD     		pop	{r3, r4, r5, pc}
 255              	.L12:
 256              		.align	2
 257              	.L11:
 258 0088 30001040 		.word	1074790448
 259 008c 001BB700 		.word	12000000
 260 0090 06000080 		.word	-2147483642
 261 0094 04010B40 		.word	1074462980
 262 0098 0C020B40 		.word	1074463244
 263 009c 78002E40 		.word	1076756600
 264 00a0 2D3E0000 		.word	15917
 265 00a4 7C002E40 		.word	1076756604
 266 00a8 6CF02E40 		.word	1076818028
 267 00ac DC050000 		.word	1500
 268 00b0 00DF0100 		.word	122624
 269 00b4 00030140 		.word	1073808128
 270 00b8 40FF0080 		.word	-2147418304
 271 00bc 00000140 		.word	1073807360
 272 00c0 08010B40 		.word	1074462984
 273 00c4 00010B40 		.word	1074462976
 274 00c8 2C010140 		.word	1073807660
 275 00cc 00000000 		.word	CySysWdtIsr
 276              		.cfi_endproc
 277              	.LFE6:
 278              		.size	ClockSetup, .-ClockSetup
 279              		.align	2
 280              		.global	cyfitter_cfg
 281              		.code	16
 282              		.thumb_func
 283              		.type	cyfitter_cfg, %function
ARM GAS  C:\Users\tiantiaf\AppData\Local\Temp\ccwRBDDd.s 			page 11


 284              	cyfitter_cfg:
 285              	.LFB8:
 260:.\Generated_Source\PSoC4/cyfitter_cfg.c **** 
 261:.\Generated_Source\PSoC4/cyfitter_cfg.c **** #define CY_AMUX_UNUSED CYREG_CM0_ROM_DWT
 262:.\Generated_Source\PSoC4/cyfitter_cfg.c **** 
 263:.\Generated_Source\PSoC4/cyfitter_cfg.c **** 
 264:.\Generated_Source\PSoC4/cyfitter_cfg.c **** /*******************************************************************************
 265:.\Generated_Source\PSoC4/cyfitter_cfg.c **** * Function Name: cyfitter_cfg
 266:.\Generated_Source\PSoC4/cyfitter_cfg.c **** ********************************************************************************
 267:.\Generated_Source\PSoC4/cyfitter_cfg.c **** * Summary:
 268:.\Generated_Source\PSoC4/cyfitter_cfg.c **** *  This function is called by the start-up code for the selected device. It
 269:.\Generated_Source\PSoC4/cyfitter_cfg.c **** *  performs all of the necessary device configuration based on the design
 270:.\Generated_Source\PSoC4/cyfitter_cfg.c **** *  settings.  This includes settings from the Design Wide Resources (DWR) such
 271:.\Generated_Source\PSoC4/cyfitter_cfg.c **** *  as Clocks and Pins as well as any component configuration that is necessary.
 272:.\Generated_Source\PSoC4/cyfitter_cfg.c **** *
 273:.\Generated_Source\PSoC4/cyfitter_cfg.c **** * Parameters:  
 274:.\Generated_Source\PSoC4/cyfitter_cfg.c **** *   void
 275:.\Generated_Source\PSoC4/cyfitter_cfg.c **** *
 276:.\Generated_Source\PSoC4/cyfitter_cfg.c **** * Return:
 277:.\Generated_Source\PSoC4/cyfitter_cfg.c **** *   void
 278:.\Generated_Source\PSoC4/cyfitter_cfg.c **** *
 279:.\Generated_Source\PSoC4/cyfitter_cfg.c **** *******************************************************************************/
 280:.\Generated_Source\PSoC4/cyfitter_cfg.c **** CY_CFG_SECTION
 281:.\Generated_Source\PSoC4/cyfitter_cfg.c **** void cyfitter_cfg(void)
 282:.\Generated_Source\PSoC4/cyfitter_cfg.c **** {
 286              		.loc 1 282 0
 287              		.cfi_startproc
 288 00d0 10B5     		push	{r4, lr}
 289              		.cfi_def_cfa_offset 8
 290              		.cfi_offset 4, -8
 291              		.cfi_offset 14, -4
 283:.\Generated_Source\PSoC4/cyfitter_cfg.c **** 	/* Disable interrupts by default. Let user enable if/when they want. */
 284:.\Generated_Source\PSoC4/cyfitter_cfg.c **** 	CyGlobalIntDisable;
 292              		.loc 1 284 0
 293              	@ 284 ".\Generated_Source\PSoC4\cyfitter_cfg.c" 1
 294 00d2 72B6     		CPSID   i
 295              	@ 0 "" 2
 285:.\Generated_Source\PSoC4/cyfitter_cfg.c **** 
 286:.\Generated_Source\PSoC4/cyfitter_cfg.c **** 	CY_SET_XTND_REG32((void CYFAR *)(CYREG_BLE_BLESS_LL_DSM_CTRL), 0x00000000u);
 296              		.loc 1 286 0
 297              		.code	16
 298 00d4 0022     		mov	r2, #0
 299 00d6 2C4B     		ldr	r3, .L16
 300 00d8 1A60     		str	r2, [r3]
 287:.\Generated_Source\PSoC4/cyfitter_cfg.c **** 
 288:.\Generated_Source\PSoC4/cyfitter_cfg.c **** 	/* Enable the clock in the interrupt controller for the routed interrupts */
 289:.\Generated_Source\PSoC4/cyfitter_cfg.c **** 	CY_SET_REG8((void *)CYREG_UDB_UDBIF_INT_CLK_CTL, 0x01u);
 301              		.loc 1 289 0
 302 00da 0132     		add	r2, r2, #1
 303 00dc 2B4B     		ldr	r3, .L16+4
 304 00de 1A70     		strb	r2, [r3]
 305              	.LVL23:
 306              	.LBB3:
 290:.\Generated_Source\PSoC4/cyfitter_cfg.c **** 	{
 291:.\Generated_Source\PSoC4/cyfitter_cfg.c **** 		static const uint32 CYCODE cy_cfg_addr_table[] = {
 292:.\Generated_Source\PSoC4/cyfitter_cfg.c **** 			0x400F0002u, /* Base address: 0x400F0000 Count: 2 */
 293:.\Generated_Source\PSoC4/cyfitter_cfg.c **** 			0x400F3043u, /* Base address: 0x400F3000 Count: 67 */
ARM GAS  C:\Users\tiantiaf\AppData\Local\Temp\ccwRBDDd.s 			page 12


 294:.\Generated_Source\PSoC4/cyfitter_cfg.c **** 			0x400F3121u, /* Base address: 0x400F3100 Count: 33 */
 295:.\Generated_Source\PSoC4/cyfitter_cfg.c **** 			0x400F3234u, /* Base address: 0x400F3200 Count: 52 */
 296:.\Generated_Source\PSoC4/cyfitter_cfg.c **** 			0x400F331Cu, /* Base address: 0x400F3300 Count: 28 */
 297:.\Generated_Source\PSoC4/cyfitter_cfg.c **** 			0x400F410Du, /* Base address: 0x400F4100 Count: 13 */
 298:.\Generated_Source\PSoC4/cyfitter_cfg.c **** 			0x400F4204u, /* Base address: 0x400F4200 Count: 4 */
 299:.\Generated_Source\PSoC4/cyfitter_cfg.c **** 			0x400F6002u, /* Base address: 0x400F6000 Count: 2 */
 300:.\Generated_Source\PSoC4/cyfitter_cfg.c **** 		};
 301:.\Generated_Source\PSoC4/cyfitter_cfg.c **** 
 302:.\Generated_Source\PSoC4/cyfitter_cfg.c **** 		static const cy_cfg_addrvalue_t CYCODE cy_cfg_data_table[] = {
 303:.\Generated_Source\PSoC4/cyfitter_cfg.c **** 			{0x81u, 0x0Du},
 304:.\Generated_Source\PSoC4/cyfitter_cfg.c **** 			{0x83u, 0x0Du},
 305:.\Generated_Source\PSoC4/cyfitter_cfg.c **** 			{0x16u, 0x01u},
 306:.\Generated_Source\PSoC4/cyfitter_cfg.c **** 			{0x1Au, 0x01u},
 307:.\Generated_Source\PSoC4/cyfitter_cfg.c **** 			{0x30u, 0x01u},
 308:.\Generated_Source\PSoC4/cyfitter_cfg.c **** 			{0x40u, 0x30u},
 309:.\Generated_Source\PSoC4/cyfitter_cfg.c **** 			{0x41u, 0x02u},
 310:.\Generated_Source\PSoC4/cyfitter_cfg.c **** 			{0x49u, 0xFFu},
 311:.\Generated_Source\PSoC4/cyfitter_cfg.c **** 			{0x4Au, 0xFFu},
 312:.\Generated_Source\PSoC4/cyfitter_cfg.c **** 			{0x4Bu, 0xFFu},
 313:.\Generated_Source\PSoC4/cyfitter_cfg.c **** 			{0x4Du, 0xA0u},
 314:.\Generated_Source\PSoC4/cyfitter_cfg.c **** 			{0x4Fu, 0x04u},
 315:.\Generated_Source\PSoC4/cyfitter_cfg.c **** 			{0x50u, 0x18u},
 316:.\Generated_Source\PSoC4/cyfitter_cfg.c **** 			{0x56u, 0x08u},
 317:.\Generated_Source\PSoC4/cyfitter_cfg.c **** 			{0x58u, 0x04u},
 318:.\Generated_Source\PSoC4/cyfitter_cfg.c **** 			{0x5Au, 0x04u},
 319:.\Generated_Source\PSoC4/cyfitter_cfg.c **** 			{0x5Bu, 0x04u},
 320:.\Generated_Source\PSoC4/cyfitter_cfg.c **** 			{0x5Du, 0x90u},
 321:.\Generated_Source\PSoC4/cyfitter_cfg.c **** 			{0x5Fu, 0x01u},
 322:.\Generated_Source\PSoC4/cyfitter_cfg.c **** 			{0x60u, 0x40u},
 323:.\Generated_Source\PSoC4/cyfitter_cfg.c **** 			{0x62u, 0xC0u},
 324:.\Generated_Source\PSoC4/cyfitter_cfg.c **** 			{0x64u, 0x40u},
 325:.\Generated_Source\PSoC4/cyfitter_cfg.c **** 			{0x65u, 0x40u},
 326:.\Generated_Source\PSoC4/cyfitter_cfg.c **** 			{0x66u, 0xC0u},
 327:.\Generated_Source\PSoC4/cyfitter_cfg.c **** 			{0x68u, 0xC0u},
 328:.\Generated_Source\PSoC4/cyfitter_cfg.c **** 			{0x6Au, 0xC0u},
 329:.\Generated_Source\PSoC4/cyfitter_cfg.c **** 			{0x6Cu, 0xC0u},
 330:.\Generated_Source\PSoC4/cyfitter_cfg.c **** 			{0x6Eu, 0xC0u},
 331:.\Generated_Source\PSoC4/cyfitter_cfg.c **** 			{0x82u, 0x01u},
 332:.\Generated_Source\PSoC4/cyfitter_cfg.c **** 			{0x83u, 0x03u},
 333:.\Generated_Source\PSoC4/cyfitter_cfg.c **** 			{0x8Au, 0x06u},
 334:.\Generated_Source\PSoC4/cyfitter_cfg.c **** 			{0x91u, 0x02u},
 335:.\Generated_Source\PSoC4/cyfitter_cfg.c **** 			{0x96u, 0x02u},
 336:.\Generated_Source\PSoC4/cyfitter_cfg.c **** 			{0x9Eu, 0x04u},
 337:.\Generated_Source\PSoC4/cyfitter_cfg.c **** 			{0xB0u, 0x04u},
 338:.\Generated_Source\PSoC4/cyfitter_cfg.c **** 			{0xB1u, 0x02u},
 339:.\Generated_Source\PSoC4/cyfitter_cfg.c **** 			{0xB2u, 0x01u},
 340:.\Generated_Source\PSoC4/cyfitter_cfg.c **** 			{0xB4u, 0x02u},
 341:.\Generated_Source\PSoC4/cyfitter_cfg.c **** 			{0xB7u, 0x01u},
 342:.\Generated_Source\PSoC4/cyfitter_cfg.c **** 			{0xBEu, 0x10u},
 343:.\Generated_Source\PSoC4/cyfitter_cfg.c **** 			{0xC0u, 0x30u},
 344:.\Generated_Source\PSoC4/cyfitter_cfg.c **** 			{0xC1u, 0x02u},
 345:.\Generated_Source\PSoC4/cyfitter_cfg.c **** 			{0xC5u, 0xD0u},
 346:.\Generated_Source\PSoC4/cyfitter_cfg.c **** 			{0xC6u, 0x20u},
 347:.\Generated_Source\PSoC4/cyfitter_cfg.c **** 			{0xC7u, 0x10u},
 348:.\Generated_Source\PSoC4/cyfitter_cfg.c **** 			{0xC8u, 0x2Au},
 349:.\Generated_Source\PSoC4/cyfitter_cfg.c **** 			{0xC9u, 0xFFu},
 350:.\Generated_Source\PSoC4/cyfitter_cfg.c **** 			{0xCAu, 0xFFu},
ARM GAS  C:\Users\tiantiaf\AppData\Local\Temp\ccwRBDDd.s 			page 13


 351:.\Generated_Source\PSoC4/cyfitter_cfg.c **** 			{0xCBu, 0xFFu},
 352:.\Generated_Source\PSoC4/cyfitter_cfg.c **** 			{0xCDu, 0xAFu},
 353:.\Generated_Source\PSoC4/cyfitter_cfg.c **** 			{0xCEu, 0x0Fu},
 354:.\Generated_Source\PSoC4/cyfitter_cfg.c **** 			{0xCFu, 0x04u},
 355:.\Generated_Source\PSoC4/cyfitter_cfg.c **** 			{0xD0u, 0x18u},
 356:.\Generated_Source\PSoC4/cyfitter_cfg.c **** 			{0xD2u, 0x80u},
 357:.\Generated_Source\PSoC4/cyfitter_cfg.c **** 			{0xD4u, 0x05u},
 358:.\Generated_Source\PSoC4/cyfitter_cfg.c **** 			{0xD8u, 0x04u},
 359:.\Generated_Source\PSoC4/cyfitter_cfg.c **** 			{0xD9u, 0x04u},
 360:.\Generated_Source\PSoC4/cyfitter_cfg.c **** 			{0xDAu, 0x04u},
 361:.\Generated_Source\PSoC4/cyfitter_cfg.c **** 			{0xDBu, 0x04u},
 362:.\Generated_Source\PSoC4/cyfitter_cfg.c **** 			{0xDFu, 0x01u},
 363:.\Generated_Source\PSoC4/cyfitter_cfg.c **** 			{0xE0u, 0x40u},
 364:.\Generated_Source\PSoC4/cyfitter_cfg.c **** 			{0xE2u, 0xC0u},
 365:.\Generated_Source\PSoC4/cyfitter_cfg.c **** 			{0xE4u, 0x40u},
 366:.\Generated_Source\PSoC4/cyfitter_cfg.c **** 			{0xE5u, 0x40u},
 367:.\Generated_Source\PSoC4/cyfitter_cfg.c **** 			{0xE6u, 0xC0u},
 368:.\Generated_Source\PSoC4/cyfitter_cfg.c **** 			{0xE8u, 0xC0u},
 369:.\Generated_Source\PSoC4/cyfitter_cfg.c **** 			{0xEAu, 0xC0u},
 370:.\Generated_Source\PSoC4/cyfitter_cfg.c **** 			{0xECu, 0xC0u},
 371:.\Generated_Source\PSoC4/cyfitter_cfg.c **** 			{0xEEu, 0xC0u},
 372:.\Generated_Source\PSoC4/cyfitter_cfg.c **** 			{0x04u, 0x10u},
 373:.\Generated_Source\PSoC4/cyfitter_cfg.c **** 			{0x06u, 0x80u},
 374:.\Generated_Source\PSoC4/cyfitter_cfg.c **** 			{0x09u, 0x28u},
 375:.\Generated_Source\PSoC4/cyfitter_cfg.c **** 			{0x0Fu, 0x22u},
 376:.\Generated_Source\PSoC4/cyfitter_cfg.c **** 			{0x1Au, 0x80u},
 377:.\Generated_Source\PSoC4/cyfitter_cfg.c **** 			{0x1Cu, 0x10u},
 378:.\Generated_Source\PSoC4/cyfitter_cfg.c **** 			{0x1Du, 0x0Au},
 379:.\Generated_Source\PSoC4/cyfitter_cfg.c **** 			{0x1Eu, 0x08u},
 380:.\Generated_Source\PSoC4/cyfitter_cfg.c **** 			{0x24u, 0x40u},
 381:.\Generated_Source\PSoC4/cyfitter_cfg.c **** 			{0x27u, 0x02u},
 382:.\Generated_Source\PSoC4/cyfitter_cfg.c **** 			{0x37u, 0x02u},
 383:.\Generated_Source\PSoC4/cyfitter_cfg.c **** 			{0x3Fu, 0x02u},
 384:.\Generated_Source\PSoC4/cyfitter_cfg.c **** 			{0x40u, 0x10u},
 385:.\Generated_Source\PSoC4/cyfitter_cfg.c **** 			{0x41u, 0x20u},
 386:.\Generated_Source\PSoC4/cyfitter_cfg.c **** 			{0x45u, 0x28u},
 387:.\Generated_Source\PSoC4/cyfitter_cfg.c **** 			{0x4Du, 0x01u},
 388:.\Generated_Source\PSoC4/cyfitter_cfg.c **** 			{0x55u, 0x20u},
 389:.\Generated_Source\PSoC4/cyfitter_cfg.c **** 			{0x57u, 0x11u},
 390:.\Generated_Source\PSoC4/cyfitter_cfg.c **** 			{0x58u, 0xA0u},
 391:.\Generated_Source\PSoC4/cyfitter_cfg.c **** 			{0x5Cu, 0x40u},
 392:.\Generated_Source\PSoC4/cyfitter_cfg.c **** 			{0x5Du, 0x01u},
 393:.\Generated_Source\PSoC4/cyfitter_cfg.c **** 			{0x5Eu, 0x08u},
 394:.\Generated_Source\PSoC4/cyfitter_cfg.c **** 			{0x60u, 0x02u},
 395:.\Generated_Source\PSoC4/cyfitter_cfg.c **** 			{0x62u, 0xA0u},
 396:.\Generated_Source\PSoC4/cyfitter_cfg.c **** 			{0x76u, 0x80u},
 397:.\Generated_Source\PSoC4/cyfitter_cfg.c **** 			{0x8Cu, 0xA0u},
 398:.\Generated_Source\PSoC4/cyfitter_cfg.c **** 			{0xC0u, 0x50u},
 399:.\Generated_Source\PSoC4/cyfitter_cfg.c **** 			{0xC2u, 0xA6u},
 400:.\Generated_Source\PSoC4/cyfitter_cfg.c **** 			{0xCCu, 0x80u},
 401:.\Generated_Source\PSoC4/cyfitter_cfg.c **** 			{0xCEu, 0x80u},
 402:.\Generated_Source\PSoC4/cyfitter_cfg.c **** 			{0xD0u, 0x66u},
 403:.\Generated_Source\PSoC4/cyfitter_cfg.c **** 			{0xD6u, 0xDCu},
 404:.\Generated_Source\PSoC4/cyfitter_cfg.c **** 			{0xD8u, 0x0Cu},
 405:.\Generated_Source\PSoC4/cyfitter_cfg.c **** 			{0x40u, 0x45u},
 406:.\Generated_Source\PSoC4/cyfitter_cfg.c **** 			{0x49u, 0xFFu},
 407:.\Generated_Source\PSoC4/cyfitter_cfg.c **** 			{0x4Au, 0xFFu},
ARM GAS  C:\Users\tiantiaf\AppData\Local\Temp\ccwRBDDd.s 			page 14


 408:.\Generated_Source\PSoC4/cyfitter_cfg.c **** 			{0x4Bu, 0xFFu},
 409:.\Generated_Source\PSoC4/cyfitter_cfg.c **** 			{0x4Fu, 0x01u},
 410:.\Generated_Source\PSoC4/cyfitter_cfg.c **** 			{0x50u, 0x18u},
 411:.\Generated_Source\PSoC4/cyfitter_cfg.c **** 			{0x52u, 0x80u},
 412:.\Generated_Source\PSoC4/cyfitter_cfg.c **** 			{0x5Au, 0x0Bu},
 413:.\Generated_Source\PSoC4/cyfitter_cfg.c **** 			{0x5Bu, 0x0Au},
 414:.\Generated_Source\PSoC4/cyfitter_cfg.c **** 			{0x5Du, 0x99u},
 415:.\Generated_Source\PSoC4/cyfitter_cfg.c **** 			{0x5Fu, 0x01u},
 416:.\Generated_Source\PSoC4/cyfitter_cfg.c **** 			{0x60u, 0x40u},
 417:.\Generated_Source\PSoC4/cyfitter_cfg.c **** 			{0x62u, 0x40u},
 418:.\Generated_Source\PSoC4/cyfitter_cfg.c **** 			{0x64u, 0x40u},
 419:.\Generated_Source\PSoC4/cyfitter_cfg.c **** 			{0x65u, 0x40u},
 420:.\Generated_Source\PSoC4/cyfitter_cfg.c **** 			{0x66u, 0x80u},
 421:.\Generated_Source\PSoC4/cyfitter_cfg.c **** 			{0x68u, 0x80u},
 422:.\Generated_Source\PSoC4/cyfitter_cfg.c **** 			{0x6Au, 0x80u},
 423:.\Generated_Source\PSoC4/cyfitter_cfg.c **** 			{0x6Cu, 0x80u},
 424:.\Generated_Source\PSoC4/cyfitter_cfg.c **** 			{0x6Eu, 0x80u},
 425:.\Generated_Source\PSoC4/cyfitter_cfg.c **** 			{0x83u, 0x01u},
 426:.\Generated_Source\PSoC4/cyfitter_cfg.c **** 			{0x9Fu, 0x01u},
 427:.\Generated_Source\PSoC4/cyfitter_cfg.c **** 			{0xB1u, 0x01u},
 428:.\Generated_Source\PSoC4/cyfitter_cfg.c **** 			{0xB7u, 0x01u},
 429:.\Generated_Source\PSoC4/cyfitter_cfg.c **** 			{0xBFu, 0x40u},
 430:.\Generated_Source\PSoC4/cyfitter_cfg.c **** 			{0xC0u, 0x14u},
 431:.\Generated_Source\PSoC4/cyfitter_cfg.c **** 			{0xC5u, 0xECu},
 432:.\Generated_Source\PSoC4/cyfitter_cfg.c **** 			{0xC7u, 0x20u},
 433:.\Generated_Source\PSoC4/cyfitter_cfg.c **** 			{0xC8u, 0x23u},
 434:.\Generated_Source\PSoC4/cyfitter_cfg.c **** 			{0xC9u, 0xFFu},
 435:.\Generated_Source\PSoC4/cyfitter_cfg.c **** 			{0xCAu, 0xFFu},
 436:.\Generated_Source\PSoC4/cyfitter_cfg.c **** 			{0xCBu, 0xFFu},
 437:.\Generated_Source\PSoC4/cyfitter_cfg.c **** 			{0xCDu, 0x83u},
 438:.\Generated_Source\PSoC4/cyfitter_cfg.c **** 			{0xCEu, 0x03u},
 439:.\Generated_Source\PSoC4/cyfitter_cfg.c **** 			{0xCFu, 0x01u},
 440:.\Generated_Source\PSoC4/cyfitter_cfg.c **** 			{0xD0u, 0x18u},
 441:.\Generated_Source\PSoC4/cyfitter_cfg.c **** 			{0xD4u, 0x01u},
 442:.\Generated_Source\PSoC4/cyfitter_cfg.c **** 			{0xD9u, 0x0Bu},
 443:.\Generated_Source\PSoC4/cyfitter_cfg.c **** 			{0xDAu, 0x0Bu},
 444:.\Generated_Source\PSoC4/cyfitter_cfg.c **** 			{0xDBu, 0x0Bu},
 445:.\Generated_Source\PSoC4/cyfitter_cfg.c **** 			{0xDCu, 0x90u},
 446:.\Generated_Source\PSoC4/cyfitter_cfg.c **** 			{0xDDu, 0x99u},
 447:.\Generated_Source\PSoC4/cyfitter_cfg.c **** 			{0xDFu, 0x01u},
 448:.\Generated_Source\PSoC4/cyfitter_cfg.c **** 			{0xE0u, 0x40u},
 449:.\Generated_Source\PSoC4/cyfitter_cfg.c **** 			{0xE2u, 0x40u},
 450:.\Generated_Source\PSoC4/cyfitter_cfg.c **** 			{0xE4u, 0x40u},
 451:.\Generated_Source\PSoC4/cyfitter_cfg.c **** 			{0xE5u, 0x40u},
 452:.\Generated_Source\PSoC4/cyfitter_cfg.c **** 			{0xE6u, 0x80u},
 453:.\Generated_Source\PSoC4/cyfitter_cfg.c **** 			{0xE8u, 0x80u},
 454:.\Generated_Source\PSoC4/cyfitter_cfg.c **** 			{0xEAu, 0x80u},
 455:.\Generated_Source\PSoC4/cyfitter_cfg.c **** 			{0xECu, 0x80u},
 456:.\Generated_Source\PSoC4/cyfitter_cfg.c **** 			{0xEEu, 0x80u},
 457:.\Generated_Source\PSoC4/cyfitter_cfg.c **** 			{0x21u, 0x02u},
 458:.\Generated_Source\PSoC4/cyfitter_cfg.c **** 			{0x22u, 0x40u},
 459:.\Generated_Source\PSoC4/cyfitter_cfg.c **** 			{0x33u, 0x40u},
 460:.\Generated_Source\PSoC4/cyfitter_cfg.c **** 			{0x39u, 0x02u},
 461:.\Generated_Source\PSoC4/cyfitter_cfg.c **** 			{0x41u, 0x01u},
 462:.\Generated_Source\PSoC4/cyfitter_cfg.c **** 			{0x43u, 0x40u},
 463:.\Generated_Source\PSoC4/cyfitter_cfg.c **** 			{0x46u, 0x80u},
 464:.\Generated_Source\PSoC4/cyfitter_cfg.c **** 			{0x49u, 0x05u},
ARM GAS  C:\Users\tiantiaf\AppData\Local\Temp\ccwRBDDd.s 			page 15


 465:.\Generated_Source\PSoC4/cyfitter_cfg.c **** 			{0x4Eu, 0x02u},
 466:.\Generated_Source\PSoC4/cyfitter_cfg.c **** 			{0x51u, 0x01u},
 467:.\Generated_Source\PSoC4/cyfitter_cfg.c **** 			{0x52u, 0x02u},
 468:.\Generated_Source\PSoC4/cyfitter_cfg.c **** 			{0x59u, 0x05u},
 469:.\Generated_Source\PSoC4/cyfitter_cfg.c **** 			{0x5Au, 0x80u},
 470:.\Generated_Source\PSoC4/cyfitter_cfg.c **** 			{0x76u, 0x80u},
 471:.\Generated_Source\PSoC4/cyfitter_cfg.c **** 			{0x77u, 0x40u},
 472:.\Generated_Source\PSoC4/cyfitter_cfg.c **** 			{0x78u, 0x02u},
 473:.\Generated_Source\PSoC4/cyfitter_cfg.c **** 			{0x7Eu, 0xA0u},
 474:.\Generated_Source\PSoC4/cyfitter_cfg.c **** 			{0x81u, 0x02u},
 475:.\Generated_Source\PSoC4/cyfitter_cfg.c **** 			{0x98u, 0x02u},
 476:.\Generated_Source\PSoC4/cyfitter_cfg.c **** 			{0xA2u, 0xA0u},
 477:.\Generated_Source\PSoC4/cyfitter_cfg.c **** 			{0xA9u, 0x02u},
 478:.\Generated_Source\PSoC4/cyfitter_cfg.c **** 			{0xAAu, 0x40u},
 479:.\Generated_Source\PSoC4/cyfitter_cfg.c **** 			{0xCCu, 0x08u},
 480:.\Generated_Source\PSoC4/cyfitter_cfg.c **** 			{0xCEu, 0x01u},
 481:.\Generated_Source\PSoC4/cyfitter_cfg.c **** 			{0xD0u, 0x89u},
 482:.\Generated_Source\PSoC4/cyfitter_cfg.c **** 			{0xD2u, 0x10u},
 483:.\Generated_Source\PSoC4/cyfitter_cfg.c **** 			{0xD6u, 0x0Bu},
 484:.\Generated_Source\PSoC4/cyfitter_cfg.c **** 			{0xDEu, 0xC1u},
 485:.\Generated_Source\PSoC4/cyfitter_cfg.c **** 			{0x6Bu, 0x40u},
 486:.\Generated_Source\PSoC4/cyfitter_cfg.c **** 			{0x6Fu, 0x04u},
 487:.\Generated_Source\PSoC4/cyfitter_cfg.c **** 			{0x74u, 0x20u},
 488:.\Generated_Source\PSoC4/cyfitter_cfg.c **** 			{0x83u, 0x04u},
 489:.\Generated_Source\PSoC4/cyfitter_cfg.c **** 			{0x9Bu, 0x40u},
 490:.\Generated_Source\PSoC4/cyfitter_cfg.c **** 			{0xA0u, 0x20u},
 491:.\Generated_Source\PSoC4/cyfitter_cfg.c **** 			{0xA8u, 0x20u},
 492:.\Generated_Source\PSoC4/cyfitter_cfg.c **** 			{0xABu, 0x40u},
 493:.\Generated_Source\PSoC4/cyfitter_cfg.c **** 			{0xDAu, 0x80u},
 494:.\Generated_Source\PSoC4/cyfitter_cfg.c **** 			{0xDCu, 0x60u},
 495:.\Generated_Source\PSoC4/cyfitter_cfg.c **** 			{0xE2u, 0x80u},
 496:.\Generated_Source\PSoC4/cyfitter_cfg.c **** 			{0xEAu, 0x80u},
 497:.\Generated_Source\PSoC4/cyfitter_cfg.c **** 			{0xEEu, 0x80u},
 498:.\Generated_Source\PSoC4/cyfitter_cfg.c **** 			{0x24u, 0x50u},
 499:.\Generated_Source\PSoC4/cyfitter_cfg.c **** 			{0x8Cu, 0x50u},
 500:.\Generated_Source\PSoC4/cyfitter_cfg.c **** 			{0xC8u, 0x01u},
 501:.\Generated_Source\PSoC4/cyfitter_cfg.c **** 			{0xE2u, 0x0Au},
 502:.\Generated_Source\PSoC4/cyfitter_cfg.c **** 			{0x10u, 0x01u},
 503:.\Generated_Source\PSoC4/cyfitter_cfg.c **** 			{0x11u, 0x01u},
 504:.\Generated_Source\PSoC4/cyfitter_cfg.c **** 		};
 505:.\Generated_Source\PSoC4/cyfitter_cfg.c **** 
 506:.\Generated_Source\PSoC4/cyfitter_cfg.c **** 
 507:.\Generated_Source\PSoC4/cyfitter_cfg.c **** 
 508:.\Generated_Source\PSoC4/cyfitter_cfg.c **** 		CYPACKED typedef struct {
 509:.\Generated_Source\PSoC4/cyfitter_cfg.c **** 			void CYFAR *address;
 510:.\Generated_Source\PSoC4/cyfitter_cfg.c **** 			uint16 size;
 511:.\Generated_Source\PSoC4/cyfitter_cfg.c **** 		} CYPACKED_ATTR cfg_memset_t;
 512:.\Generated_Source\PSoC4/cyfitter_cfg.c **** 
 513:.\Generated_Source\PSoC4/cyfitter_cfg.c **** 		static const cfg_memset_t CYCODE cfg_memset_list [] = {
 514:.\Generated_Source\PSoC4/cyfitter_cfg.c **** 			/* address, size */
 515:.\Generated_Source\PSoC4/cyfitter_cfg.c **** 			{(void CYFAR *)(CYDEV_UDB_P0_U0_BASE), 1024u},
 516:.\Generated_Source\PSoC4/cyfitter_cfg.c **** 			{(void CYFAR *)(CYDEV_UDB_DSI0_BASE), 1024u},
 517:.\Generated_Source\PSoC4/cyfitter_cfg.c **** 		};
 518:.\Generated_Source\PSoC4/cyfitter_cfg.c **** 
 519:.\Generated_Source\PSoC4/cyfitter_cfg.c **** 		uint8 CYDATA i;
 520:.\Generated_Source\PSoC4/cyfitter_cfg.c **** 
 521:.\Generated_Source\PSoC4/cyfitter_cfg.c **** 		/* Zero out critical memory blocks before beginning configuration */
ARM GAS  C:\Users\tiantiaf\AppData\Local\Temp\ccwRBDDd.s 			page 16


 522:.\Generated_Source\PSoC4/cyfitter_cfg.c **** 		for (i = 0u; i < (sizeof(cfg_memset_list)/sizeof(cfg_memset_list[0])); i++)
 307              		.loc 1 522 0
 308 00e0 0024     		mov	r4, #0
 309 00e2 10E0     		b	.L14
 310              	.LVL24:
 311              	.L15:
 312              	.LBB4:
 523:.\Generated_Source\PSoC4/cyfitter_cfg.c **** 		{
 524:.\Generated_Source\PSoC4/cyfitter_cfg.c **** 			const cfg_memset_t CYCODE * CYDATA ms = &cfg_memset_list[i];
 525:.\Generated_Source\PSoC4/cyfitter_cfg.c **** 			CYMEMZERO(ms->address, (size_t)(uint32)(ms->size));
 313              		.loc 1 525 0 discriminator 3
 314 00e4 2A48     		ldr	r0, .L16+8
 315 00e6 6300     		lsl	r3, r4, #1
 316 00e8 1A19     		add	r2, r3, r4
 317 00ea 5200     		lsl	r2, r2, #1
 318 00ec 8218     		add	r2, r0, r2
 319 00ee 9188     		ldrh	r1, [r2, #4]
 320 00f0 1B19     		add	r3, r3, r4
 321 00f2 5B00     		lsl	r3, r3, #1
 322 00f4 1A5A     		ldrh	r2, [r3, r0]
 323 00f6 C318     		add	r3, r0, r3
 324 00f8 5888     		ldrh	r0, [r3, #2]
 325 00fa 0004     		lsl	r0, r0, #16
 326 00fc 1043     		orr	r0, r2
 327 00fe FFF7FEFF 		bl	CYMEMZERO
 328              	.LVL25:
 329              	.LBE4:
 522:.\Generated_Source\PSoC4/cyfitter_cfg.c **** 		{
 330              		.loc 1 522 0 discriminator 3
 331 0102 0134     		add	r4, r4, #1
 332              	.LVL26:
 333 0104 E4B2     		uxtb	r4, r4
 334              	.LVL27:
 335              	.L14:
 522:.\Generated_Source\PSoC4/cyfitter_cfg.c **** 		{
 336              		.loc 1 522 0 is_stmt 0 discriminator 1
 337 0106 012C     		cmp	r4, #1
 338 0108 ECD9     		bls	.L15
 526:.\Generated_Source\PSoC4/cyfitter_cfg.c **** 		}
 527:.\Generated_Source\PSoC4/cyfitter_cfg.c **** 
 528:.\Generated_Source\PSoC4/cyfitter_cfg.c **** 		cfg_write_bytes32(cy_cfg_addr_table, cy_cfg_data_table);
 339              		.loc 1 528 0 is_stmt 1
 340 010a 2149     		ldr	r1, .L16+8
 341 010c 081C     		mov	r0, r1
 342 010e 0C30     		add	r0, r0, #12
 343 0110 2C31     		add	r1, r1, #44
 344 0112 FFF7FEFF 		bl	cfg_write_bytes32
 345              	.LVL28:
 529:.\Generated_Source\PSoC4/cyfitter_cfg.c **** 
 530:.\Generated_Source\PSoC4/cyfitter_cfg.c **** 		/* Perform normal device configuration. Order is not critical for these items. */
 531:.\Generated_Source\PSoC4/cyfitter_cfg.c **** 		CY_SET_XTND_REG16((void CYFAR *)(CYREG_UDB_BCTL0_DRV), 0x0100u);
 346              		.loc 1 531 0
 347 0116 8022     		mov	r2, #128
 348 0118 5200     		lsl	r2, r2, #1
 349 011a 1E4B     		ldr	r3, .L16+12
 350 011c 1A80     		strh	r2, [r3]
 532:.\Generated_Source\PSoC4/cyfitter_cfg.c **** 		CY_SET_XTND_REG8((void CYFAR *)(CYREG_UDB_BCTL0_DRV + 0x2u), 0x01u);
ARM GAS  C:\Users\tiantiaf\AppData\Local\Temp\ccwRBDDd.s 			page 17


 351              		.loc 1 532 0
 352 011e FF3A     		sub	r2, r2, #255
 353 0120 1D4B     		ldr	r3, .L16+16
 354 0122 1A70     		strb	r2, [r3]
 533:.\Generated_Source\PSoC4/cyfitter_cfg.c **** 
 534:.\Generated_Source\PSoC4/cyfitter_cfg.c **** 		/* HSIOM Starting address: CYDEV_HSIOM_BASE */
 535:.\Generated_Source\PSoC4/cyfitter_cfg.c **** 		CY_SET_XTND_REG32((void CYFAR *)(CYDEV_HSIOM_BASE), 0xEE000000u);
 355              		.loc 1 535 0
 356 0124 EE22     		mov	r2, #238
 357 0126 1206     		lsl	r2, r2, #24
 358 0128 1C4B     		ldr	r3, .L16+20
 359 012a 1A60     		str	r2, [r3]
 536:.\Generated_Source\PSoC4/cyfitter_cfg.c **** 
 537:.\Generated_Source\PSoC4/cyfitter_cfg.c **** 		/* UDB_PA_0 Starting address: CYDEV_UDB_PA0_BASE */
 538:.\Generated_Source\PSoC4/cyfitter_cfg.c **** 		CY_SET_XTND_REG32((void CYFAR *)(CYDEV_UDB_PA0_BASE), 0x00990000u);
 360              		.loc 1 538 0
 361 012c 9923     		mov	r3, #153
 362 012e 1B04     		lsl	r3, r3, #16
 363 0130 1B4A     		ldr	r2, .L16+24
 364 0132 1360     		str	r3, [r2]
 539:.\Generated_Source\PSoC4/cyfitter_cfg.c **** 
 540:.\Generated_Source\PSoC4/cyfitter_cfg.c **** 		/* UDB_PA_2 Starting address: CYDEV_UDB_PA2_BASE */
 541:.\Generated_Source\PSoC4/cyfitter_cfg.c **** 		CY_SET_XTND_REG32((void CYFAR *)(CYDEV_UDB_PA2_BASE), 0x00990000u);
 365              		.loc 1 541 0
 366 0134 1B4A     		ldr	r2, .L16+28
 367 0136 1360     		str	r3, [r2]
 542:.\Generated_Source\PSoC4/cyfitter_cfg.c **** 
 543:.\Generated_Source\PSoC4/cyfitter_cfg.c **** 		/* UDB_PA_3 Starting address: CYDEV_UDB_PA3_BASE */
 544:.\Generated_Source\PSoC4/cyfitter_cfg.c **** 		CY_SET_XTND_REG32((void CYFAR *)(CYDEV_UDB_PA3_BASE), 0x00990000u);
 368              		.loc 1 544 0
 369 0138 1B4A     		ldr	r2, .L16+32
 370 013a 1360     		str	r3, [r2]
 545:.\Generated_Source\PSoC4/cyfitter_cfg.c **** 
 546:.\Generated_Source\PSoC4/cyfitter_cfg.c **** 		/* INT_SELECT Starting address: CYDEV_CPUSS_INT_SEL */
 547:.\Generated_Source\PSoC4/cyfitter_cfg.c **** 		CY_SET_XTND_REG32((void CYFAR *)(CYREG_CPUSS_INT_SEL), 0x0000000Eu);
 371              		.loc 1 547 0
 372 013c 0E23     		mov	r3, #14
 373 013e 1B4A     		ldr	r2, .L16+36
 374 0140 1360     		str	r3, [r2]
 548:.\Generated_Source\PSoC4/cyfitter_cfg.c **** 
 549:.\Generated_Source\PSoC4/cyfitter_cfg.c **** 		/* INT_CONFIG Starting address: CYDEV_UDB_INT_CFG */
 550:.\Generated_Source\PSoC4/cyfitter_cfg.c **** 		CY_SET_XTND_REG32((void CYFAR *)(CYREG_UDB_INT_CFG), 0x0000000Eu);
 375              		.loc 1 550 0
 376 0142 1B4A     		ldr	r2, .L16+40
 377 0144 1360     		str	r3, [r2]
 551:.\Generated_Source\PSoC4/cyfitter_cfg.c **** 
 552:.\Generated_Source\PSoC4/cyfitter_cfg.c **** 		/* Enable digital routing */
 553:.\Generated_Source\PSoC4/cyfitter_cfg.c **** 		CY_SET_XTND_REG8((void *)CYREG_UDB_UDBIF_BANK_CTL, CY_GET_XTND_REG8((void *)CYREG_UDB_UDBIF_BANK_
 378              		.loc 1 553 0
 379 0146 1B4B     		ldr	r3, .L16+44
 380 0148 1978     		ldrb	r1, [r3]
 381 014a 0222     		mov	r2, #2
 382 014c 0A43     		orr	r2, r1
 383 014e 1A70     		strb	r2, [r3]
 554:.\Generated_Source\PSoC4/cyfitter_cfg.c **** 
 555:.\Generated_Source\PSoC4/cyfitter_cfg.c **** 		/* Enable UDB array */
 556:.\Generated_Source\PSoC4/cyfitter_cfg.c **** 		CY_SET_XTND_REG8((void *)CYREG_UDB_UDBIF_WAIT_CFG, (uint8)((CY_GET_XTND_REG8((void *)CYREG_UDB_UD
ARM GAS  C:\Users\tiantiaf\AppData\Local\Temp\ccwRBDDd.s 			page 18


 384              		.loc 1 556 0
 385 0150 1948     		ldr	r0, .L16+48
 386 0152 0278     		ldrb	r2, [r0]
 387 0154 3C21     		mov	r1, #60
 388 0156 8A43     		bic	r2, r1
 389 0158 2839     		sub	r1, r1, #40
 390 015a 0A43     		orr	r2, r1
 391 015c 0270     		strb	r2, [r0]
 557:.\Generated_Source\PSoC4/cyfitter_cfg.c **** 		CY_SET_XTND_REG8((void *)CYREG_UDB_UDBIF_BANK_CTL, (uint8)(CY_GET_XTND_REG8((void *)CYREG_UDB_UDB
 392              		.loc 1 557 0
 393 015e 1978     		ldrb	r1, [r3]
 394 0160 1622     		mov	r2, #22
 395 0162 0A43     		orr	r2, r1
 396 0164 1A70     		strb	r2, [r3]
 397              	.LBE3:
 558:.\Generated_Source\PSoC4/cyfitter_cfg.c **** 	}
 559:.\Generated_Source\PSoC4/cyfitter_cfg.c **** 
 560:.\Generated_Source\PSoC4/cyfitter_cfg.c **** 	/* Perform second pass device configuration. These items must be configured in specific order afte
 561:.\Generated_Source\PSoC4/cyfitter_cfg.c **** 	/* IOPINS0_0 Starting address: CYDEV_GPIO_PRT0_BASE */
 562:.\Generated_Source\PSoC4/cyfitter_cfg.c **** 	CY_SET_XTND_REG32((void CYFAR *)(CYREG_GPIO_PRT0_PC), 0x00D80000u);
 398              		.loc 1 562 0
 399 0166 D822     		mov	r2, #216
 400 0168 1204     		lsl	r2, r2, #16
 401 016a 144B     		ldr	r3, .L16+52
 402 016c 1A60     		str	r2, [r3]
 563:.\Generated_Source\PSoC4/cyfitter_cfg.c **** 
 564:.\Generated_Source\PSoC4/cyfitter_cfg.c **** 	/* IOPINS0_2 Starting address: CYDEV_GPIO_PRT2_BASE */
 565:.\Generated_Source\PSoC4/cyfitter_cfg.c **** 	CY_SET_XTND_REG32((void CYFAR *)(CYREG_GPIO_PRT2_PC), 0x00180000u);
 403              		.loc 1 565 0
 404 016e C022     		mov	r2, #192
 405 0170 5203     		lsl	r2, r2, #13
 406 0172 134B     		ldr	r3, .L16+56
 407 0174 1A60     		str	r2, [r3]
 566:.\Generated_Source\PSoC4/cyfitter_cfg.c **** 
 567:.\Generated_Source\PSoC4/cyfitter_cfg.c **** 	/* IOPINS0_3 Starting address: CYDEV_GPIO_PRT3_BASE */
 568:.\Generated_Source\PSoC4/cyfitter_cfg.c **** 	CY_SET_XTND_REG32((void CYFAR *)(CYREG_GPIO_PRT3_PC), 0x00C00000u);
 408              		.loc 1 568 0
 409 0176 C022     		mov	r2, #192
 410 0178 1204     		lsl	r2, r2, #16
 411 017a 124B     		ldr	r3, .L16+60
 412 017c 1A60     		str	r2, [r3]
 569:.\Generated_Source\PSoC4/cyfitter_cfg.c **** 
 570:.\Generated_Source\PSoC4/cyfitter_cfg.c **** 
 571:.\Generated_Source\PSoC4/cyfitter_cfg.c **** 	/* Setup clocks based on selections from Clock DWR */
 572:.\Generated_Source\PSoC4/cyfitter_cfg.c **** 	ClockSetup();
 413              		.loc 1 572 0
 414 017e FFF73FFF 		bl	ClockSetup
 415              	.LVL29:
 573:.\Generated_Source\PSoC4/cyfitter_cfg.c **** 
 574:.\Generated_Source\PSoC4/cyfitter_cfg.c **** 	/* Perform basic analog initialization to defaults */
 575:.\Generated_Source\PSoC4/cyfitter_cfg.c **** 	AnalogSetDefault();
 416              		.loc 1 575 0
 417 0182 FFF7FEFF 		bl	AnalogSetDefault
 418              	.LVL30:
 576:.\Generated_Source\PSoC4/cyfitter_cfg.c **** 
 577:.\Generated_Source\PSoC4/cyfitter_cfg.c **** }
 419              		.loc 1 577 0
ARM GAS  C:\Users\tiantiaf\AppData\Local\Temp\ccwRBDDd.s 			page 19


 420              		@ sp needed
 421              	.LVL31:
 422 0186 10BD     		pop	{r4, pc}
 423              	.L17:
 424              		.align	2
 425              	.L16:
 426 0188 6CF02E40 		.word	1076818028
 427 018c 1C700F40 		.word	1074753564
 428 0190 00000000 		.word	.LANCHOR0
 429 0194 00600F40 		.word	1074749440
 430 0198 02600F40 		.word	1074749442
 431 019c 00000240 		.word	1073872896
 432 01a0 00500F40 		.word	1074745344
 433 01a4 20500F40 		.word	1074745376
 434 01a8 30500F40 		.word	1074745392
 435 01ac 20001040 		.word	1074790432
 436 01b0 00800F40 		.word	1074757632
 437 01b4 00700F40 		.word	1074753536
 438 01b8 01700F40 		.word	1074753537
 439 01bc 08000440 		.word	1074003976
 440 01c0 08020440 		.word	1074004488
 441 01c4 08030440 		.word	1074004744
 442              		.cfi_endproc
 443              	.LFE8:
 444              		.size	cyfitter_cfg, .-cyfitter_cfg
 445              		.section	.rodata
 446              		.align	2
 447              		.set	.LANCHOR0,. + 0
 448              		.type	cfg_memset_list.4781, %object
 449              		.size	cfg_memset_list.4781, 12
 450              	cfg_memset_list.4781:
 451 0000 00300F40 		.word	1074737152
 452 0004 0004     		.short	1024
 453 0006 00400F40 		.4byte	1074741248
 454 000a 0004     		.short	1024
 455              		.type	cy_cfg_addr_table.4775, %object
 456              		.size	cy_cfg_addr_table.4775, 32
 457              	cy_cfg_addr_table.4775:
 458 000c 02000F40 		.word	1074724866
 459 0010 43300F40 		.word	1074737219
 460 0014 21310F40 		.word	1074737441
 461 0018 34320F40 		.word	1074737716
 462 001c 1C330F40 		.word	1074737948
 463 0020 0D410F40 		.word	1074741517
 464 0024 04420F40 		.word	1074741764
 465 0028 02600F40 		.word	1074749442
 466              		.type	cy_cfg_data_table.4776, %object
 467              		.size	cy_cfg_data_table.4776, 402
 468              	cy_cfg_data_table.4776:
 469 002c 81       		.byte	-127
 470 002d 0D       		.byte	13
 471 002e 83       		.byte	-125
 472 002f 0D       		.byte	13
 473 0030 16       		.byte	22
 474 0031 01       		.byte	1
 475 0032 1A       		.byte	26
 476 0033 01       		.byte	1
ARM GAS  C:\Users\tiantiaf\AppData\Local\Temp\ccwRBDDd.s 			page 20


 477 0034 30       		.byte	48
 478 0035 01       		.byte	1
 479 0036 40       		.byte	64
 480 0037 30       		.byte	48
 481 0038 41       		.byte	65
 482 0039 02       		.byte	2
 483 003a 49       		.byte	73
 484 003b FF       		.byte	-1
 485 003c 4A       		.byte	74
 486 003d FF       		.byte	-1
 487 003e 4B       		.byte	75
 488 003f FF       		.byte	-1
 489 0040 4D       		.byte	77
 490 0041 A0       		.byte	-96
 491 0042 4F       		.byte	79
 492 0043 04       		.byte	4
 493 0044 50       		.byte	80
 494 0045 18       		.byte	24
 495 0046 56       		.byte	86
 496 0047 08       		.byte	8
 497 0048 58       		.byte	88
 498 0049 04       		.byte	4
 499 004a 5A       		.byte	90
 500 004b 04       		.byte	4
 501 004c 5B       		.byte	91
 502 004d 04       		.byte	4
 503 004e 5D       		.byte	93
 504 004f 90       		.byte	-112
 505 0050 5F       		.byte	95
 506 0051 01       		.byte	1
 507 0052 60       		.byte	96
 508 0053 40       		.byte	64
 509 0054 62       		.byte	98
 510 0055 C0       		.byte	-64
 511 0056 64       		.byte	100
 512 0057 40       		.byte	64
 513 0058 65       		.byte	101
 514 0059 40       		.byte	64
 515 005a 66       		.byte	102
 516 005b C0       		.byte	-64
 517 005c 68       		.byte	104
 518 005d C0       		.byte	-64
 519 005e 6A       		.byte	106
 520 005f C0       		.byte	-64
 521 0060 6C       		.byte	108
 522 0061 C0       		.byte	-64
 523 0062 6E       		.byte	110
 524 0063 C0       		.byte	-64
 525 0064 82       		.byte	-126
 526 0065 01       		.byte	1
 527 0066 83       		.byte	-125
 528 0067 03       		.byte	3
 529 0068 8A       		.byte	-118
 530 0069 06       		.byte	6
 531 006a 91       		.byte	-111
 532 006b 02       		.byte	2
 533 006c 96       		.byte	-106
ARM GAS  C:\Users\tiantiaf\AppData\Local\Temp\ccwRBDDd.s 			page 21


 534 006d 02       		.byte	2
 535 006e 9E       		.byte	-98
 536 006f 04       		.byte	4
 537 0070 B0       		.byte	-80
 538 0071 04       		.byte	4
 539 0072 B1       		.byte	-79
 540 0073 02       		.byte	2
 541 0074 B2       		.byte	-78
 542 0075 01       		.byte	1
 543 0076 B4       		.byte	-76
 544 0077 02       		.byte	2
 545 0078 B7       		.byte	-73
 546 0079 01       		.byte	1
 547 007a BE       		.byte	-66
 548 007b 10       		.byte	16
 549 007c C0       		.byte	-64
 550 007d 30       		.byte	48
 551 007e C1       		.byte	-63
 552 007f 02       		.byte	2
 553 0080 C5       		.byte	-59
 554 0081 D0       		.byte	-48
 555 0082 C6       		.byte	-58
 556 0083 20       		.byte	32
 557 0084 C7       		.byte	-57
 558 0085 10       		.byte	16
 559 0086 C8       		.byte	-56
 560 0087 2A       		.byte	42
 561 0088 C9       		.byte	-55
 562 0089 FF       		.byte	-1
 563 008a CA       		.byte	-54
 564 008b FF       		.byte	-1
 565 008c CB       		.byte	-53
 566 008d FF       		.byte	-1
 567 008e CD       		.byte	-51
 568 008f AF       		.byte	-81
 569 0090 CE       		.byte	-50
 570 0091 0F       		.byte	15
 571 0092 CF       		.byte	-49
 572 0093 04       		.byte	4
 573 0094 D0       		.byte	-48
 574 0095 18       		.byte	24
 575 0096 D2       		.byte	-46
 576 0097 80       		.byte	-128
 577 0098 D4       		.byte	-44
 578 0099 05       		.byte	5
 579 009a D8       		.byte	-40
 580 009b 04       		.byte	4
 581 009c D9       		.byte	-39
 582 009d 04       		.byte	4
 583 009e DA       		.byte	-38
 584 009f 04       		.byte	4
 585 00a0 DB       		.byte	-37
 586 00a1 04       		.byte	4
 587 00a2 DF       		.byte	-33
 588 00a3 01       		.byte	1
 589 00a4 E0       		.byte	-32
 590 00a5 40       		.byte	64
ARM GAS  C:\Users\tiantiaf\AppData\Local\Temp\ccwRBDDd.s 			page 22


 591 00a6 E2       		.byte	-30
 592 00a7 C0       		.byte	-64
 593 00a8 E4       		.byte	-28
 594 00a9 40       		.byte	64
 595 00aa E5       		.byte	-27
 596 00ab 40       		.byte	64
 597 00ac E6       		.byte	-26
 598 00ad C0       		.byte	-64
 599 00ae E8       		.byte	-24
 600 00af C0       		.byte	-64
 601 00b0 EA       		.byte	-22
 602 00b1 C0       		.byte	-64
 603 00b2 EC       		.byte	-20
 604 00b3 C0       		.byte	-64
 605 00b4 EE       		.byte	-18
 606 00b5 C0       		.byte	-64
 607 00b6 04       		.byte	4
 608 00b7 10       		.byte	16
 609 00b8 06       		.byte	6
 610 00b9 80       		.byte	-128
 611 00ba 09       		.byte	9
 612 00bb 28       		.byte	40
 613 00bc 0F       		.byte	15
 614 00bd 22       		.byte	34
 615 00be 1A       		.byte	26
 616 00bf 80       		.byte	-128
 617 00c0 1C       		.byte	28
 618 00c1 10       		.byte	16
 619 00c2 1D       		.byte	29
 620 00c3 0A       		.byte	10
 621 00c4 1E       		.byte	30
 622 00c5 08       		.byte	8
 623 00c6 24       		.byte	36
 624 00c7 40       		.byte	64
 625 00c8 27       		.byte	39
 626 00c9 02       		.byte	2
 627 00ca 37       		.byte	55
 628 00cb 02       		.byte	2
 629 00cc 3F       		.byte	63
 630 00cd 02       		.byte	2
 631 00ce 40       		.byte	64
 632 00cf 10       		.byte	16
 633 00d0 41       		.byte	65
 634 00d1 20       		.byte	32
 635 00d2 45       		.byte	69
 636 00d3 28       		.byte	40
 637 00d4 4D       		.byte	77
 638 00d5 01       		.byte	1
 639 00d6 55       		.byte	85
 640 00d7 20       		.byte	32
 641 00d8 57       		.byte	87
 642 00d9 11       		.byte	17
 643 00da 58       		.byte	88
 644 00db A0       		.byte	-96
 645 00dc 5C       		.byte	92
 646 00dd 40       		.byte	64
 647 00de 5D       		.byte	93
ARM GAS  C:\Users\tiantiaf\AppData\Local\Temp\ccwRBDDd.s 			page 23


 648 00df 01       		.byte	1
 649 00e0 5E       		.byte	94
 650 00e1 08       		.byte	8
 651 00e2 60       		.byte	96
 652 00e3 02       		.byte	2
 653 00e4 62       		.byte	98
 654 00e5 A0       		.byte	-96
 655 00e6 76       		.byte	118
 656 00e7 80       		.byte	-128
 657 00e8 8C       		.byte	-116
 658 00e9 A0       		.byte	-96
 659 00ea C0       		.byte	-64
 660 00eb 50       		.byte	80
 661 00ec C2       		.byte	-62
 662 00ed A6       		.byte	-90
 663 00ee CC       		.byte	-52
 664 00ef 80       		.byte	-128
 665 00f0 CE       		.byte	-50
 666 00f1 80       		.byte	-128
 667 00f2 D0       		.byte	-48
 668 00f3 66       		.byte	102
 669 00f4 D6       		.byte	-42
 670 00f5 DC       		.byte	-36
 671 00f6 D8       		.byte	-40
 672 00f7 0C       		.byte	12
 673 00f8 40       		.byte	64
 674 00f9 45       		.byte	69
 675 00fa 49       		.byte	73
 676 00fb FF       		.byte	-1
 677 00fc 4A       		.byte	74
 678 00fd FF       		.byte	-1
 679 00fe 4B       		.byte	75
 680 00ff FF       		.byte	-1
 681 0100 4F       		.byte	79
 682 0101 01       		.byte	1
 683 0102 50       		.byte	80
 684 0103 18       		.byte	24
 685 0104 52       		.byte	82
 686 0105 80       		.byte	-128
 687 0106 5A       		.byte	90
 688 0107 0B       		.byte	11
 689 0108 5B       		.byte	91
 690 0109 0A       		.byte	10
 691 010a 5D       		.byte	93
 692 010b 99       		.byte	-103
 693 010c 5F       		.byte	95
 694 010d 01       		.byte	1
 695 010e 60       		.byte	96
 696 010f 40       		.byte	64
 697 0110 62       		.byte	98
 698 0111 40       		.byte	64
 699 0112 64       		.byte	100
 700 0113 40       		.byte	64
 701 0114 65       		.byte	101
 702 0115 40       		.byte	64
 703 0116 66       		.byte	102
 704 0117 80       		.byte	-128
ARM GAS  C:\Users\tiantiaf\AppData\Local\Temp\ccwRBDDd.s 			page 24


 705 0118 68       		.byte	104
 706 0119 80       		.byte	-128
 707 011a 6A       		.byte	106
 708 011b 80       		.byte	-128
 709 011c 6C       		.byte	108
 710 011d 80       		.byte	-128
 711 011e 6E       		.byte	110
 712 011f 80       		.byte	-128
 713 0120 83       		.byte	-125
 714 0121 01       		.byte	1
 715 0122 9F       		.byte	-97
 716 0123 01       		.byte	1
 717 0124 B1       		.byte	-79
 718 0125 01       		.byte	1
 719 0126 B7       		.byte	-73
 720 0127 01       		.byte	1
 721 0128 BF       		.byte	-65
 722 0129 40       		.byte	64
 723 012a C0       		.byte	-64
 724 012b 14       		.byte	20
 725 012c C5       		.byte	-59
 726 012d EC       		.byte	-20
 727 012e C7       		.byte	-57
 728 012f 20       		.byte	32
 729 0130 C8       		.byte	-56
 730 0131 23       		.byte	35
 731 0132 C9       		.byte	-55
 732 0133 FF       		.byte	-1
 733 0134 CA       		.byte	-54
 734 0135 FF       		.byte	-1
 735 0136 CB       		.byte	-53
 736 0137 FF       		.byte	-1
 737 0138 CD       		.byte	-51
 738 0139 83       		.byte	-125
 739 013a CE       		.byte	-50
 740 013b 03       		.byte	3
 741 013c CF       		.byte	-49
 742 013d 01       		.byte	1
 743 013e D0       		.byte	-48
 744 013f 18       		.byte	24
 745 0140 D4       		.byte	-44
 746 0141 01       		.byte	1
 747 0142 D9       		.byte	-39
 748 0143 0B       		.byte	11
 749 0144 DA       		.byte	-38
 750 0145 0B       		.byte	11
 751 0146 DB       		.byte	-37
 752 0147 0B       		.byte	11
 753 0148 DC       		.byte	-36
 754 0149 90       		.byte	-112
 755 014a DD       		.byte	-35
 756 014b 99       		.byte	-103
 757 014c DF       		.byte	-33
 758 014d 01       		.byte	1
 759 014e E0       		.byte	-32
 760 014f 40       		.byte	64
 761 0150 E2       		.byte	-30
ARM GAS  C:\Users\tiantiaf\AppData\Local\Temp\ccwRBDDd.s 			page 25


 762 0151 40       		.byte	64
 763 0152 E4       		.byte	-28
 764 0153 40       		.byte	64
 765 0154 E5       		.byte	-27
 766 0155 40       		.byte	64
 767 0156 E6       		.byte	-26
 768 0157 80       		.byte	-128
 769 0158 E8       		.byte	-24
 770 0159 80       		.byte	-128
 771 015a EA       		.byte	-22
 772 015b 80       		.byte	-128
 773 015c EC       		.byte	-20
 774 015d 80       		.byte	-128
 775 015e EE       		.byte	-18
 776 015f 80       		.byte	-128
 777 0160 21       		.byte	33
 778 0161 02       		.byte	2
 779 0162 22       		.byte	34
 780 0163 40       		.byte	64
 781 0164 33       		.byte	51
 782 0165 40       		.byte	64
 783 0166 39       		.byte	57
 784 0167 02       		.byte	2
 785 0168 41       		.byte	65
 786 0169 01       		.byte	1
 787 016a 43       		.byte	67
 788 016b 40       		.byte	64
 789 016c 46       		.byte	70
 790 016d 80       		.byte	-128
 791 016e 49       		.byte	73
 792 016f 05       		.byte	5
 793 0170 4E       		.byte	78
 794 0171 02       		.byte	2
 795 0172 51       		.byte	81
 796 0173 01       		.byte	1
 797 0174 52       		.byte	82
 798 0175 02       		.byte	2
 799 0176 59       		.byte	89
 800 0177 05       		.byte	5
 801 0178 5A       		.byte	90
 802 0179 80       		.byte	-128
 803 017a 76       		.byte	118
 804 017b 80       		.byte	-128
 805 017c 77       		.byte	119
 806 017d 40       		.byte	64
 807 017e 78       		.byte	120
 808 017f 02       		.byte	2
 809 0180 7E       		.byte	126
 810 0181 A0       		.byte	-96
 811 0182 81       		.byte	-127
 812 0183 02       		.byte	2
 813 0184 98       		.byte	-104
 814 0185 02       		.byte	2
 815 0186 A2       		.byte	-94
 816 0187 A0       		.byte	-96
 817 0188 A9       		.byte	-87
 818 0189 02       		.byte	2
ARM GAS  C:\Users\tiantiaf\AppData\Local\Temp\ccwRBDDd.s 			page 26


 819 018a AA       		.byte	-86
 820 018b 40       		.byte	64
 821 018c CC       		.byte	-52
 822 018d 08       		.byte	8
 823 018e CE       		.byte	-50
 824 018f 01       		.byte	1
 825 0190 D0       		.byte	-48
 826 0191 89       		.byte	-119
 827 0192 D2       		.byte	-46
 828 0193 10       		.byte	16
 829 0194 D6       		.byte	-42
 830 0195 0B       		.byte	11
 831 0196 DE       		.byte	-34
 832 0197 C1       		.byte	-63
 833 0198 6B       		.byte	107
 834 0199 40       		.byte	64
 835 019a 6F       		.byte	111
 836 019b 04       		.byte	4
 837 019c 74       		.byte	116
 838 019d 20       		.byte	32
 839 019e 83       		.byte	-125
 840 019f 04       		.byte	4
 841 01a0 9B       		.byte	-101
 842 01a1 40       		.byte	64
 843 01a2 A0       		.byte	-96
 844 01a3 20       		.byte	32
 845 01a4 A8       		.byte	-88
 846 01a5 20       		.byte	32
 847 01a6 AB       		.byte	-85
 848 01a7 40       		.byte	64
 849 01a8 DA       		.byte	-38
 850 01a9 80       		.byte	-128
 851 01aa DC       		.byte	-36
 852 01ab 60       		.byte	96
 853 01ac E2       		.byte	-30
 854 01ad 80       		.byte	-128
 855 01ae EA       		.byte	-22
 856 01af 80       		.byte	-128
 857 01b0 EE       		.byte	-18
 858 01b1 80       		.byte	-128
 859 01b2 24       		.byte	36
 860 01b3 50       		.byte	80
 861 01b4 8C       		.byte	-116
 862 01b5 50       		.byte	80
 863 01b6 C8       		.byte	-56
 864 01b7 01       		.byte	1
 865 01b8 E2       		.byte	-30
 866 01b9 0A       		.byte	10
 867 01ba 10       		.byte	16
 868 01bb 01       		.byte	1
 869 01bc 11       		.byte	17
 870 01bd 01       		.byte	1
 871 01be 0000     		.text
 872              	.Letext0:
 873              		.file 2 "d:\\program files (x86)\\cypress\\psoc creator\\3.3\\psoc creator\\import\\gnu\\arm\\4.9.
 874              		.file 3 ".\\Generated_Source\\PSoC4\\cytypes.h"
 875              		.file 4 ".\\Generated_Source\\PSoC4\\CyLib.h"
ARM GAS  C:\Users\tiantiaf\AppData\Local\Temp\ccwRBDDd.s 			page 27


 876              		.file 5 ".\\Generated_Source\\PSoC4\\CyLFClk.h"