ARM GAS  C:\Users\tiantiaf\AppData\Local\Temp\ccOKXgBa.s 			page 1


   1              		.cpu cortex-m0
   2              		.fpu softvfp
   3              		.eabi_attribute 20, 1
   4              		.eabi_attribute 21, 1
   5              		.eabi_attribute 23, 3
   6              		.eabi_attribute 24, 1
   7              		.eabi_attribute 25, 1
   8              		.eabi_attribute 26, 1
   9              		.eabi_attribute 30, 1
  10              		.eabi_attribute 34, 0
  11              		.eabi_attribute 18, 4
  12              		.code	16
  13              		.file	"Stone_Init.c"
  14              		.text
  15              	.Ltext0:
  16              		.cfi_sections	.debug_frame
  17              		.section	.text.InitializeSystem,"ax",%progbits
  18              		.align	2
  19              		.global	InitializeSystem
  20              		.code	16
  21              		.thumb_func
  22              		.type	InitializeSystem, %function
  23              	InitializeSystem:
  24              	.LFB37:
  25              		.file 1 ".\\Stone_Init.c"
   1:.\Stone_Init.c **** /* ========================================
   2:.\Stone_Init.c ****  *
   3:.\Stone_Init.c ****  * Tiantian Feng, 2017
   4:.\Stone_Init.c ****  * All Rights Reserved
   5:.\Stone_Init.c ****  * UNPUBLISHED, LICENSED SOFTWARE.
   6:.\Stone_Init.c ****  *
   7:.\Stone_Init.c ****  * CONFIDENTIAL AND PROPRIETARY INFORMATION
   8:.\Stone_Init.c ****  * WHICH IS THE PROPERTY OF your company.
   9:.\Stone_Init.c ****  *
  10:.\Stone_Init.c ****  * ========================================
  11:.\Stone_Init.c **** */
  12:.\Stone_Init.c **** 
  13:.\Stone_Init.c **** #include "Stone_Init.h"
  14:.\Stone_Init.c **** #include "Stone_Motor.h"
  15:.\Stone_Init.c **** 
  16:.\Stone_Init.c **** 
  17:.\Stone_Init.c **** /*******************************************************************************
  18:.\Stone_Init.c **** * Function Name: InitializeSystem
  19:.\Stone_Init.c **** ********************************************************************************
  20:.\Stone_Init.c **** * Summary:
  21:.\Stone_Init.c **** * Start the components and initialize system.
  22:.\Stone_Init.c **** *
  23:.\Stone_Init.c **** * Parameters:
  24:.\Stone_Init.c **** *  void
  25:.\Stone_Init.c **** *
  26:.\Stone_Init.c **** * Return:
  27:.\Stone_Init.c **** *  void
  28:.\Stone_Init.c **** *
  29:.\Stone_Init.c **** *******************************************************************************/
  30:.\Stone_Init.c **** void InitializeSystem(void)
  31:.\Stone_Init.c **** {
  26              		.loc 1 31 0
ARM GAS  C:\Users\tiantiaf\AppData\Local\Temp\ccOKXgBa.s 			page 2


  27              		.cfi_startproc
  28 0000 08B5     		push	{r3, lr}
  29              		.cfi_def_cfa_offset 8
  30              		.cfi_offset 3, -8
  31              		.cfi_offset 14, -4
  32:.\Stone_Init.c **** 	/* Enable global interrupt mask */
  33:.\Stone_Init.c **** 	CyGlobalIntEnable; 
  32              		.loc 1 33 0
  33              	@ 33 ".\Stone_Init.c" 1
  34 0002 62B6     		CPSIE   i
  35              	@ 0 "" 2
  34:.\Stone_Init.c **** 		
  35:.\Stone_Init.c **** 	/* Start BLE component and register the CustomEventHandler function. This 
  36:.\Stone_Init.c **** 	 * function exposes the events from BLE component for application use */
  37:.\Stone_Init.c ****     CyBle_Start(CustomEventHandler);
  36              		.loc 1 37 0
  37              		.code	16
  38 0004 0448     		ldr	r0, .L2
  39 0006 FFF7FEFF 		bl	CyBle_Start
  40              	.LVL0:
  38:.\Stone_Init.c ****     
  39:.\Stone_Init.c ****     LED_Write(LED_ON);
  41              		.loc 1 39 0
  42 000a 0020     		mov	r0, #0
  43 000c FFF7FEFF 		bl	LED_Write
  44              	.LVL1:
  40:.\Stone_Init.c ****     
  41:.\Stone_Init.c ****     Motor_Write(MOTOR_OFF);
  45              		.loc 1 41 0
  46 0010 0020     		mov	r0, #0
  47 0012 FFF7FEFF 		bl	Motor_Write
  48              	.LVL2:
  42:.\Stone_Init.c **** }
  49              		.loc 1 42 0
  50              		@ sp needed
  51 0016 08BD     		pop	{r3, pc}
  52              	.L3:
  53              		.align	2
  54              	.L2:
  55 0018 00000000 		.word	CustomEventHandler
  56              		.cfi_endproc
  57              	.LFE37:
  58              		.size	InitializeSystem, .-InitializeSystem
  59              		.section	.text.InitStoneInterrupt,"ax",%progbits
  60              		.align	2
  61              		.global	InitStoneInterrupt
  62              		.code	16
  63              		.thumb_func
  64              		.type	InitStoneInterrupt, %function
  65              	InitStoneInterrupt:
  66              	.LFB38:
  43:.\Stone_Init.c **** 
  44:.\Stone_Init.c **** void InitStoneInterrupt()
  45:.\Stone_Init.c **** {
  67              		.loc 1 45 0
  68              		.cfi_startproc
  69 0000 08B5     		push	{r3, lr}
ARM GAS  C:\Users\tiantiaf\AppData\Local\Temp\ccOKXgBa.s 			page 3


  70              		.cfi_def_cfa_offset 8
  71              		.cfi_offset 3, -8
  72              		.cfi_offset 14, -4
  46:.\Stone_Init.c ****     /* Init Timer and PWM */
  47:.\Stone_Init.c ****     Stone_PWM_Init();
  73              		.loc 1 47 0
  74 0002 FFF7FEFF 		bl	Stone_PWM_Init
  75              	.LVL3:
  48:.\Stone_Init.c ****     Stone_Timer_Start(); // Configure and enable ms timer
  76              		.loc 1 48 0
  77 0006 FFF7FEFF 		bl	Stone_Timer_Start
  78              	.LVL4:
  49:.\Stone_Init.c ****     
  50:.\Stone_Init.c ****     ms_isr_StartEx(MS_ISR);
  79              		.loc 1 50 0
  80 000a 0548     		ldr	r0, .L5
  81 000c FFF7FEFF 		bl	ms_isr_StartEx
  82              	.LVL5:
  51:.\Stone_Init.c ****     trigger_isr_StartEx(TRIGGER_ISR);
  83              		.loc 1 51 0
  84 0010 0448     		ldr	r0, .L5+4
  85 0012 FFF7FEFF 		bl	trigger_isr_StartEx
  86              	.LVL6:
  52:.\Stone_Init.c **** 	tc_isr_StartEx(TC_ISR);   
  87              		.loc 1 52 0
  88 0016 0448     		ldr	r0, .L5+8
  89 0018 FFF7FEFF 		bl	tc_isr_StartEx
  90              	.LVL7:
  53:.\Stone_Init.c **** }
  91              		.loc 1 53 0
  92              		@ sp needed
  93 001c 08BD     		pop	{r3, pc}
  94              	.L6:
  95 001e C046     		.align	2
  96              	.L5:
  97 0020 00000000 		.word	MS_ISR
  98 0024 00000000 		.word	TRIGGER_ISR
  99 0028 00000000 		.word	TC_ISR
 100              		.cfi_endproc
 101              	.LFE38:
 102              		.size	InitStoneInterrupt, .-InitStoneInterrupt
 103              		.section	.text.StopStoneInterrupt,"ax",%progbits
 104              		.align	2
 105              		.global	StopStoneInterrupt
 106              		.code	16
 107              		.thumb_func
 108              		.type	StopStoneInterrupt, %function
 109              	StopStoneInterrupt:
 110              	.LFB39:
  54:.\Stone_Init.c **** 
  55:.\Stone_Init.c **** void StopStoneInterrupt(void)
  56:.\Stone_Init.c **** {
 111              		.loc 1 56 0
 112              		.cfi_startproc
 113 0000 08B5     		push	{r3, lr}
 114              		.cfi_def_cfa_offset 8
 115              		.cfi_offset 3, -8
ARM GAS  C:\Users\tiantiaf\AppData\Local\Temp\ccOKXgBa.s 			page 4


 116              		.cfi_offset 14, -4
  57:.\Stone_Init.c ****     ms_isr_Stop();
 117              		.loc 1 57 0
 118 0002 FFF7FEFF 		bl	ms_isr_Stop
 119              	.LVL8:
  58:.\Stone_Init.c ****     trigger_isr_Stop();
 120              		.loc 1 58 0
 121 0006 FFF7FEFF 		bl	trigger_isr_Stop
 122              	.LVL9:
  59:.\Stone_Init.c **** 	tc_isr_Stop();  
 123              		.loc 1 59 0
 124 000a FFF7FEFF 		bl	tc_isr_Stop
 125              	.LVL10:
  60:.\Stone_Init.c ****     
  61:.\Stone_Init.c ****     /* Stop Timer and PWM */
  62:.\Stone_Init.c ****     Stone_PWM_Stop();
 126              		.loc 1 62 0
 127 000e FFF7FEFF 		bl	Stone_PWM_Stop
 128              	.LVL11:
  63:.\Stone_Init.c ****     Stone_Timer_Stop(); // Configure and enable ms timer
 129              		.loc 1 63 0
 130 0012 FFF7FEFF 		bl	Stone_Timer_Stop
 131              	.LVL12:
  64:.\Stone_Init.c **** }
 132              		.loc 1 64 0
 133              		@ sp needed
 134 0016 08BD     		pop	{r3, pc}
 135              		.cfi_endproc
 136              	.LFE39:
 137              		.size	StopStoneInterrupt, .-StopStoneInterrupt
 138              		.text
 139              	.Letext0:
 140              		.file 2 "Generated_Source\\PSoC4/cytypes.h"
 141              		.file 3 "Generated_Source\\PSoC4/BLE_STONE_Stack.h"
 142              		.file 4 "Generated_Source\\PSoC4/BLE_STONE.h"
 143              		.file 5 "Generated_Source\\PSoC4/LED.h"
 144              		.file 6 "Generated_Source\\PSoC4/Motor.h"
 145              		.file 7 "Generated_Source\\PSoC4/Stone_PWM.h"
 146              		.file 8 "Generated_Source\\PSoC4/Stone_Timer.h"
 147              		.file 9 "Generated_Source\\PSoC4/ms_isr.h"
 148              		.file 10 "Generated_Source\\PSoC4/trigger_isr.h"
 149              		.file 11 "Generated_Source\\PSoC4/tc_isr.h"