ARM GAS  C:\Users\tiantiaf\AppData\Local\Temp\ccCTF0bu.s 			page 1


   1              		.cpu cortex-m0
   2              		.fpu softvfp
   3              		.eabi_attribute 20, 1
   4              		.eabi_attribute 21, 1
   5              		.eabi_attribute 23, 3
   6              		.eabi_attribute 24, 1
   7              		.eabi_attribute 25, 1
   8              		.eabi_attribute 26, 1
   9              		.eabi_attribute 30, 1
  10              		.eabi_attribute 34, 0
  11              		.eabi_attribute 18, 4
  12              		.code	16
  13              		.file	"Stone_Motor.c"
  14              		.text
  15              	.Ltext0:
  16              		.cfi_sections	.debug_frame
  17              		.section	.text.StoneUpdateMotor,"ax",%progbits
  18              		.align	2
  19              		.global	StoneUpdateMotor
  20              		.code	16
  21              		.thumb_func
  22              		.type	StoneUpdateMotor, %function
  23              	StoneUpdateMotor:
  24              	.LFB37:
  25              		.file 1 ".\\Stone_Motor.c"
   1:.\Stone_Motor.c **** /* ========================================
   2:.\Stone_Motor.c ****  *
   3:.\Stone_Motor.c ****  * Copyright YOUR COMPANY, THE YEAR
   4:.\Stone_Motor.c ****  * All Rights Reserved
   5:.\Stone_Motor.c ****  * UNPUBLISHED, LICENSED SOFTWARE.
   6:.\Stone_Motor.c ****  *
   7:.\Stone_Motor.c ****  * CONFIDENTIAL AND PROPRIETARY INFORMATION
   8:.\Stone_Motor.c ****  * WHICH IS THE PROPERTY OF your company.
   9:.\Stone_Motor.c ****  *
  10:.\Stone_Motor.c ****  * ========================================
  11:.\Stone_Motor.c **** */
  12:.\Stone_Motor.c **** 
  13:.\Stone_Motor.c **** #include <project.h>
  14:.\Stone_Motor.c **** #include <main.h>
  15:.\Stone_Motor.c **** #include "Stone_Motor.h"
  16:.\Stone_Motor.c **** #include "Stone_Motor_Sequence.h"
  17:.\Stone_Motor.c **** #include "Stone_Init.h"
  18:.\Stone_Motor.c **** 
  19:.\Stone_Motor.c **** uint8 status = MOTOR_INACTIVE;
  20:.\Stone_Motor.c **** uint16 ms_count = PERIOD_PER_CYCLE_RUN - 1;
  21:.\Stone_Motor.c **** 
  22:.\Stone_Motor.c **** uint8 Stone_Motor[MOTOR_LENGTH];
  23:.\Stone_Motor.c **** 
  24:.\Stone_Motor.c **** volatile uint8 Stone_Motor_Mode;
  25:.\Stone_Motor.c **** 
  26:.\Stone_Motor.c **** void UpdateMotorPWM(uint8 index);
  27:.\Stone_Motor.c **** 
  28:.\Stone_Motor.c **** void StoneUpdateMotor()
  29:.\Stone_Motor.c **** {
  26              		.loc 1 29 0
  27              		.cfi_startproc
  28 0000 08B5     		push	{r3, lr}
ARM GAS  C:\Users\tiantiaf\AppData\Local\Temp\ccCTF0bu.s 			page 2


  29              		.cfi_def_cfa_offset 8
  30              		.cfi_offset 3, -8
  31              		.cfi_offset 14, -4
  30:.\Stone_Motor.c ****     /* Mode 0, just on and off */
  31:.\Stone_Motor.c ****     if (Stone_Motor[MOTOR_ON_INDEX] == MOTOR_ON)
  32              		.loc 1 31 0
  33 0002 0F4B     		ldr	r3, .L6
  34 0004 1B78     		ldrb	r3, [r3]
  35 0006 012B     		cmp	r3, #1
  36 0008 11D1     		bne	.L2
  32:.\Stone_Motor.c ****     {
  33:.\Stone_Motor.c ****         Stone_Motor_Mode = Stone_Motor[MOTOR_MODE_INDEX];
  37              		.loc 1 33 0
  38 000a 0D4B     		ldr	r3, .L6
  39 000c 5A78     		ldrb	r2, [r3, #1]
  40 000e 0D4B     		ldr	r3, .L6+4
  41 0010 1A70     		strb	r2, [r3]
  34:.\Stone_Motor.c ****         
  35:.\Stone_Motor.c ****         /* If Motor is set to be on, we decide which mode we want to be */
  36:.\Stone_Motor.c ****         switch(Stone_Motor_Mode)
  42              		.loc 1 36 0
  43 0012 1B78     		ldrb	r3, [r3]
  44 0014 DBB2     		uxtb	r3, r3
  45 0016 002B     		cmp	r3, #0
  46 0018 02D0     		beq	.L4
  47 001a 012B     		cmp	r3, #1
  48 001c 04D0     		beq	.L5
  49 001e 0EE0     		b	.L1
  50              	.L4:
  37:.\Stone_Motor.c ****         {
  38:.\Stone_Motor.c ****             case MODE0:
  39:.\Stone_Motor.c ****                 Motor_Write(MOTOR_ON);
  51              		.loc 1 39 0
  52 0020 0120     		mov	r0, #1
  53 0022 FFF7FEFF 		bl	Motor_Write
  54              	.LVL0:
  40:.\Stone_Motor.c ****                 break;
  55              		.loc 1 40 0
  56 0026 0AE0     		b	.L1
  57              	.L5:
  41:.\Stone_Motor.c ****             
  42:.\Stone_Motor.c ****             case MODE1:
  43:.\Stone_Motor.c ****                 InitStoneInterrupt();
  58              		.loc 1 43 0
  59 0028 FFF7FEFF 		bl	InitStoneInterrupt
  60              	.LVL1:
  44:.\Stone_Motor.c ****                 break;    
  61              		.loc 1 44 0
  62 002c 07E0     		b	.L1
  63              	.L2:
  45:.\Stone_Motor.c ****                 
  46:.\Stone_Motor.c ****             default:
  47:.\Stone_Motor.c ****                 break;
  48:.\Stone_Motor.c ****                 
  49:.\Stone_Motor.c ****         }
  50:.\Stone_Motor.c ****         
  51:.\Stone_Motor.c ****     } else {
ARM GAS  C:\Users\tiantiaf\AppData\Local\Temp\ccCTF0bu.s 			page 3


  52:.\Stone_Motor.c ****         Motor_Write(MOTOR_OFF);
  64              		.loc 1 52 0
  65 002e 0020     		mov	r0, #0
  66 0030 FFF7FEFF 		bl	Motor_Write
  67              	.LVL2:
  53:.\Stone_Motor.c ****         Stone_Motor_Mode = 0;
  68              		.loc 1 53 0
  69 0034 0022     		mov	r2, #0
  70 0036 034B     		ldr	r3, .L6+4
  71 0038 1A70     		strb	r2, [r3]
  54:.\Stone_Motor.c ****         StopStoneInterrupt();
  72              		.loc 1 54 0
  73 003a FFF7FEFF 		bl	StopStoneInterrupt
  74              	.LVL3:
  75              	.L1:
  55:.\Stone_Motor.c ****     }
  56:.\Stone_Motor.c ****     
  57:.\Stone_Motor.c **** }
  76              		.loc 1 57 0
  77              		@ sp needed
  78 003e 08BD     		pop	{r3, pc}
  79              	.L7:
  80              		.align	2
  81              	.L6:
  82 0040 00000000 		.word	Stone_Motor
  83 0044 00000000 		.word	Stone_Motor_Mode
  84              		.cfi_endproc
  85              	.LFE37:
  86              		.size	StoneUpdateMotor, .-StoneUpdateMotor
  87              		.section	.text.TRIGGER_ISR,"ax",%progbits
  88              		.align	2
  89              		.global	TRIGGER_ISR
  90              		.code	16
  91              		.thumb_func
  92              		.type	TRIGGER_ISR, %function
  93              	TRIGGER_ISR:
  94              	.LFB38:
  58:.\Stone_Motor.c **** 
  59:.\Stone_Motor.c **** CY_ISR(TRIGGER_ISR) {
  95              		.loc 1 59 0
  96              		.cfi_startproc
  97 0000 08B5     		push	{r3, lr}
  98              		.cfi_def_cfa_offset 8
  99              		.cfi_offset 3, -8
 100              		.cfi_offset 14, -4
  60:.\Stone_Motor.c **** 	Motor_Write(MOTOR_ON);
 101              		.loc 1 60 0
 102 0002 0120     		mov	r0, #1
 103 0004 FFF7FEFF 		bl	Motor_Write
 104              	.LVL4:
  61:.\Stone_Motor.c **** }
 105              		.loc 1 61 0
 106              		@ sp needed
 107 0008 08BD     		pop	{r3, pc}
 108              		.cfi_endproc
 109              	.LFE38:
 110              		.size	TRIGGER_ISR, .-TRIGGER_ISR
ARM GAS  C:\Users\tiantiaf\AppData\Local\Temp\ccCTF0bu.s 			page 4


 111 000a C046     		.section	.text.TC_ISR,"ax",%progbits
 112              		.align	2
 113              		.global	TC_ISR
 114              		.code	16
 115              		.thumb_func
 116              		.type	TC_ISR, %function
 117              	TC_ISR:
 118              	.LFB39:
  62:.\Stone_Motor.c **** 
  63:.\Stone_Motor.c **** CY_ISR(TC_ISR) {
 119              		.loc 1 63 0
 120              		.cfi_startproc
 121 0000 08B5     		push	{r3, lr}
 122              		.cfi_def_cfa_offset 8
 123              		.cfi_offset 3, -8
 124              		.cfi_offset 14, -4
  64:.\Stone_Motor.c **** 	Motor_Write(MOTOR_OFF);
 125              		.loc 1 64 0
 126 0002 0020     		mov	r0, #0
 127 0004 FFF7FEFF 		bl	Motor_Write
 128              	.LVL5:
  65:.\Stone_Motor.c **** }
 129              		.loc 1 65 0
 130              		@ sp needed
 131 0008 08BD     		pop	{r3, pc}
 132              		.cfi_endproc
 133              	.LFE39:
 134              		.size	TC_ISR, .-TC_ISR
 135 000a C046     		.section	.text.UpdateMotorPWM,"ax",%progbits
 136              		.align	2
 137              		.global	UpdateMotorPWM
 138              		.code	16
 139              		.thumb_func
 140              		.type	UpdateMotorPWM, %function
 141              	UpdateMotorPWM:
 142              	.LFB41:
  66:.\Stone_Motor.c **** 
  67:.\Stone_Motor.c **** CY_ISR(MS_ISR) {
  68:.\Stone_Motor.c ****     
  69:.\Stone_Motor.c ****     if(ms_count == 0)
  70:.\Stone_Motor.c ****     {
  71:.\Stone_Motor.c ****        ms_count = PERIOD_PER_CYCLE_RUN - 1;
  72:.\Stone_Motor.c ****     }
  73:.\Stone_Motor.c ****     
  74:.\Stone_Motor.c ****     UpdateMotorPWM(ms_count);
  75:.\Stone_Motor.c ****     ms_count--;
  76:.\Stone_Motor.c ****      
  77:.\Stone_Motor.c **** }
  78:.\Stone_Motor.c **** 
  79:.\Stone_Motor.c **** void UpdateMotorPWM(uint8 index)
  80:.\Stone_Motor.c **** {
 143              		.loc 1 80 0
 144              		.cfi_startproc
 145              	.LVL6:
 146 0000 08B5     		push	{r3, lr}
 147              		.cfi_def_cfa_offset 8
 148              		.cfi_offset 3, -8
ARM GAS  C:\Users\tiantiaf\AppData\Local\Temp\ccCTF0bu.s 			page 5


 149              		.cfi_offset 14, -4
  81:.\Stone_Motor.c ****     Stone_PWM_WriteCompare(Test[index]);
 150              		.loc 1 81 0
 151 0002 024B     		ldr	r3, .L11
 152 0004 185C     		ldrb	r0, [r3, r0]
 153              	.LVL7:
 154 0006 FFF7FEFF 		bl	Stone_PWM_WriteCompare
 155              	.LVL8:
  82:.\Stone_Motor.c **** }
 156              		.loc 1 82 0
 157              		@ sp needed
 158 000a 08BD     		pop	{r3, pc}
 159              	.L12:
 160              		.align	2
 161              	.L11:
 162 000c 00000000 		.word	.LANCHOR0
 163              		.cfi_endproc
 164              	.LFE41:
 165              		.size	UpdateMotorPWM, .-UpdateMotorPWM
 166              		.section	.text.MS_ISR,"ax",%progbits
 167              		.align	2
 168              		.global	MS_ISR
 169              		.code	16
 170              		.thumb_func
 171              		.type	MS_ISR, %function
 172              	MS_ISR:
 173              	.LFB40:
  67:.\Stone_Motor.c ****     
 174              		.loc 1 67 0
 175              		.cfi_startproc
 176 0000 10B5     		push	{r4, lr}
 177              		.cfi_def_cfa_offset 8
 178              		.cfi_offset 4, -8
 179              		.cfi_offset 14, -4
  69:.\Stone_Motor.c ****     {
 180              		.loc 1 69 0
 181 0002 074B     		ldr	r3, .L15
 182 0004 1B88     		ldrh	r3, [r3]
 183 0006 002B     		cmp	r3, #0
 184 0008 02D1     		bne	.L14
  71:.\Stone_Motor.c ****     }
 185              		.loc 1 71 0
 186 000a 3F22     		mov	r2, #63
 187 000c 044B     		ldr	r3, .L15
 188 000e 1A80     		strh	r2, [r3]
 189              	.L14:
  74:.\Stone_Motor.c ****     ms_count--;
 190              		.loc 1 74 0
 191 0010 034C     		ldr	r4, .L15
 192 0012 2078     		ldrb	r0, [r4]
 193 0014 FFF7FEFF 		bl	UpdateMotorPWM
 194              	.LVL9:
  75:.\Stone_Motor.c ****      
 195              		.loc 1 75 0
 196 0018 2388     		ldrh	r3, [r4]
 197 001a 013B     		sub	r3, r3, #1
 198 001c 2380     		strh	r3, [r4]
ARM GAS  C:\Users\tiantiaf\AppData\Local\Temp\ccCTF0bu.s 			page 6


  77:.\Stone_Motor.c **** 
 199              		.loc 1 77 0
 200              		@ sp needed
 201 001e 10BD     		pop	{r4, pc}
 202              	.L16:
 203              		.align	2
 204              	.L15:
 205 0020 00000000 		.word	.LANCHOR1
 206              		.cfi_endproc
 207              	.LFE40:
 208              		.size	MS_ISR, .-MS_ISR
 209              		.comm	Stone_Motor_Mode,1,1
 210              		.comm	Stone_Motor,4,4
 211              		.global	ms_count
 212              		.global	status
 213              		.global	Test
 214              		.section	.rodata
 215              		.align	2
 216              		.set	.LANCHOR0,. + 0
 217              		.type	Test, %object
 218              		.size	Test, 64
 219              	Test:
 220 0000 19       		.byte	25
 221 0001 19       		.byte	25
 222 0002 19       		.byte	25
 223 0003 19       		.byte	25
 224 0004 19       		.byte	25
 225 0005 19       		.byte	25
 226 0006 14       		.byte	20
 227 0007 14       		.byte	20
 228 0008 63       		.byte	99
 229 0009 63       		.byte	99
 230 000a 32       		.byte	50
 231 000b 30       		.byte	48
 232 000c 2E       		.byte	46
 233 000d 2E       		.byte	46
 234 000e 2D       		.byte	45
 235 000f 2B       		.byte	43
 236 0010 2B       		.byte	43
 237 0011 2A       		.byte	42
 238 0012 28       		.byte	40
 239 0013 28       		.byte	40
 240 0014 26       		.byte	38
 241 0015 26       		.byte	38
 242 0016 26       		.byte	38
 243 0017 24       		.byte	36
 244 0018 23       		.byte	35
 245 0019 21       		.byte	33
 246 001a 21       		.byte	33
 247 001b 1F       		.byte	31
 248 001c 1F       		.byte	31
 249 001d 1F       		.byte	31
 250 001e 1E       		.byte	30
 251 001f 1C       		.byte	28
 252 0020 1C       		.byte	28
 253 0021 19       		.byte	25
 254 0022 19       		.byte	25
ARM GAS  C:\Users\tiantiaf\AppData\Local\Temp\ccCTF0bu.s 			page 7


 255 0023 14       		.byte	20
 256 0024 19       		.byte	25
 257 0025 28       		.byte	40
 258 0026 32       		.byte	50
 259 0027 3C       		.byte	60
 260 0028 19       		.byte	25
 261 0029 19       		.byte	25
 262 002a 19       		.byte	25
 263 002b 19       		.byte	25
 264 002c 19       		.byte	25
 265 002d 19       		.byte	25
 266 002e 19       		.byte	25
 267 002f 19       		.byte	25
 268 0030 14       		.byte	20
 269 0031 14       		.byte	20
 270 0032 14       		.byte	20
 271 0033 19       		.byte	25
 272 0034 19       		.byte	25
 273 0035 19       		.byte	25
 274 0036 19       		.byte	25
 275 0037 19       		.byte	25
 276 0038 19       		.byte	25
 277 0039 14       		.byte	20
 278 003a 14       		.byte	20
 279 003b 14       		.byte	20
 280 003c 14       		.byte	20
 281 003d 14       		.byte	20
 282 003e 14       		.byte	20
 283 003f 14       		.byte	20
 284              		.data
 285              		.align	1
 286              		.set	.LANCHOR1,. + 0
 287              		.type	ms_count, %object
 288              		.size	ms_count, 2
 289              	ms_count:
 290 0000 3F00     		.short	63
 291              		.bss
 292              		.type	status, %object
 293              		.size	status, 1
 294              	status:
 295 0000 00       		.space	1
 296              		.text
 297              	.Letext0:
 298              		.file 2 "Generated_Source\\PSoC4/cytypes.h"
 299              		.file 3 ".\\Stone_Motor_Sequence.h"
 300              		.file 4 ".\\Stone_Init.h"
 301              		.file 5 "Generated_Source\\PSoC4/BLE_STONE_Stack.h"
 302              		.file 6 "Generated_Source\\PSoC4/Motor.h"
 303              		.file 7 "Generated_Source\\PSoC4/Stone_PWM.h"