ARM GAS  C:\Users\tiantiaf\AppData\Local\Temp\ccIpiqxv.s 			page 1


   1              		.cpu cortex-m0
   2              		.fpu softvfp
   3              		.eabi_attribute 20, 1
   4              		.eabi_attribute 21, 1
   5              		.eabi_attribute 23, 3
   6              		.eabi_attribute 24, 1
   7              		.eabi_attribute 25, 1
   8              		.eabi_attribute 26, 1
   9              		.eabi_attribute 30, 1
  10              		.eabi_attribute 34, 0
  11              		.eabi_attribute 18, 4
  12              		.code	16
  13              		.file	"main.c"
  14              		.text
  15              	.Ltext0:
  16              		.cfi_sections	.debug_frame
  17              		.section	.text.InitializeSystem,"ax",%progbits
  18              		.align	2
  19              		.code	16
  20              		.thumb_func
  21              		.type	InitializeSystem, %function
  22              	InitializeSystem:
  23              	.LFB38:
  24              		.file 1 ".\\main.c"
   1:.\main.c      **** /* ========================================
   2:.\main.c      ****  *
   3:.\main.c      ****  * Copyright YOUR COMPANY, THE YEAR
   4:.\main.c      ****  * All Rights Reserved
   5:.\main.c      ****  * UNPUBLISHED, LICENSED SOFTWARE.
   6:.\main.c      ****  *
   7:.\main.c      ****  * CONFIDENTIAL AND PROPRIETARY INFORMATION
   8:.\main.c      ****  * WHICH IS THE PROPERTY OF your company.
   9:.\main.c      ****  *
  10:.\main.c      ****  * ========================================
  11:.\main.c      **** */
  12:.\main.c      **** #include <project.h>
  13:.\main.c      **** #include <main.h>
  14:.\main.c      **** #include <BLEApplications.h>
  15:.\main.c      **** 
  16:.\main.c      **** /*****************************************************************************
  17:.\main.c      **** * Function Prototypes
  18:.\main.c      **** *****************************************************************************/
  19:.\main.c      **** static void InitializeSystem(void);
  20:.\main.c      **** static void UpdateLED(void);
  21:.\main.c      **** 
  22:.\main.c      **** extern uint8 LED_Mode[LED_MODE_LENGTH];
  23:.\main.c      **** 
  24:.\main.c      **** int main()
  25:.\main.c      **** {
  26:.\main.c      ****     CyGlobalIntEnable; /* Enable global interrupts. */
  27:.\main.c      **** 
  28:.\main.c      ****     /* Place your initialization/startup code here (e.g. MyInst_Start()) */
  29:.\main.c      ****     InitializeSystem();
  30:.\main.c      ****     
  31:.\main.c      ****     LED1_Write(1);
  32:.\main.c      ****     LED2_Write(1);
  33:.\main.c      ****     
ARM GAS  C:\Users\tiantiaf\AppData\Local\Temp\ccIpiqxv.s 			page 2


  34:.\main.c      ****     
  35:.\main.c      ****     for(;;)
  36:.\main.c      ****     {
  37:.\main.c      ****         /* Place your application code here. */
  38:.\main.c      ****         /*Process event callback to handle BLE events. The events generated and 
  39:.\main.c      **** 		* used for this application are inside the 'CustomEventHandler' routine*/
  40:.\main.c      ****         CyBle_ProcessEvents();
  41:.\main.c      **** 		
  42:.\main.c      **** 		if(TRUE == deviceConnected)
  43:.\main.c      **** 		{
  44:.\main.c      ****             /*Process event callback to handle BLE events. The events generated and 
  45:.\main.c      ****     		* used for this application are inside the 'CustomEventHandler' routine*/
  46:.\main.c      ****             CyBle_ProcessEvents();
  47:.\main.c      **** 			
  48:.\main.c      **** 			/* Update LED mode */
  49:.\main.c      **** 			if(TRUE == ledUpdateEnabled)
  50:.\main.c      **** 			{
  51:.\main.c      ****                 UpdateLED();
  52:.\main.c      **** 				ledUpdateEnabled = FALSE;
  53:.\main.c      **** 			}
  54:.\main.c      **** 		}
  55:.\main.c      ****     }
  56:.\main.c      **** }
  57:.\main.c      **** 
  58:.\main.c      **** /*******************************************************************************
  59:.\main.c      **** * Function Name: InitializeSystem
  60:.\main.c      **** ********************************************************************************
  61:.\main.c      **** * Summary:
  62:.\main.c      **** * Start the components and initialize system.
  63:.\main.c      **** *
  64:.\main.c      **** * Parameters:
  65:.\main.c      **** *  void
  66:.\main.c      **** *
  67:.\main.c      **** * Return:
  68:.\main.c      **** *  void
  69:.\main.c      **** *
  70:.\main.c      **** *******************************************************************************/
  71:.\main.c      **** void InitializeSystem(void)
  72:.\main.c      **** {
  25              		.loc 1 72 0
  26              		.cfi_startproc
  27 0000 08B5     		push	{r3, lr}
  28              		.cfi_def_cfa_offset 8
  29              		.cfi_offset 3, -8
  30              		.cfi_offset 14, -4
  73:.\main.c      **** 	/* Enable global interrupt mask */
  74:.\main.c      **** 	CyGlobalIntEnable; 
  31              		.loc 1 74 0
  32              	@ 74 ".\main.c" 1
  33 0002 62B6     		CPSIE   i
  34              	@ 0 "" 2
  75:.\main.c      **** 		
  76:.\main.c      **** 	/* Start BLE component and register the CustomEventHandler function. This 
  77:.\main.c      **** 	 * function exposes the events from BLE component for application use */
  78:.\main.c      ****     CyBle_Start(CustomEventHandler);	
  35              		.loc 1 78 0
  36              		.code	16
ARM GAS  C:\Users\tiantiaf\AppData\Local\Temp\ccIpiqxv.s 			page 3


  37 0004 0248     		ldr	r0, .L2
  38 0006 FFF7FEFF 		bl	CyBle_Start
  39              	.LVL0:
  79:.\main.c      ****     
  80:.\main.c      ****     PWM_1_Init();
  40              		.loc 1 80 0
  41 000a FFF7FEFF 		bl	PWM_1_Init
  42              	.LVL1:
  81:.\main.c      ****     
  82:.\main.c      **** 	
  83:.\main.c      **** }
  43              		.loc 1 83 0
  44              		@ sp needed
  45 000e 08BD     		pop	{r3, pc}
  46              	.L3:
  47              		.align	2
  48              	.L2:
  49 0010 00000000 		.word	CustomEventHandler
  50              		.cfi_endproc
  51              	.LFE38:
  52              		.size	InitializeSystem, .-InitializeSystem
  53              		.section	.text.UpdateLED,"ax",%progbits
  54              		.align	2
  55              		.code	16
  56              		.thumb_func
  57              		.type	UpdateLED, %function
  58              	UpdateLED:
  59              	.LFB39:
  84:.\main.c      **** 
  85:.\main.c      **** void UpdateLED(void)
  86:.\main.c      **** {
  60              		.loc 1 86 0
  61              		.cfi_startproc
  62 0000 08B5     		push	{r3, lr}
  63              		.cfi_def_cfa_offset 8
  64              		.cfi_offset 3, -8
  65              		.cfi_offset 14, -4
  87:.\main.c      ****     PWM_1_Stop();
  66              		.loc 1 87 0
  67 0002 FFF7FEFF 		bl	PWM_1_Stop
  68              	.LVL2:
  88:.\main.c      ****     
  89:.\main.c      ****     if (LED_Mode[MODE0] == 0x01)
  90:.\main.c      ****     {
  91:.\main.c      ****         //LED1_Write(0);
  92:.\main.c      ****         
  93:.\main.c      ****     } else {
  94:.\main.c      ****         //LED1_Write(1);
  95:.\main.c      ****     }
  96:.\main.c      ****     
  97:.\main.c      ****     if (LED_Mode[MODE1] == 0x02)
  98:.\main.c      ****     {
  99:.\main.c      ****         //LED2_Write(0);
 100:.\main.c      ****     } else {
 101:.\main.c      ****         //LED2_Write(1);
 102:.\main.c      ****     }
 103:.\main.c      ****     
ARM GAS  C:\Users\tiantiaf\AppData\Local\Temp\ccIpiqxv.s 			page 4


 104:.\main.c      ****     if (LED_Mode[MODE2] <= 100)
  69              		.loc 1 104 0
  70 0006 044B     		ldr	r3, .L6
  71 0008 9878     		ldrb	r0, [r3, #2]
  72 000a 6428     		cmp	r0, #100
  73 000c 01D8     		bhi	.L5
 105:.\main.c      ****     {
 106:.\main.c      ****         PWM_1_WriteCompare(LED_Mode[MODE2]);
  74              		.loc 1 106 0
  75 000e FFF7FEFF 		bl	PWM_1_WriteCompare
  76              	.LVL3:
  77              	.L5:
 107:.\main.c      ****     }
 108:.\main.c      ****     
 109:.\main.c      ****     PWM_1_Start();
  78              		.loc 1 109 0
  79 0012 FFF7FEFF 		bl	PWM_1_Start
  80              	.LVL4:
 110:.\main.c      ****                 
 111:.\main.c      **** }
  81              		.loc 1 111 0
  82              		@ sp needed
  83 0016 08BD     		pop	{r3, pc}
  84              	.L7:
  85              		.align	2
  86              	.L6:
  87 0018 00000000 		.word	LED_Mode
  88              		.cfi_endproc
  89              	.LFE39:
  90              		.size	UpdateLED, .-UpdateLED
  91              		.section	.text.main,"ax",%progbits
  92              		.align	2
  93              		.global	main
  94              		.code	16
  95              		.thumb_func
  96              		.type	main, %function
  97              	main:
  98              	.LFB37:
  25:.\main.c      ****     CyGlobalIntEnable; /* Enable global interrupts. */
  99              		.loc 1 25 0
 100              		.cfi_startproc
 101 0000 08B5     		push	{r3, lr}
 102              		.cfi_def_cfa_offset 8
 103              		.cfi_offset 3, -8
 104              		.cfi_offset 14, -4
  26:.\main.c      **** 
 105              		.loc 1 26 0
 106              	@ 26 ".\main.c" 1
 107 0002 62B6     		CPSIE   i
 108              	@ 0 "" 2
  29:.\main.c      ****     
 109              		.loc 1 29 0
 110              		.code	16
 111 0004 FFF7FEFF 		bl	InitializeSystem
 112              	.LVL5:
  31:.\main.c      ****     LED2_Write(1);
 113              		.loc 1 31 0
ARM GAS  C:\Users\tiantiaf\AppData\Local\Temp\ccIpiqxv.s 			page 5


 114 0008 0120     		mov	r0, #1
 115 000a FFF7FEFF 		bl	LED1_Write
 116              	.LVL6:
  32:.\main.c      ****     
 117              		.loc 1 32 0
 118 000e 0120     		mov	r0, #1
 119 0010 FFF7FEFF 		bl	LED2_Write
 120              	.LVL7:
 121              	.L9:
  40:.\main.c      **** 		
 122              		.loc 1 40 0
 123 0014 FFF7FEFF 		bl	CyBle_ProcessEvents
 124              	.LVL8:
  42:.\main.c      **** 		{
 125              		.loc 1 42 0
 126 0018 074B     		ldr	r3, .L12
 127 001a 1B78     		ldrb	r3, [r3]
 128 001c 012B     		cmp	r3, #1
 129 001e F9D1     		bne	.L9
  46:.\main.c      **** 			
 130              		.loc 1 46 0
 131 0020 FFF7FEFF 		bl	CyBle_ProcessEvents
 132              	.LVL9:
  49:.\main.c      **** 			{
 133              		.loc 1 49 0
 134 0024 054B     		ldr	r3, .L12+4
 135 0026 1B78     		ldrb	r3, [r3]
 136 0028 012B     		cmp	r3, #1
 137 002a F3D1     		bne	.L9
  51:.\main.c      **** 				ledUpdateEnabled = FALSE;
 138              		.loc 1 51 0
 139 002c FFF7FEFF 		bl	UpdateLED
 140              	.LVL10:
  52:.\main.c      **** 			}
 141              		.loc 1 52 0
 142 0030 0022     		mov	r2, #0
 143 0032 024B     		ldr	r3, .L12+4
 144 0034 1A70     		strb	r2, [r3]
 145 0036 EDE7     		b	.L9
 146              	.L13:
 147              		.align	2
 148              	.L12:
 149 0038 00000000 		.word	deviceConnected
 150 003c 00000000 		.word	ledUpdateEnabled
 151              		.cfi_endproc
 152              	.LFE37:
 153              		.size	main, .-main
 154              		.comm	LED_Mode,4,4
 155              		.text
 156              	.Letext0:
 157              		.file 2 "Generated_Source\\PSoC4/cytypes.h"
 158              		.file 3 "Generated_Source\\PSoC4/BLE_LED_Stack.h"
 159              		.file 4 "Generated_Source\\PSoC4/BLE_LED.h"
 160              		.file 5 "./BLEApplications.h"
 161              		.file 6 "Generated_Source\\PSoC4/PWM_1.h"
 162              		.file 7 "Generated_Source\\PSoC4/LED1.h"
 163              		.file 8 "Generated_Source\\PSoC4/LED2.h"
ARM GAS  C:\Users\tiantiaf\AppData\Local\Temp\ccIpiqxv.s 			page 6

